(lp0
S'Scan'
p1
aS'Type'
p2
aS'BCID'
p3
aS'sigma'
p4
aS'sigmaErr'
p5
aS'sigmaRatio'
p6
aS'sigmaRatio_Err'
p7
aS'Amp'
p8
aS'AmpErr'
p9
aS'Frac'
p10
aS'FracErr'
p11
aS'Mean'
p12
aS'MeanErr'
p13
aS'Const'
p14
aS'ConstErr'
p15
aS'CapSigma'
p16
aS'CapSigmaErr'
p17
aS'peak'
p18
aS'peakErr'
p19
aS'area'
p20
aS'areaErr'
p21
aS'fitStatus'
p22
aS'chi2'
p23
aS'ndof'
p24
a.