(lp0
(lp1
S'Scan'
p2
aS'Type'
p3
aS'BCID'
p4
aS'sigma'
p5
aS'sigmaErr'
p6
aS'sigmaRatio'
p7
aS'sigmaRatio_Err'
p8
aS'Amp'
p9
aS'AmpErr'
p10
aS'Frac'
p11
aS'FracErr'
p12
aS'Mean'
p13
aS'MeanErr'
p14
aS'CapSigma'
p15
aS'CapSigmaErr'
p16
aS'peak'
p17
aS'peakErr'
p18
aS'area'
p19
aS'areaErr'
p20
aS'fitStatus'
p21
aS'chi2'
p22
aS'ndof'
p23
aa(lp24
S'1'
p25
aS'X'
p26
aS'644'
p27
aFnan
aFnan
aFnan
aFnan
aFnan
aFnan
aFnan
aFnan
aFnan
aFnan
aF-999.0
aF-999.0
aFnan
aFnan
aFnan
aFnan
aFnan
aFnan
aI-999
aFinf
aI41
aa(lp28
g25
ag26
aS'1215'
p29
aFnan
aFnan
aFnan
aFnan
aFnan
aFnan
aFnan
aFnan
aFnan
aFnan
aF-999.0
aF-999.0
aFnan
aFnan
aFnan
aFnan
aFnan
aFnan
aI-999
aFinf
aI41
aa(lp30
g25
ag26
aS'2269'
p31
aFnan
aFnan
aFnan
aFnan
aFnan
aFnan
aFnan
aFnan
aFnan
aFnan
aF-999.0
aF-999.0
aFnan
aFnan
aFnan
aFnan
aFnan
aFnan
aI-999
aFinf
aI41
aa(lp32
g25
ag26
aS'2389'
p33
aFnan
aFnan
aFnan
aFnan
aFnan
aFnan
aFnan
aFnan
aFnan
aFnan
aF-999.0
aF-999.0
aFnan
aFnan
aFnan
aFnan
aFnan
aFnan
aI-999
aFinf
aI41
aa(lp34
g25
ag26
aS'2589'
p35
aFnan
aFnan
aFnan
aFnan
aFnan
aFnan
aFnan
aFnan
aFnan
aFnan
aF-999.0
aF-999.0
aFnan
aFnan
aFnan
aFnan
aFnan
aFnan
aI-999
aFinf
aI41
aa(lp36
g25
ag26
aS'sum'
p37
aF0.13041674464600014
aF1.4142135623730951
aF0.2012015253282369
aF1.3022787827294229
aF1.058871204884466
aF2.731094804361824
aF0.29723378089227703
aF0.811297488278812
aF-0.26875027692203046
aF1.4142135623730951
aF-999.0
aF-999.0
aF0.13041674464600014
aF1.4142135623730951
aF1.058871204884466
aF2.731094804361824
aF0.34615166735765207
aF3.8583197865241954
aI-999
aF5.6724388388419845e-11
aI41
aa(lp38
S'10'
p39
ag26
aS'644'
p40
aF0.09905865141273894
aF1.4142135623730951
aF0.2000077680963131
aF3.826531651887621e-06
aF220.27277158239247
aF3.6701563609650663
aF0.2916020117572827
aF0.00375870788694857
aF0.00401600281490537
aF1.4863630649983254e-05
aF-999.0
aF-999.0
aF0.09905865141273894
aF1.4142135623730951
aF220.27277158239247
aF3.6701563609650663
aF54.69443768642908
aF780.8471762689503
aI-999
aF31818.788800642797
aI29
aa(lp41
S'10'
p42
ag26
aS'1215'
p43
aF0.09905865141273894
aF1.4142135623730951
aF0.20048555674519045
aF0.0008481520896459344
aF541.5120310397763
aF72.68184594619203
aF0.2965353586537075
aF0.003388966861520182
aF0.001693177921040503
aF6.728999625253686e-05
aF-999.0
aF-999.0
aF0.09905865141273894
aF1.4142135623730951
aF541.5120310397763
aF72.68184594619203
aF134.45917906870426
aF1919.6950022860992
aI-999
aF34097.72852791349
aI29
aa(lp44
S'10'
p45
ag26
aS'2269'
p46
aF0.09905865141273894
aF1.4142135623730951
aF0.20002260338069336
aF1.0373525138523965e-05
aF251.28019931755773
aF25.25540307805531
aF0.2913297752886298
aF0.0036670552932333844
aF0.0036591172026478914
aF0.0004310225273191089
aF-999.0
aF-999.0
aF0.09905865141273894
aF1.4142135623730951
aF251.28019931755773
aF25.25540307805531
aF62.39368172777939
aF890.7871875524254
aI-999
aF30314.39580361557
aI29
aa(lp47
S'10'
p48
ag26
aS'2389'
p49
aF0.09905865141273894
aF1.4142135623730951
aF0.20000361497217992
aF2.133671292051109e-06
aF521.5914183927082
aF46.08579008081486
aF0.28521155949484817
aF0.003705357849599661
aF0.0017118051018766057
aF2.905080773709508e-05
aF-999.0
aF-999.0
aF0.09905865141273894
aF1.4142135623730951
aF521.5914183927082
aF46.08579008081486
aF129.51282687422517
aF1849.0288465291292
aI-999
aF30321.42286444689
aI29
aa(lp50
S'10'
p51
ag26
aS'2589'
p52
aF0.09905865141273894
aF1.4142135623730951
aF0.2000300780830691
aF9.619116439568698e-06
aF301.7844243323339
aF23.71973503264914
aF0.28813577754395525
aF0.0037818181447972776
aF0.002880261880141458
aF0.0002734990886029474
aF-999.0
aF-999.0
aF0.09905865141273894
aF1.4142135623730951
aF301.7844243323339
aF23.71973503264914
aF74.93404324467635
aF1069.8141425772342
aI-999
aF29996.55473217117
aI29
aa(lp53
S'10'
p54
ag26
aS'sum'
p55
aF0.09905865141273894
aF1.4142135623730951
aF0.20000000566485399
aF1.1225308497545239
aF1.1
aF2.8295051184853177
aF0.10871309744931751
aF0.8215758045434457
aF0.4517173509334918
aF1.4142135623730951
aF-999.0
aF-999.0
aF0.09905865141273894
aF1.4142135623730951
aF1.1
aF2.8295051184853177
aF0.2731335381257863
aF3.96218631387873
aI-999
aF0.0003603410120412077
aI29
aa(lp56
S'2'
p57
aS'Y'
p58
aS'644'
p59
aFnan
aFnan
aFnan
aFnan
aFnan
aFnan
aFnan
aFnan
aFnan
aFnan
aF-999.0
aF-999.0
aFnan
aFnan
aFnan
aFnan
aFnan
aFnan
aI-999
aFinf
aI41
aa(lp60
g57
ag58
aS'1215'
p61
aFnan
aFnan
aFnan
aFnan
aFnan
aFnan
aFnan
aFnan
aFnan
aFnan
aF-999.0
aF-999.0
aFnan
aFnan
aFnan
aFnan
aFnan
aFnan
aI-999
aFinf
aI41
aa(lp62
g57
ag58
aS'2269'
p63
aFnan
aFnan
aFnan
aFnan
aFnan
aFnan
aFnan
aFnan
aFnan
aFnan
aF-999.0
aF-999.0
aFnan
aFnan
aFnan
aFnan
aFnan
aFnan
aI-999
aFinf
aI41
aa(lp64
g57
ag58
aS'2389'
p65
aFnan
aFnan
aFnan
aFnan
aFnan
aFnan
aFnan
aFnan
aFnan
aFnan
aF-999.0
aF-999.0
aFnan
aFnan
aFnan
aFnan
aFnan
aFnan
aI-999
aFinf
aI41
aa(lp66
g57
ag58
aS'2589'
p67
aFnan
aFnan
aFnan
aFnan
aFnan
aFnan
aFnan
aFnan
aFnan
aFnan
aF-999.0
aF-999.0
aFnan
aFnan
aFnan
aFnan
aFnan
aFnan
aI-999
aFinf
aI41
aa(lp68
g57
ag58
aS'sum'
p69
aF0.13041674464600014
aF1.4142135623730951
aF0.2012015253282369
aF1.3022787827294229
aF1.058871204884466
aF2.731094804361824
aF0.29723378089227703
aF0.811297488278812
aF-0.26875027692203046
aF1.4142135623730951
aF-999.0
aF-999.0
aF0.13041674464600014
aF1.4142135623730951
aF1.058871204884466
aF2.731094804361824
aF0.34615166735765207
aF3.8583197865241954
aI-999
aF5.6724388388419845e-11
aI41
aa(lp70
S'3'
p71
ag58
aS'644'
p72
aFnan
aFnan
aFnan
aFnan
aFnan
aFnan
aFnan
aFnan
aFnan
aFnan
aF-999.0
aF-999.0
aFnan
aFnan
aFnan
aFnan
aFnan
aFnan
aI-999
aFinf
aI41
aa(lp73
g71
ag58
aS'1215'
p74
aFnan
aFnan
aFnan
aFnan
aFnan
aFnan
aFnan
aFnan
aFnan
aFnan
aF-999.0
aF-999.0
aFnan
aFnan
aFnan
aFnan
aFnan
aFnan
aI-999
aFinf
aI41
aa(lp75
g71
ag58
aS'2269'
p76
aFnan
aFnan
aFnan
aFnan
aFnan
aFnan
aFnan
aFnan
aFnan
aFnan
aF-999.0
aF-999.0
aFnan
aFnan
aFnan
aFnan
aFnan
aFnan
aI-999
aFinf
aI41
aa(lp77
g71
ag58
aS'2389'
p78
aFnan
aFnan
aFnan
aFnan
aFnan
aFnan
aFnan
aFnan
aFnan
aFnan
aF-999.0
aF-999.0
aFnan
aFnan
aFnan
aFnan
aFnan
aFnan
aI-999
aFinf
aI41
aa(lp79
g71
ag58
aS'2589'
p80
aFnan
aFnan
aFnan
aFnan
aFnan
aFnan
aFnan
aFnan
aFnan
aFnan
aF-999.0
aF-999.0
aFnan
aFnan
aFnan
aFnan
aFnan
aFnan
aI-999
aFinf
aI41
aa(lp81
g71
ag58
aS'sum'
p82
aF0.13041674464600014
aF1.4142135623730951
aF0.2012015253282369
aF1.3022787827294229
aF1.058871204884466
aF2.731094804361824
aF0.29723378089227703
aF0.811297488278812
aF-0.26875027692203046
aF1.4142135623730951
aF-999.0
aF-999.0
aF0.13041674464600014
aF1.4142135623730951
aF1.058871204884466
aF2.731094804361824
aF0.34615166735765207
aF3.8583197865241954
aI-999
aF5.6724388388419845e-11
aI41
aa(lp83
S'4'
p84
ag26
aS'644'
p85
aFnan
aFnan
aFnan
aFnan
aFnan
aFnan
aFnan
aFnan
aFnan
aFnan
aF-999.0
aF-999.0
aFnan
aFnan
aFnan
aFnan
aFnan
aFnan
aI-999
aFinf
aI41
aa(lp86
g84
ag26
aS'1215'
p87
aFnan
aFnan
aFnan
aFnan
aFnan
aFnan
aFnan
aFnan
aFnan
aFnan
aF-999.0
aF-999.0
aFnan
aFnan
aFnan
aFnan
aFnan
aFnan
aI-999
aFinf
aI41
aa(lp88
g84
ag26
aS'2269'
p89
aFnan
aFnan
aFnan
aFnan
aFnan
aFnan
aFnan
aFnan
aFnan
aFnan
aF-999.0
aF-999.0
aFnan
aFnan
aFnan
aFnan
aFnan
aFnan
aI-999
aFinf
aI41
aa(lp90
g84
ag26
aS'2389'
p91
aFnan
aFnan
aFnan
aFnan
aFnan
aFnan
aFnan
aFnan
aFnan
aFnan
aF-999.0
aF-999.0
aFnan
aFnan
aFnan
aFnan
aFnan
aFnan
aI-999
aFinf
aI41
aa(lp92
g84
ag26
aS'2589'
p93
aFnan
aFnan
aFnan
aFnan
aFnan
aFnan
aFnan
aFnan
aFnan
aFnan
aF-999.0
aF-999.0
aFnan
aFnan
aFnan
aFnan
aFnan
aFnan
aI-999
aFinf
aI41
aa(lp94
g84
ag26
aS'sum'
p95
aF0.13041674464600014
aF1.4142135623730951
aF0.2012015253282369
aF1.3022787827294229
aF1.058871204884466
aF2.731094804361824
aF0.29723378089227703
aF0.811297488278812
aF-0.26875027692203046
aF1.4142135623730951
aF-999.0
aF-999.0
aF0.13041674464600014
aF1.4142135623730951
aF1.058871204884466
aF2.731094804361824
aF0.34615166735765207
aF3.8583197865241954
aI-999
aF5.6724388388419845e-11
aI41
aa(lp96
S'5'
p97
ag58
aS'644'
p98
aF0.13041674464600014
aF1.4142135623730951
aF0.20000266191299865
aF7.805171252234233e-07
aF541.1803941804747
aF18.616574470525563
aF0.30821835619903776
aF0.003164543158382771
aF0.0019999304763892263
aF2.485083902856735e-05
aF-999.0
aF-999.0
aF0.13041674464600014
aF1.4142135623730951
aF541.1803941804747
aF18.616574470525563
aF176.9152800857234
aF1918.4442005271253
aI-999
aF49233.483404715626
aI39
aa(lp99
g97
ag58
aS'1215'
p100
aF0.13041674464600014
aF1.4142135623730951
aF0.20000000408022287
aF1.9727483605014307e-08
aF545.5790071922368
aF6.689118889802273
aF0.2987982769985855
aF0.003009458303231266
aF0.001986711266910685
aF2.3670186770924466e-05
aF-999.0
aF-999.0
aF0.13041674464600014
aF1.4142135623730951
aF545.5790071922368
aF6.689118889802273
aF178.3532143888369
aF1934.0284607505805
aI-999
aF51448.22340992329
aI40
aa(lp101
g97
ag58
aS'2269'
p102
aF0.13041674464600014
aF1.4142135623730951
aF0.2000004913013647
aF1.541423072300152e-05
aF110.64037789151061
aF1.5392461535800948
aF0.08941963482679738
aF0.0013303666532159808
aF0.0033881925233164036
aF1.4142135623730951
aF-999.0
aF-999.0
aF0.13041674464600014
aF1.4142135623730951
aF110.64037789151061
aF1.5392461535800948
aF36.16903652451845
aF392.21025050436873
aI-999
aF51401.036941489874
aI40
aa(lp103
g97
ag58
aS'2389'
p104
aF0.13041674464600014
aF1.4142135623730951
aF0.20000029365460614
aF1.2399830327802785e-07
aF539.5731450856877
aF8.744551371417685
aF0.2942123445580861
aF0.0031178386608350928
aF0.0019763255101272557
aF2.6771586346180822e-05
aF-999.0
aF-999.0
aF0.13041674464600014
aF1.4142135623730951
aF539.5731450856877
aF8.744551371417685
aF176.38986023158702
aF1912.7391338763184
aI-999
aF46470.03911283639
aI41
aa(lp105
g97
ag58
aS'2589'
p106
aF0.13041674464600014
aF1.4142135623730951
aF0.20000370643424073
aF1.718319553839498e-06
aF424.7438869608629
aF88.12738837663971
aF0.2988104124349147
aF0.003170486667128075
aF0.0026068461645662117
aF0.0005678805037088344
aF-999.0
aF-999.0
aF0.13041674464600014
aF1.4142135623730951
aF424.7438869608629
aF88.12738837663971
aF138.85145237046544
aF1505.9534681622663
aI-999
aF46510.03502706052
aI38
aa(lp107
g97
ag58
aS'sum'
p108
aF0.13041674464600014
aF1.4142135623730951
aF0.2012015253282369
aF1.3022787827294229
aF1.058871204884466
aF2.731094804361824
aF0.29723378089227703
aF0.811297488278812
aF-0.26875027692203046
aF1.4142135623730951
aF-999.0
aF-999.0
aF0.13041674464600014
aF1.4142135623730951
aF1.058871204884466
aF2.731094804361824
aF0.34615166735765207
aF3.8583197865241954
aI-999
aF5.6724388388419845e-11
aI41
aa(lp109
S'6'
p110
ag26
aS'644'
p111
aF0.13041674464600014
aF1.4142135623730951
aF0.20000073227828583
aF2.5742908425774313e-07
aF529.973796800047
aF13.7010793258371
aF0.303468972742172
aF0.0030261156578744175
aF0.001710795120182937
aF2.16656578101016e-05
aF-999.0
aF-999.0
aF0.13041674464600014
aF1.4142135623730951
aF529.973796800047
aF13.7010793258371
aF173.25177280481267
aF1878.7135331116976
aI-999
aF53108.63196821942
aI40
aa(lp112
g110
ag26
aS'1215'
p113
aF0.13041674464600014
aF1.4142135623730951
aF0.2000009308409894
aF1.8092808336631072e-05
aF110.1593000599245
aF1.5463341545179787
aF0.09044953963695723
aF0.0014335479164309661
aF0.0031376974546911763
aF1.4142135623730951
aF-999.0
aF-999.0
aF0.13041674464600014
aF1.4142135623730951
aF110.1593000599245
aF1.5463341545179787
aF36.011769150767826
aF390.50487839626146
aI-999
aF61881.38016267089
aI41
aa(lp114
g110
ag26
aS'2269'
p115
aF0.13041674464600014
aF1.4142135623730951
aF0.20000001447242277
aF3.5718517338301226e-08
aF541.2356851353974
aF14.385985153421302
aF0.2944943602347244
aF0.002948466025836677
aF0.001685710489462916
aF2.1530763183354718e-05
aF-999.0
aF-999.0
aF0.13041674464600014
aF1.4142135623730951
aF541.2356851353974
aF14.385985153421302
aF176.93335504719934
aF1918.6363124636118
aI-999
aF49727.08590296251
aI41
aa(lp116
g110
ag26
aS'2389'
p117
aF0.13041674464600014
aF1.4142135623730951
aF0.2000020548953377
aF5.715651855281445e-07
aF542.9747633269081
aF24.583151004247384
aF0.2971299445337127
aF0.0029942160291583364
aF0.0016269280155445408
aF2.1894393072909163e-05
aF-999.0
aF-999.0
aF0.13041674464600014
aF1.4142135623730951
aF542.9747633269081
aF24.583151004247384
aF177.50187066352728
aF1924.8121970553361
aI-999
aF50174.35544594527
aI40
aa(lp118
g110
ag26
aS'2589'
p119
aF0.13041674464600014
aF1.4142135623730951
aF0.20000112781532625
aF1.5756333157285196e-05
aF109.4038213678693
aF1.6066264289643257
aF0.08935439925387029
aF0.0013787150089020483
aF0.00305855655942759
aF1.4142135623730951
aF-999.0
aF-999.0
aF0.13041674464600014
aF1.4142135623730951
aF109.4038213678693
aF1.6066264289643257
aF35.76479840711008
aF387.82680461302203
aI-999
aF56338.236011755536
aI40
aa(lp120
g110
ag26
aS'sum'
p121
aF0.13041674464600014
aF1.4142135623730951
aF0.2012015253282369
aF1.3022787827294229
aF1.058871204884466
aF2.731094804361824
aF0.29723378089227703
aF0.811297488278812
aF-0.26875027692203046
aF1.4142135623730951
aF-999.0
aF-999.0
aF0.13041674464600014
aF1.4142135623730951
aF1.058871204884466
aF2.731094804361824
aF0.34615166735765207
aF3.8583197865241954
aI-999
aF5.6724388388419845e-11
aI41
aa(lp122
S'7'
p123
ag58
aS'644'
p124
aF0.09905865141273894
aF1.4142135623730951
aF0.20003195813789842
aF5.82868565578154e-06
aF259.61439316425935
aF3.856681553293882
aF0.2984124863812191
aF0.003962954279458641
aF0.004064357524590031
aF1.1413151437015545e-05
aF-999.0
aF-999.0
aF0.09905865141273894
aF1.4142135623730951
aF259.61439316425935
aF3.856681553293882
aF64.46308886666644
aF920.3095600573353
aI-999
aF29855.807169425294
aI29
aa(lp125
g123
ag58
aS'1215'
p126
aF0.09905865141273894
aF1.4142135623730951
aF0.2000170348297739
aF2.5285945504938123e-06
aF549.4578552037146
aF37.2620007851084
aF0.2970876246358236
aF0.003873855504870849
aF0.002003976048410205
aF3.1599922339732564e-05
aF-999.0
aF-999.0
aF0.09905865141273894
aF1.4142135623730951
aF549.4578552037146
aF37.2620007851084
aF136.4321527661787
aF1947.7993575492633
aI-999
aF30379.241789320964
aI29
aa(lp127
g123
ag58
aS'2269'
p128
aF0.09905865141273894
aF1.4142135623730951
aF0.20000052009107602
aF2.695916109934915e-06
aF412.5535086944101
aF329.8359695266894
aF0.29421416260868516
aF0.004102929684918294
aF0.0026107379808109296
aF0.001504844911312761
aF-999.0
aF-999.0
aF0.09905865141273894
aF1.4142135623730951
aF412.5535086944101
aF329.8359695266894
aF102.43836317810141
aF1464.755534126795
aI-999
aF27871.78941188511
aI29
aa(lp129
g123
ag58
aS'2389'
p130
aF0.09905865141273894
aF1.4142135623730951
aF0.200002580764649
aF4.105683272359606e-06
aF160.27433110499902
aF37.28890856819418
aF0.2898254760473551
aF0.0041250041785196034
aF0.006876627403373292
aF0.0016811614903579194
aF-999.0
aF-999.0
aF0.09905865141273894
aF1.4142135623730951
aF160.27433110499902
aF37.28890856819418
aF39.79663193222922
aF568.233149802637
aI-999
aF28313.218079824142
aI29
aa(lp131
g123
ag58
aS'2589'
p132
aF0.09905865141273894
aF1.4142135623730951
aF0.20000015220139938
aF4.3284419513900385e-07
aF276.67158205468553
aF4.2607427908042155
aF0.29997615467653377
aF0.0041051167711151915
aF0.0039546671206655525
aF1.0808875028754433e-05
aF-999.0
aF-999.0
aF0.09905865141273894
aF1.4142135623730951
aF276.67158205468553
aF4.2607427908042155
aF68.69844373223187
aF980.7757927030896
aI-999
aF28412.102499331577
aI29
aa(lp133
g123
ag58
aS'sum'
p134
aF0.09905865141273894
aF1.4142135623730951
aF0.2000000056648538
aF1.122531031697969
aF1.1
aF2.8295053604185076
aF0.10871309739960933
aF0.8215756361822739
aF0.4517173507117314
aF1.4142135623730951
aF-999.0
aF-999.0
aF0.09905865141273894
aF1.4142135623730951
aF1.1
aF2.8295053604185076
aF0.2731335381257863
aF3.9621863245308426
aI-999
aF0.00036034104849307595
aI29
aa(lp135
S'8'
p136
ag26
aS'644'
p137
aF0.09905865141273894
aF1.4142135623730951
aF0.20000005118633457
aF7.607790584590601e-07
aF526.6941804070833
aF42.91379679214805
aF0.29597250585311485
aF0.00298315969661328
aF0.001633368872466366
aF2.418231999015326e-05
aF-999.0
aF-999.0
aF0.09905865141273894
aF1.4142135623730951
aF526.6941804070833
aF42.91379679214805
aF130.7798590953162
aF1867.1126627849092
aI-999
aF33979.1390911969
aI29
aa(lp138
g136
ag26
aS'1215'
p139
aF0.09905865141273894
aF1.4142135623730951
aF0.2000079088285382
aF4.00748258308492e-06
aF538.3945302130913
aF54.45594829535543
aF0.2954018679538586
aF0.0034442750449406034
aF0.0016351656020764458
aF0.00018445887651692274
aF-999.0
aF-999.0
aF0.09905865141273894
aF1.4142135623730951
aF538.3945302130913
aF54.45594829535543
aF133.6850935860656
aF1908.6068144284204
aI-999
aF33682.995855761386
aI29
aa(lp140
g136
ag26
aS'2269'
p141
aF0.09905865141273894
aF1.4142135623730951
aF0.20006619790390262
aF1.1223850053962425e-05
aF249.81409314504052
aF4.179507966312727
aF0.2983722323551061
aF0.0038887433368445246
aF0.0036514403211263874
aF1.5938143234463846e-05
aF-999.0
aF-999.0
aF0.09905865141273894
aF1.4142135623730951
aF249.81409314504052
aF4.179507966312727
aF62.029642849445125
aF885.5685108939764
aI-999
aF31258.657786913875
aI29
aa(lp142
g136
ag26
aS'2389'
p143
aF0.09905865141273894
aF1.4142135623730951
aF0.2000002085268556
aF0.013866632333923629
aF532.2976506581637
aF66.15418745955455
aF0.2924065099264358
aF0.0030002807482907012
aF0.001633471154334066
aF1.4142135623730951
aF-999.0
aF-999.0
aF0.09905865141273894
aF1.4142135623730951
aF532.2976506581637
aF66.15418745955455
aF132.17121878209818
aF1887.0175374609248
aI-999
aF31939.37253894255
aI29
aa(lp144
g136
ag26
aS'2589'
p145
aF0.09905865141273894
aF1.4142135623730951
aF0.20000398258380586
aF2.8365775374544766e-06
aF248.04946263062507
aF4.194551343613853
aF0.29423608643052757
aF0.0038439127653938643
aF0.0036957898172014585
aF1.407192096126323e-05
aF-999.0
aF-999.0
aF0.09905865141273894
aF1.4142135623730951
aF248.04946263062507
aF4.194551343613853
aF61.59147941682057
aF879.3130673349336
aI-999
aF30963.78768306401
aI29
aa(lp146
g136
ag26
aS'sum'
p147
aF0.09905865141273894
aF1.4142135623730951
aF0.2000000056648538
aF1.122531031697969
aF1.1
aF2.8295053604185076
aF0.10871309739960933
aF0.8215756361822739
aF0.4517173507117314
aF1.4142135623730951
aF-999.0
aF-999.0
aF0.09905865141273894
aF1.4142135623730951
aF1.1
aF2.8295053604185076
aF0.2731335381257863
aF3.9621863245308426
aI-999
aF0.00036034104849307595
aI29
aa(lp148
S'9'
p149
ag58
aS'644'
p150
aF0.09905865141273894
aF1.4142135623730951
aF0.2000034044887731
aF1.5458003317467273e-05
aF183.45709507506152
aF55.91143899950272
aF0.29501857884488614
aF0.003914671558644001
aF0.005708016518490272
aF0.0018159036419979878
aF-999.0
aF-999.0
aF0.09905865141273894
aF1.4142135623730951
aF183.45709507506152
aF55.91143899950272
aF45.552986792845736
aF650.4866347936967
aI-999
aF30635.982680100085
aI29
aa(lp151
g149
ag58
aS'1215'
p152
aF0.09905865141273894
aF1.4142135623730951
aF0.20000122720798924
aF1.088761285975015e-06
aF294.88242059135325
aF4.390787531917994
aF0.2991238063857733
aF0.0038731615474712766
aF0.003795214333074749
aF9.253993616903082e-06
aF-999.0
aF-999.0
aF0.09905865141273894
aF1.4142135623730951
aF294.88242059135325
aF4.390787531917994
aF73.22025351564774
aF1045.331532428966
aI-999
aF31636.57948966038
aI29
aa(lp153
g149
ag58
aS'2269'
p154
aF0.09905865141273894
aF1.4142135623730951
aF0.2000034476052616
aF3.3903267595836173e-06
aF219.77445721802528
aF28.31951561696539
aF0.29324698171154534
aF0.004035334505754662
aF0.00494858993491559
aF0.0006379586379505709
aF-999.0
aF-999.0
aF0.09905865141273894
aF1.4142135623730951
aF219.77445721802528
aF28.31951561696539
aF54.57070462693953
aF779.1118993612899
aI-999
aF28343.723322240243
aI29
aa(lp155
g149
ag58
aS'2389'
p156
aF0.09905865141273894
aF1.4142135623730951
aF0.20003449218747302
aF6.055793665984965e-06
aF245.8907073007793
aF3.920058718703814
aF0.2895396946359543
aF0.00397720011444147
aF0.0043168306047077065
aF1.2266603610036016e-05
aF-999.0
aF-999.0
aF0.09905865141273894
aF1.4142135623730951
aF245.8907073007793
aF3.920058718703814
aF61.05545352483087
aF871.6604055806414
aI-999
aF28500.696672906855
aI29
aa(lp157
g149
ag58
aS'2589'
p158
aF0.09905865141273894
aF2.3007775270083193
aF0.20000310854036882
aF1.459543498522835
aF548.9800861712308
aF315.7355213542304
aF0.2926220965764701
aF0.5920002043781318
aF0.0019789142658253444
aF1.8148215379549992
aF-999.0
aF-999.0
aF0.09905865141273894
aF2.3007775270083193
aF548.9800861712308
aF315.7355213542304
aF136.31352117867937
aF3167.0451569216493
aI-999
aF28885.43600691641
aI29
aa(lp159
g149
ag58
aS'sum'
p160
aF0.09905865141273894
aF1.4142135623730951
aF0.20000000566485399
aF1.1225308497545239
aF1.1
aF2.8295051184853177
aF0.10871309744931751
aF0.8215758045434457
aF0.4517173509334918
aF1.4142135623730951
aF-999.0
aF-999.0
aF0.09905865141273894
aF1.4142135623730951
aF1.1
aF2.8295051184853177
aF0.2731335381257863
aF3.96218631387873
aI-999
aF0.0003603410120412077
aI29
aa.