(lp0
(lp1
S'Scan'
p2
aS'Type'
p3
aS'BCID'
p4
aS'sigma'
p5
aS'sigmaErr'
p6
aS'Amp'
p7
aS'AmpErr'
p8
aS'Mean'
p9
aS'MeanErr'
p10
aS'CapSigma'
p11
aS'CapSigmaErr'
p12
aS'peak'
p13
aS'peakErr'
p14
aS'area'
p15
aS'areaErr'
p16
aS'fitStatus'
p17
aS'chi2'
p18
aS'ndof'
p19
aa(lp20
S'1'
p21
aS'Y'
p22
aS'265'
p23
aF0.10460526098130113
aF0.0
aF0.5277865719118795
aF0.0023752719686556977
aF-0.0020383843073865553
aF0.00040285632777021136
aF0.10460526098130113
aF0.0
aF0.5277865719118795
aF0.0023752719686556977
aF0.13838907232824385
aF0.0006228117609714897
aI0
aF9.283148994803137e-14
aI0
aa(lp24
S'10'
p25
aS'X'
p26
aS'265'
p27
aF0.13405032301159606
aF0.0
aF0.5250984890436378
aF0.002397935141748946
aF0.0008858573622148345
aF0.000580284939731924
aF0.13405032301159606
aF0.0
aF0.5250984890436378
aF0.002397935141748946
aF0.17644061691924864
aF0.0008057405697607507
aI0
aF1.0704125613444367e-10
aI0
aa(lp28
S'11'
p29
ag22
aS'265'
p30
aF0.10487664593403935
aF0.0
aF0.5285519211181854
aF0.0024091188701701165
aF-0.0031235232708126046
aF0.0004030111360147254
aF0.10487664593403935
aF0.0
aF0.5285519211181854
aF0.0024091188701701165
aF0.1389493052305447
aF0.0006333254688011675
aI0
aF1.2765151874513542e-11
aI0
aa(lp31
S'12'
p32
ag22
aS'265'
p33
aF0.1056364675772096
aF0.0
aF0.5286346315803301
aF0.002390977004551799
aF-0.0029467799509629573
aF0.00040712997745046345
aF0.1056364675772096
aF0.0
aF0.5286346315803301
aF0.002390977004551799
aF0.13997788116850884
aF0.0006331100443027466
aI0
aF7.477366762893673e-12
aI0
aa(lp34
S'13'
p35
ag22
aS'265'
p36
aF0.10554559981618451
aF0.0
aF0.527298579242059
aF0.0024128329863372755
aF-0.0024470826364166066
aF0.0004097337656333662
aF0.10554559981618451
aF0.0
aF0.527298579242059
aF0.0024128329863372755
aF0.1395040023642607
aF0.0006383477442977209
aI0
aF6.044596031776483e-09
aI0
aa(lp37
S'14'
p38
ag22
aS'265'
p39
aF0.10535827331505963
aF0.0
aF0.5301261630752186
aF0.002390399374518328
aF-0.0003127686198046439
aF0.0004007709749519638
aF0.10535827331505963
aF0.0
aF0.5301261630752186
aF0.002390399374518328
aF0.1400031531492248
aF0.0006312901966149816
aI0
aF3.067292888121199e-15
aI0
aa(lp40
S'15'
p41
ag22
aS'265'
p42
aF0.10439343507270143
aF0.0
aF0.5288584223564778
aF0.002383720503254688
aF0.002277719596010491
aF0.00039879314189233907
aF0.10439343507270143
aF0.0
aF0.5288584223564778
aF0.002383720503254688
aF0.13838931115891823
aF0.0006237613404565373
aI0
aF2.3367515457494112e-11
aI0
aa(lp43
S'16'
p44
ag26
aS'265'
p45
aF0.13048931307555942
aF0.0
aF0.5315928556181645
aF0.002393509426670819
aF0.00019451479081814804
aF0.0005567693794081245
aF0.13048931307555942
aF0.0
aF0.5315928556181645
aF0.002393509426670819
aF0.17387775117665918
aF0.0007828886941035031
aI0
aF8.463013631996183e-12
aI0
aa(lp46
S'17'
p47
ag26
aS'265'
p48
aF0.13402388289151
aF0.0
aF0.5280847935478992
aF0.0023913614603108704
aF-0.001339673569757389
aF0.0005779007927231511
aF0.13402388289151
aF0.0
aF0.5280847935478992
aF0.0023913614603108704
aF0.17740905891457046
aF0.0008033732297952328
aI0
aF3.9399725669843736e-11
aI0
aa(lp49
S'18'
p50
ag26
aS'265'
p51
aF0.1336828719397234
aF0.0
aF0.5264979715124721
aF0.002393544434918809
aF-0.001586819584773017
aF0.0005774978617771657
aF0.1336828719397234
aF0.0
aF0.5264979715124721
aF0.002393544434918809
aF0.17642592515238747
aF0.0008020606235401154
aI0
aF1.12493909425187e-10
aI0
aa(lp52
S'19'
p53
ag26
aS'265'
p54
aF0.13178581852345087
aF0.0
aF0.5314510088164554
aF0.0024230982627389697
aF-0.0007372808304657202
aF0.0005848524637792287
aF0.13178581852345087
aF0.0
aF0.5314510088164554
aF0.0024230982627389697
aF0.17555849465620776
aF0.0008004415766523506
aI0
aF1.400472526504121e-11
aI0
aa(lp55
S'2'
p56
ag22
aS'265'
p57
aF0.10464124724019569
aF0.0
aF0.5295663999766886
aF0.002435258886594683
aF0.0006650290578459288
aF0.0003966941811753446
aF0.10464124724019569
aF0.0
aF0.5295663999766886
aF0.002435258886594683
aF0.13890352392406394
aF0.0006387603915774949
aI0
aF2.3865090581883157e-10
aI0
aa(lp58
S'20'
p59
ag26
aS'265'
p60
aF0.13134619251685936
aF0.0
aF0.5289085421855888
aF0.002385172110267556
aF-0.004318490110914093
aF0.0005650353346253903
aF0.13134619251685936
aF0.0
aF0.5289085421855888
aF0.002385172110267556
aF0.17413577506955638
aF0.0007852847155378146
aI0
aF4.3104766157947485e-11
aI0
aa(lp61
S'3'
p62
ag22
aS'265'
p63
aF0.10383804858064404
aF0.0
aF0.5270315838233897
aF0.0024295357881006898
aF0.0030482979332746565
aF0.0003953512396492189
aF0.10383804858064404
aF0.0
aF0.5270315838233897
aF0.0024295357881006898
aF0.13717756651292848
aF0.000632367807541882
aI0
aF3.567663956709753e-11
aI0
aa(lp64
S'4'
p65
ag22
aS'265'
p66
aF0.10401698165944993
aF0.0
aF0.5258982801489623
aF0.0023501596117302403
aF0.003913175474327236
aF0.000398257141465787
aF0.10401698165944993
aF0.0
aF0.5258982801489623
aF0.0023501596117302403
aF0.1371184616129106
aF0.0006127615979538238
aI0
aF3.4725721913933626e-11
aI0
aa(lp67
S'5'
p68
ag22
aS'265'
p69
aF0.10394557005988869
aF0.0
aF0.5290414113006072
aF0.002377698508592166
aF0.0055587387197833125
aF0.00039869478642577265
aF0.10394557005988869
aF0.0
aF0.5290414113006072
aF0.002377698508592166
aF0.1378432765451555
aF0.0006195162534727223
aI0
aF5.288315156758512e-09
aI0
aa(lp70
S'6'
p71
ag26
aS'265'
p72
aF0.13545480538498098
aF0.0
aF0.5241747707231977
aF0.0023431450317389518
aF0.0025087554371660365
aF0.0005902486358649765
aF0.13545480538498098
aF0.0
aF0.5241747707231977
aF0.0023431450317389518
aF0.17797559958945075
aF0.00079557938542792
aI0
aF1.0099313510677771e-09
aI0
aa(lp73
S'7'
p74
ag26
aS'265'
p75
aF0.13362178145853432
aF0.0
aF0.5307136417437991
aF0.0024438439748270175
aF0.0016063063167435399
aF0.0005696182144860749
aF0.13362178145853432
aF0.0
aF0.5307136417437991
aF0.0024438439748270175
aF0.17775729908295307
aF0.0008185414320951448
aI0
aF9.446587007234242e-11
aI0
aa(lp76
S'8'
p77
ag26
aS'265'
p78
aF0.13374961235997618
aF0.0
aF0.5244888322626101
aF0.002433545740630727
aF0.004501265068600208
aF0.0005807379122305659
aF0.13374961235997618
aF0.0
aF0.5244888322626101
aF0.002433545740630727
aF0.1758404196508642
aF0.0008158719079414525
aI0
aF5.725562404973047e-11
aI0
aa(lp79
S'9'
p80
ag26
aS'265'
p81
aF0.13522550135548284
aF0.0
aF0.5264254113282671
aF0.002352436998629582
aF0.0016584892933434246
aF0.0005859499179794249
aF0.13522550135548284
aF0.0
aF0.5264254113282671
aF0.002352436998629582
aF0.1784371917198164
aF0.0007973821983139447
aI0
aF1.5698759772918336e-10
aI0
aa.