(dp0
S'OrbitDrifts_X'
p1
(lp2
(lp3
F0.497809
aF-0.164734
aF-0.887191
aa(lp4
F1.94778
aF-0.218756
aF1.13859
aa(lp5
F2.00605
aF2.29842
aF5.07037
aa(lp6
F4.9332
aF0.88723
aF2.02153
aa(lp7
F4.03503
aF-1.21871
aF-2.70432
aa(lp8
F0.507124
aF-0.914673
aF-2.05101
aa(lp9
F-0.864647
aF-3.93449
aF-5.17718
aa(lp10
F-5.32098
aF-9.22898
aF-1.38436
aa(lp11
F-1.73799
aF1.55688
aF1.55688
aa(lp12
F4.68581
aF-1.56058
aF-1.56058
aa(lp13
F0.0637445
aF-3.62874
aF-6.0658
aa(lp14
F-3.08033
aF-2.48453
aF-2.26628
aasS'TimeWindows'
p15
(lp16
(lp17
I1464336224
aI1464336774
aI1464337334
aa(lp18
I1464337464
aI1464338014
aI1464338574
aa(lp19
I1464338704
aI1464339264
aI1464339814
aa(lp20
I1464339884
aI1464340439
aI1464340994
aa(lp21
I1464341174
aI1464341739
aI1464342424
aa(lp22
I1464342604
aI1464343170
aI1464343785
aa(lp23
I1464344355
aI1464344920
aI1464345495
aa(lp24
I1464345575
aI1464346150
aI1464346875
aa(lp25
I1464347100
aI1464348235
aI1464348235
aa(lp26
I1464348575
aI1464349735
aI1464349735
aa(lp27
I1464350804
aI1464351364
aI1464351914
aa(lp28
I1464352084
aI1464352634
aI1464353194
aasS'Names'
p29
(lp30
VX1
p31
aVY1
p32
aVY2
p33
aVX2
p34
aVI1X
p35
aVI1Y
p36
aVI2X
p37
aVI2Y
p38
aVL1X
p39
aVL1Y
p40
aVX3
p41
aVY3
p42
asS'OrbitDrifts_Y'
p43
(lp44
(lp45
F-0.0808549
aF1.37391
aF0.430512
aa(lp46
F2.08174
aF0.223666
aF1.86626
aa(lp47
F2.17387
aF-0.279159
aF1.55067
aa(lp48
F2.21487
aF1.61375
aF1.75497
aa(lp49
F1.8465
aF-1.49943
aF-1.70721
aa(lp50
F0.0694346
aF-0.814668
aF-1.44174
aa(lp51
F-0.544414
aF-1.43411
aF-0.00612067
aa(lp52
F2.46615
aF0.112389
aF0.617192
aa(lp53
F0.534733
aF-1.42534
aF-1.42534
aa(lp54
F-0.0742427
aF2.6034
aF2.6034
aa(lp55
F-0.0131938
aF1.81132
aF1.32588
aa(lp56
F2.89934
aF1.89823
aF3.8855
aas.