(lp0
(lp1
S'Scan'
p2
aS'Type'
p3
aS'BCID'
p4
aS'sigma'
p5
aS'sigmaErr'
p6
aS'sigmaRatio'
p7
aS'sigmaRatio_Err'
p8
aS'Amp'
p9
aS'AmpErr'
p10
aS'Frac'
p11
aS'FracErr'
p12
aS'Mean'
p13
aS'MeanErr'
p14
aS'Const'
p15
aS'ConstErr'
p16
aS'CapSigma'
p17
aS'CapSigmaErr'
p18
aS'peak'
p19
aS'peakErr'
p20
aS'area'
p21
aS'areaErr'
p22
aS'fitStatus'
p23
aS'chi2'
p24
aS'ndof'
p25
aa(lp26
S'1'
p27
aS'X'
p28
aS'41'
p29
aF0.13437293301755307
aF0.0005557392986537393
aF1.0000011381068687
aF0.015922413895187337
aF72.04332471790478
aF0.4247489528811599
aF0.38758719364394667
aF0.5323020191886109
aF-0.0029070097881962196
aF0.0006595105083821652
aF1.9732413534597764
aF0.03392508569248054
aF0.13437293301755307
aF0.0005557392986537393
aF72.04332471790478
aF0.4247489528811599
aF24.26584827494278
aF0.17475558080513734
aI0
aF16.241856709340475
aI19
aa(lp30
g27
ag28
aS'281'
p31
aF0.13079015123431031
aF0.0005234122608196404
aF1.000002580800433
aF0.028421579900092198
aF75.62273982674697
aF0.4411830432195174
aF0.995423390607935
aF0.742417575233043
aF0.0001482476039138045
aF0.0006563636602881848
aF1.9589332008485616
aF0.024544387656432187
aF0.13079015123431031
aF0.0005234122608196404
aF75.62273982674697
aF0.4411830432195174
aF24.792332286115887
aF0.17539755862636972
aI0
aF33.89738999125057
aI19
aa(lp32
g27
ag28
aS'872'
p33
aF0.13174932351077875
aF0.0006150695695091932
aF1.000001207886235
aF0.024656205019944755
aF75.53706788942115
aF0.46152917495075485
aF0.9899999998386465
aF0.7559345304600598
aF-0.00197922693848343
aF0.0006969618071706171
aF2.1512261639301538
aF0.04562066454031455
aF0.13174932351077875
aF0.0006150695695091932
aF75.53706788942115
aF0.46152917495075485
aF24.94585829409939
aF0.1918180242552576
aI0
aF18.545183666510013
aI19
aa(lp34
g27
ag28
aS'1783'
p35
aF0.12981620993568024
aF0.0005328511131520113
aF1.000003201241778
aF0.03144073104435319
aF77.31104590413572
aF0.4705517895537099
aF0.9951192785812872
aF0.7433737012693682
aF-0.0026703372014383006
aF0.0006574351717618771
aF2.0744757406874426
aF0.0327660690999223
aF0.12981620993568024
aF0.0005328511131520113
aF77.31104590413572
aF0.4705517895537099
aF25.157090282181713
aF0.18468354356150063
aI0
aF37.95211009678167
aI19
aa(lp36
g27
ag28
aS'2063'
p37
aF0.1286375328326025
aF0.000591879891565437
aF0.9999506391572142
aF0.06440911535876148
aF76.0823860454494
aF0.4531569868616643
aF0.9945795780568851
aF0.7449892250902661
aF-0.0009490078128642662
aF0.0006502350716057402
aF2.1736342809238
aF0.06311723647372824
aF0.1286375328326025
aF0.000591879891565437
aF76.0823860454494
aF0.4531569868616643
aF24.532497340357327
aF0.18464038205917607
aI0
aF15.606200196496518
aI19
aa(lp38
g27
ag28
aS'sum'
p39
aF-0.013193481244031156
aF0.02607601568743516
aF1.0000003491628133
aF0.050156293616005015
aF0.22000735789936696
aF0.004775157985059675
aF0.99
aF0.03815443950846371
aF-4.660248981384427e-07
aF0.07138004047902913
aF4.7983286233233e-08
aF0.102424048464929
aF-0.013193481244031156
aF0.02607601568743516
aF0.22000735789936696
aF0.004775157985059675
aF-0.0072758970221791595
aF0.014381181227143585
aI0
aF0.048403346579652
aI19
aa(lp40
S'10'
p41
aS'Y'
p42
aS'41'
p43
aF0.11616495963844485
aF0.0004960775349404102
aF0.9999964817382719
aF0.0357088043403081
aF76.02466480450508
aF0.4776563140771586
aF0.9964683192189623
aF0.7388221842534461
aF0.0015678192454189807
aF0.0006214655436579125
aF2.2555975076309354
aF0.03663754587380108
aF0.11616495963844485
aF0.0004960775349404102
aF76.02466480450508
aF0.4776563140771586
aF22.13704225497257
aF0.1681713046217827
aI0
aF18.248392650657397
aI19
aa(lp44
S'10'
p45
ag42
aS'281'
p46
aF0.1164583339955858
aF0.0005238680969478328
aF1.0000104601896997
aF0.03237982306347459
aF77.30291194064387
aF0.4772279108967936
aF0.9960700534211204
aF0.7402558013935155
aF0.0022202470878364988
aF0.0006341685101593552
aF2.2334585171659342
aF0.03243792849425775
aF0.1164583339955858
aF0.0005238680969478328
aF77.30291194064387
aF0.4772279108967936
aF22.566092339363212
aF0.17237130433708367
aI0
aF18.927052966929438
aI19
aa(lp47
S'10'
p48
ag42
aS'872'
p49
aF0.11508089203378948
aF0.0005156934017858723
aF1.0000048803281814
aF0.015646843130807664
aF77.84734274065008
aF0.4966910804256628
aF0.990000002816739
aF0.7559345244735275
aF0.001690741610250347
aF0.0006400105093833592
aF2.309598048094829
aF0.025587229946449908
aF0.11508089203378948
aF0.0005156934017858723
aF77.84734274065008
aF0.4966910804256628
aF22.456235112606986
aF0.17508535444031914
aI0
aF22.1443771246749
aI19
aa(lp50
S'10'
p51
ag42
aS'1783'
p52
aF0.11347109093935147
aF0.0005015273970552436
aF0.9999967985346416
aF0.04955806854827094
aF79.4808502126539
aF0.5216847877291286
aF0.9958658443107316
aF0.740959028603032
aF0.001614698818180845
aF0.0006135752316047123
aF2.384074178839379
aF0.03922861742095152
aF0.11347109093935147
aF0.0005015273970552436
aF79.4808502126539
aF0.5216847877291286
aF22.606725898648655
aF0.17888877590471086
aI0
aF28.66035980886112
aI19
aa(lp53
S'10'
p54
ag42
aS'2063'
p55
aF0.11530570184904512
aF0.0005309633734180399
aF0.9999993196366485
aF0.011855668010201492
aF79.44687529859256
aF0.4959882350183804
aF0.1966281194543671
aF0.8434296120313025
aF0.0010392554026664805
aF0.0006124420096016267
aF2.1792914106512375
aF0.0363169543699684
aF0.11530570184904512
aF0.0005309633734180399
aF79.44687529859256
aF0.4959882350183804
aF22.962413777752303
aF0.17813231368069302
aI0
aF25.526321629566084
aI19
aa(lp56
S'10'
p57
ag42
aS'sum'
p58
aF-0.013193481244031156
aF0.02607601568743516
aF1.0000003491628133
aF0.050156293616005015
aF0.22000735789936696
aF0.004775157985059675
aF0.99
aF0.03815443950846371
aF-4.660248981384427e-07
aF0.07138004047902913
aF4.7983286233233e-08
aF0.102424048464929
aF-0.013193481244031156
aF0.02607601568743516
aF0.22000735789936696
aF0.004775157985059675
aF-0.0072758970221791595
aF0.014381181227143585
aI0
aF0.048403346579652
aI19
aa(lp59
S'11'
p60
ag28
aS'41'
p61
aF0.13825875176279506
aF0.0005756786940553542
aF1.0000020627296942
aF0.008569141025604965
aF78.63636476404511
aF0.4552097798115895
aF0.7303900330244824
aF0.6659606822895495
aF0.005054077498949681
aF0.0006603930543635212
aF2.306588328986821
aF0.04080813533863292
aF0.13825875176279506
aF0.0005756786940553542
aF78.63636476404511
aF0.4552097798115895
aF27.252477788267218
aF0.1943298295054702
aI0
aF24.26727593262394
aI19
aa(lp62
S'11'
p63
ag28
aS'281'
p64
aF0.13747189316067204
aF0.0005566467224738157
aF1.0000015406802882
aF0.025174294453477575
aF80.75856744698339
aF0.4511082797291195
aF0.9900000010013111
aF0.7559345281228829
aF0.0055517314172045884
aF0.000663057765077547
aF2.264251603471727
aF0.03778806139366475
aF0.13747189316067204
aF0.0005566467224738157
aF80.75856744698339
aF0.4511082797291195
aF27.828670214421216
aF0.1919934176840937
aI0
aF26.135024650452067
aI19
aa(lp65
S'11'
p66
ag28
aS'872'
p67
aF0.1375696688943049
aF0.00060011576121592
aF1.000000864692818
aF0.023430083086084297
aF81.37741699984223
aF0.4751846755865614
aF0.035644025784020816
aF0.9774782892371723
aF0.0059234574594843855
aF0.0006854830958385647
aF2.546170990467782
aF0.05258416922617948
aF0.1375696688943049
aF0.00060011576121592
aF81.37741699984223
aF0.4751846755865614
aF28.06186474112777
aF0.20453702267950521
aI0
aF14.45948230387511
aI19
aa(lp68
S'11'
p69
ag28
aS'1783'
p70
aF0.13703666174864004
aF0.0006053179840878196
aF1.000002101891384
aF0.027773258001449974
aF81.58241409296252
aF0.48776832201189535
aF0.9900000004094545
aF0.7559345293126277
aF0.006214791811786943
aF0.0007109915835982381
aF2.434205950287528
aF0.04505419773190411
aF0.13703666174864004
aF0.0006053179840878196
aF81.58241409296252
aF0.48776832201189535
aF28.023556875057757
aF0.20831547756887153
aI0
aF18.06155051748943
aI19
aa(lp71
S'11'
p72
ag28
aS'2063'
p73
aF0.13607229422746842
aF0.001013678530429351
aF1.5465391192186262
aF0.382845892509009
aF82.29581837982747
aF0.53282811951631
aF0.06469008047736274
aF0.07875652038130146
aF0.005730580166055507
aF0.0006598336938049822
aF2.018085915536298
aF0.14124833573519924
aF0.13607229422746842
aF0.001013678530429351
aF82.29581837982747
aF0.53282811951631
aF28.06967664846679
aF0.2770459714635363
aI0
aF27.629469191147113
aI19
aa(lp74
S'11'
p75
ag28
aS'sum'
p76
aF-0.013193481244031156
aF0.02607601568743516
aF1.0000003491628133
aF0.050156293616005015
aF0.22000735789936696
aF0.004775157985059675
aF0.99
aF0.03815443950846371
aF-4.660248981384427e-07
aF0.07138004047902913
aF4.7983286233233e-08
aF0.102424048464929
aF-0.013193481244031156
aF0.02607601568743516
aF0.22000735789936696
aF0.004775157985059675
aF-0.0072758970221791595
aF0.014381181227143585
aI0
aF0.048403346579652
aI19
aa(lp77
S'12'
p78
ag42
aS'41'
p79
aF0.10978459880554327
aF0.00046507866001516883
aF0.999950986587426
aF0.020878125097877454
aF79.87152388775345
aF0.4922173547799247
aF0.9900000968615603
aF0.7559343362544008
aF-0.0016728632543407524
aF0.0005932037130741886
aF2.2813489236969358
aF0.04108834228717706
aF0.10978459880554327
aF0.00046507866001516883
aF79.87152388775345
aF0.4922173547799247
aF21.97977912288709
aF0.16436981546372567
aI0
aF26.543272854722602
aI19
aa(lp80
S'12'
p81
ag42
aS'281'
p82
aF0.10859673776512437
aF0.0004770360418545858
aF0.9999961057195313
aF0.03939036995094647
aF81.62598347467801
aF0.5125480438063903
aF0.99000065127077
aF0.755933220931097
aF-0.0021725926088119645
aF0.0005791349992453291
aF2.275804499523972
aF0.04010904793722703
aF0.10859673776512437
aF0.0004770360418545858
aF81.62598347467801
aF0.5125480438063903
aF22.21954392324707
aF0.17027298337853378
aI0
aF33.27055238781688
aI19
aa(lp83
S'12'
p84
ag42
aS'872'
p85
aF0.10716565075384235
aF0.00047057962841473816
aF1.0000010299859063
aF0.02594481670910498
aF82.3871810015045
aF0.5347234036243051
aF0.997386533452423
aF0.7351264278059924
aF-0.0017296757080521039
aF0.0005815682724656295
aF2.316579243297976
aF0.024894201018897277
aF0.10716565075384235
aF0.00047057962841473816
aF82.3871810015045
aF0.5347234036243051
aF22.131211204078532
aF0.17342604003732118
aI0
aF34.40997810038533
aI19
aa(lp86
S'12'
p87
ag42
aS'1783'
p88
aF0.10785594211734822
aF0.0004812168706226956
aF0.9999925894871148
aF0.03719201471127265
aF82.01877221308672
aF0.5365110887355584
aF0.997028636933823
aF0.7366417155663907
aF-0.001059934483775804
aF0.0006094364350322279
aF2.3836063965848195
aF0.03472642654262881
aF0.10785594211734822
aF0.0004812168706226956
aF82.01877221308672
aF0.5365110887355584
aF22.174164993114328
aF0.17557586314022727
aI0
aF21.297751824226033
aI19
aa(lp89
S'12'
p90
ag42
aS'2063'
p91
aF0.10815702114887785
aF0.00047439954289089914
aF0.5000000000007725
aF0.2948270303873913
aF82.28917768890898
aF0.5532082657435993
aF0.984322646477332
aF0.005818260814095477
aF-0.0018704676834473098
aF0.0005892331866565736
aF2.0874464658029583
aF0.05042317104216276
aF0.10815702114887785
aF0.00047439954289089914
aF82.28917768890898
aF0.5532082657435993
aF22.309373482969473
aF0.17907911231430657
aI0
aF44.27323903427076
aI19
aa(lp92
S'12'
p93
ag42
aS'sum'
p94
aF-0.013193481244031156
aF0.02607601568743516
aF1.0000003491628133
aF0.050156293616005015
aF0.22000735789936696
aF0.004775157985059675
aF0.99
aF0.03815443950846371
aF-4.660248981384427e-07
aF0.07138004047902913
aF4.7983286233233e-08
aF0.102424048464929
aF-0.013193481244031156
aF0.02607601568743516
aF0.22000735789936696
aF0.004775157985059675
aF-0.0072758970221791595
aF0.014381181227143585
aI0
aF0.048403346579652
aI19
aa(lp95
S'2'
p96
ag42
aS'41'
p97
aF0.12254704625619971
aF0.0005118165809791992
aF1.0000007107460314
aF0.021041460629123154
aF72.25627949368132
aF0.43043797055811694
aF0.9899999999816969
aF0.7559345301725013
aF0.0065539697497862676
aF0.0006181483964933626
aF2.0934008750368847
aF0.03616302047602393
aF0.12254704625619971
aF0.0005118165809791992
aF72.25627949368132
aF0.43043797055811694
aF22.195676067482715
aF0.1614804128548508
aI0
aF22.391248440892237
aI19
aa(lp98
g96
ag42
aS'281'
p99
aF0.12114364968485487
aF0.0005519354310609254
aF1.0000004003615897
aF0.042054639280127204
aF74.99068783570678
aF0.4534239585693669
aF0.9986272155826307
aF0.7570183383133178
aF0.005501923711951775
aF0.000624318226473793
aF2.19939631070109
aF0.04827579868795029
aF0.12114364968485487
aF0.0005519354310609254
aF74.99068783570678
aF0.4534239585693669
aF22.771829568061353
aF0.17240020351221275
aI0
aF20.580483592256922
aI19
aa(lp100
g96
ag42
aS'872'
p101
aF0.1199225843275508
aF0.0005747853103175254
aF0.9999972575759547
aF0.038439174581685664
aF75.35222716417027
aF0.4851611355865799
aF0.9955229274657665
aF0.7420967365897826
aF0.004652250263066901
aF0.0006697645047986821
aF2.2997290524169984
aF0.04449357282341593
aF0.1199225843275508
aF0.0005747853103175254
aF75.35222716417027
aF0.4851611355865799
aF22.650980505929653
aF0.18181251580269966
aI0
aF16.903942114973155
aI19
aa(lp102
g96
ag42
aS'1783'
p103
aF0.11853935138852251
aF0.0005658983315037846
aF1.0000012830568143
aF0.019796967465333104
aF76.62392851552693
aF0.4999781654309672
aF0.9900000012406316
aF0.7559345276418035
aF0.005605929808254504
aF0.0006669349951768991
aF2.1786582110084
aF0.031022627161197747
aF0.11853935138852251
aF0.0005658983315037846
aF76.62392851552693
aF0.4999781654309672
aF22.767581259954255
aF0.18407587533422143
aI0
aF30.473616278781975
aI19
aa(lp104
g96
ag42
aS'2063'
p105
aF0.12029050949555409
aF0.000567694709085547
aF0.999997439305516
aF0.029217537397613957
aF76.00028532825323
aF0.4671645348130369
aF0.9899999999005977
aF0.7559345303355266
aF0.00584285189001513
aF0.0006424064967688288
aF2.1414398162052444
aF0.04962343596396823
aF0.12029050949555409
aF0.000567694709085547
aF76.00028532825323
aF0.4671645348130369
aF22.915879045820567
aF0.17758921387291626
aI0
aF16.66446475845492
aI19
aa(lp106
g96
ag42
aS'sum'
p107
aF-0.013193481244031156
aF0.02607601568743516
aF1.0000003491628133
aF0.050156293616005015
aF0.22000735789936696
aF0.004775157985059675
aF0.99
aF0.03815443950846371
aF-4.660248981384427e-07
aF0.07138004047902913
aF4.7983286233233e-08
aF0.102424048464929
aF-0.013193481244031156
aF0.02607601568743516
aF0.22000735789936696
aF0.004775157985059675
aF-0.0072758970221791595
aF0.014381181227143585
aI0
aF0.048403346579652
aI19
aa(lp108
S'3'
p109
ag42
aS'41'
p110
aF0.12280222031126264
aF0.000600893187619263
aF1.0000037409150697
aF0.034781148104623516
aF72.23878788324203
aF0.5961862181158892
aF0.9953140601841632
aF0.7427654009876095
aF0.0027918327894098163
aF0.000709748062595911
aF2.1508589718493925
aF0.03762470196324075
aF0.12280222031126264
aF0.000600893187619263
aF72.23878788324203
aF0.5961862181158892
aF22.236508839649677
aF0.2133489500410096
aI0
aF22.438111657739793
aI19
aa(lp111
g109
ag42
aS'281'
p112
aF0.12247904895181186
aF0.0006013515931879867
aF1.0000062329043837
aF0.02329895608070842
aF74.67289919437155
aF0.5960608872639668
aF0.9959740746022185
aF0.7405888424470901
aF0.0018503491248955655
aF0.0007274895724249526
aF2.056668984749141
aF0.028227223042052163
aF0.12247904895181186
aF0.0006013515931879867
aF74.67289919437155
aF0.5960608872639668
aF22.925285498940315
aF0.2148423891022597
aI0
aF36.64837968286285
aI19
aa(lp113
g109
ag42
aS'872'
p114
aF0.11876387681510388
aF0.0005938233636547868
aF0.999997996072356
aF0.039093977150061576
aF75.64202734104738
aF0.6382714410867152
aF0.9959222845282387
aF0.7407666798711005
aF0.0017541714036049224
aF0.0007382725952941082
aF2.3676678241772633
aF0.04491175639595335
aF0.11876387681510388
aF0.0005938233636547868
aF75.64202734104738
aF0.6382714410867152
aF22.518396415985915
aF0.22086526572464124
aI0
aF17.557815191757292
aI19
aa(lp115
g109
ag42
aS'1783'
p116
aF0.11748829930211635
aF0.0008641354869747177
aF0.779274216373608
aF0.07908564568008775
aF77.19869548472673
aF0.8065074999797446
aF0.3432941287154747
aF0.3024169325101467
aF0.0020578921594318423
aF0.0007156277626504178
aF2.1365270942759014
aF0.03055214111396687
aF0.11748829930211635
aF0.0008641354869747177
aF77.19869548472673
aF0.8065074999797446
aF22.73497667811982
aF0.2904747278544607
aI0
aF42.408266255646126
aI19
aa(lp117
g109
ag42
aS'2063'
p118
aF0.11957898793224861
aF0.0005523684698893766
aF1.000002970286582
aF0.02872617262021404
aF76.7222138864042
aF0.6138178818941213
aF0.9961171134263398
aF0.7400908193542969
aF0.001876435277285068
aF0.0007008245459231088
aF2.122213359352158
aF0.03380072558195857
aF0.11957898793224861
aF0.0005523684698893766
aF76.7222138864042
aF0.6138178818941213
aF22.99672192986436
aF0.21245050528942624
aI0
aF27.40289954349479
aI19
aa(lp119
g109
ag42
aS'sum'
p120
aF-0.013193481244031156
aF0.02607601568743516
aF1.0000003491628133
aF0.050156293616005015
aF0.22000735789936696
aF0.004775157985059675
aF0.99
aF0.03815443950846371
aF-4.660248981384427e-07
aF0.07138004047902913
aF4.7983286233233e-08
aF0.102424048464929
aF-0.013193481244031156
aF0.02607601568743516
aF0.22000735789936696
aF0.004775157985059675
aF-0.0072758970221791595
aF0.014381181227143585
aI0
aF0.048403346579652
aI19
aa(lp121
S'4'
p122
ag28
aS'41'
p123
aF0.1335275446613615
aF0.000604110173514742
aF1.000001477044103
aF0.034327170920346706
aF73.02404491545873
aF0.4332772361962469
aF0.989999999591174
aF0.7559345309575266
aF-0.006913039471286285
aF0.0006725712259028731
aF2.2803188975311146
aF0.051516587592897345
aF0.1335275446613615
aF0.000604110173514742
aF73.02404491545873
aF0.4332772361962469
aF24.441434006419655
aF0.1823687407909586
aI0
aF27.440865596427095
aI19
aa(lp124
g122
ag28
aS'281'
p125
aF0.13089147578855095
aF0.0005594056103221392
aF1.0000026446983608
aF0.013614056906512462
aF75.6477089969157
aF0.44308215362340775
aF4.15287459243352e-06
aF0.9871579922393436
aF-0.0075565572572346695
aF0.0006398736090806598
aF2.1988086363147237
aF0.03633629224940016
aF0.13089147578855095
aF0.0005594056103221392
aF75.6477089969157
aF0.44308215362340775
aF24.81973146758395
aF0.17995933964496552
aI0
aF32.549014320794456
aI19
aa(lp126
g122
ag28
aS'872'
p127
aF0.1307507345527173
aF0.0005906959426267552
aF0.9999987174251048
aF0.035417575625095066
aF76.41096763920422
aF0.4566409674620786
aF0.9900000001842446
aF0.7559345297653419
aF-0.006450151921067669
aF0.0006682332059668117
aF2.359352595256671
aF0.0507958209310555
aF0.1307507345527173
aF0.0005906959426267552
aF76.41096763920422
aF0.4566409674620786
aF25.04319706764774
aF0.1876132170639686
aI0
aF33.073210217792884
aI19
aa(lp128
g122
ag28
aS'1783'
p129
aF0.13101857569814132
aF0.0005747892004268141
aF1.000001495735892
aF0.018934344987063367
aF77.04557932454142
aF0.4614428730170701
aF0.9899999997035639
aF0.7559345307316023
aF-0.006157116469835565
aF0.0006654774616590089
aF2.2066488282626695
aF0.03573055716561857
aF0.13101857569814132
aF0.0005747892004268141
aF77.04557932454142
aF0.4614428730170701
aF25.302913636484366
aF0.1878513160214798
aI0
aF35.869532605320124
aI19
aa(lp130
g122
ag28
aS'2063'
p131
aF0.12935110859570334
aF0.0005595719968003476
aF0.9999995679016983
aF0.03032487528820671
aF76.76308259096291
aF0.45245671882639016
aF0.9900000000232481
aF0.7559345300889758
aF-0.005928566908785357
aF0.0006529404694709413
aF2.195080072413051
aF0.04738059715469145
aF0.12935110859570334
aF0.0005595719968003476
aF76.76308259096291
aF0.45245671882639016
aF24.889289303638645
aF0.1819741920475957
aI0
aF24.403671608807326
aI19
aa(lp132
g122
ag28
aS'sum'
p133
aF-0.013193481244031156
aF0.02607601568743516
aF1.0000003491628133
aF0.050156293616005015
aF0.22000735789936696
aF0.004775157985059675
aF0.99
aF0.03815443950846371
aF-4.660248981384427e-07
aF0.07138004047902913
aF4.7983286233233e-08
aF0.102424048464929
aF-0.013193481244031156
aF0.02607601568743516
aF0.22000735789936696
aF0.004775157985059675
aF-0.0072758970221791595
aF0.014381181227143585
aI0
aF0.048403346579652
aI19
aa(lp134
S'5'
p135
ag28
aS'41'
p136
aF0.13271106762675158
aF0.0005674431033463374
aF1.0000019064432526
aF0.05056994614414195
aF73.26091556939356
aF0.34353078718515917
aF0.9900000000795944
aF0.7559345299757088
aF-0.0025488530180943604
aF0.0005307106571530662
aF2.353577611038848
aF0.07970055501037643
aF0.13271106762675158
aF0.0005674431033463374
aF73.26091556939356
aF0.34353078718515917
aF24.370779428904598
aF0.15465429818210757
aI0
aF13.685285107569062
aI13
aa(lp137
g135
ag28
aS'281'
p138
aF0.13345353629248882
aF0.0008965164140839962
aF0.5000000002648299
aF0.0981551257490133
aF77.64069605718983
aF0.524362704928393
aF0.9388094287296167
aF0.015575281301871302
aF-0.0010100184650396536
aF0.0005146551341563417
aF1.199362165256726
aF0.24345284362933234
aF0.13345353629248882
aF0.0008965164140839962
aF77.64069605718983
aF0.524362704928393
aF25.972241996050577
aF0.2474074587506133
aI0
aF24.56400684762659
aI13
aa(lp139
g135
ag28
aS'872'
p140
aF0.13033534199428742
aF0.0005103739715208575
aF1.0000018685708127
aF0.038072242200332285
aF77.92874405388322
aF0.37712950725920535
aF0.9899999999812987
aF0.7559345301733018
aF-0.0012149712589515816
aF0.0005340142952786042
aF2.3110818818834558
aF0.053379724501406045
aF0.13033534199428742
aF0.0005103739715208575
aF77.92874405388322
aF0.37712950725920535
aF25.459496289107005
aF0.1584919284426252
aI0
aF16.381826590649005
aI13
aa(lp141
g135
ag28
aS'1783'
p142
aF0.12977680779359996
aF0.0005928022382708383
aF1.0000038055797293
aF0.07348748945797562
aF77.39839877790058
aF0.3819941869177228
aF0.9918463757935978
aF0.7519871928973615
aF-0.0009246153883847186
aF0.0005575205302413792
aF2.567980477661098
aF0.08775980097530423
aF0.12977680779359996
aF0.0005928022382708383
aF77.39839877790058
aF0.3819941869177228
aF25.177870622348635
aF0.16931773763296626
aI0
aF13.372159612059834
aI13
aa(lp143
g135
ag28
aS'2063'
p144
aF0.127910552989726
aF0.0005818295324608832
aF1.0000011659150876
aF0.05874013631178704
aF77.34033420408907
aF0.36871092611912815
aF0.9900000000205984
aF0.7559345300943018
aF-0.0013272269539438071
aF0.0005314362921849435
aF2.5276983335316974
aF0.09937461292151184
aF0.127910552989726
aF0.0005818295324608832
aF77.34033420408907
aF0.36871092611912815
aF24.79718345847137
aF0.16339594659473067
aI0
aF16.749422642440816
aI13
aa(lp145
g135
ag28
aS'sum'
p146
aF3.767159007528013e-05
aF7.119384861219799e-11
aF0.5000637887639235
aF4.555948888956392e-11
aF0.22000503539879004
aF1.9620018377815624e-09
aF0.882313216532357
aF4.2909926722467995e-10
aF0.02327780206137539
aF7.39600558498089e-10
aF4.3259062998401987e-10
aF5.209268923749861e-09
aF3.767159007528013e-05
aF7.119384861219799e-11
aF0.22000503539879004
aF1.9620018377815624e-09
aF2.077478350928619e-05
aF3.9261768788693555e-11
aI0
aF3.555558409849453e-18
aI13
aa(lp147
S'6'
p148
ag42
aS'41'
p149
aF0.1205523493727722
aF0.0004986329236527868
aF1.0000007586135449
aF0.05690569117189659
aF73.79699462623836
aF0.3609811880045726
aF0.9927253471016936
aF0.7499145263821339
aF-0.00048065688950203023
aF0.0005060004469931177
aF2.3036990755311564
aF0.07452876049564083
aF0.1205523493727722
aF0.0004986329236527868
aF73.79699462623836
aF0.3609811880045726
aF22.299970486685297
aF0.142851529615175
aI0
aF11.687861200522349
aI13
aa(lp150
g148
ag42
aS'281'
p151
aF0.11940447935028876
aF0.0004729902923972259
aF1.0000020968841337
aF0.039597336178620934
aF75.60751090994435
aF0.3715062310194597
aF0.9899999997607134
aF0.7559345306167218
aF-0.00015739799966808202
aF0.0004996431011933485
aF2.2828207140667987
aF0.054566100238377935
aF0.11940447935028876
aF0.0004729902923972259
aF75.60751090994435
aF0.3715062310194597
aF22.629527925916875
aF0.14282633579541837
aI0
aF12.446137374172388
aI13
aa(lp152
g148
ag42
aS'872'
p153
aF0.11823221812119933
aF0.0004588725953250106
aF1.0000008239299738
aF0.02259448869430558
aF76.79602933006646
aF0.38585973406840424
aF0.08295035573958692
aF0.9279759340379934
aF0.0007845020568799088
aF0.0005207260974459881
aF2.3436521374933292
aF0.05648515454252556
aF0.11823221812119933
aF0.0004588725953250106
aF76.79602933006646
aF0.38585973406840424
aF22.75959540176587
aF0.14449813769584552
aI0
aF25.507843803494445
aI13
aa(lp154
g148
ag42
aS'1783'
p155
aF0.11715156679311657
aF0.0004612242589194297
aF1.0000024877578177
aF0.03459498439989073
aF77.55975586625547
aF0.36217644606118427
aF0.9934355643557848
aF0.7481271390396533
aF0.000784002873027102
aF0.00045449061495345995
aF2.3114963118865157
aF0.04272498954783477
aF0.11715156679311657
aF0.0004612242589194297
aF77.55975586625547
aF0.36217644606118427
aF22.775843439508275
aF0.1391107157697048
aI0
aF24.574945520034607
aI13
aa(lp156
g148
ag42
aS'2063'
p157
aF0.11872103950965494
aF0.000436444546479905
aF1.0000016401658622
aF0.02586921934455888
aF78.00951483191412
aF0.38117079119904673
aF0.9995477508400554
aF0.7643632228642275
aF-0.0003195912912045518
aF0.00048790231314338467
aF2.0761426957358786
aF0.04092291591912911
aF0.11872103950965494
aF0.000436444546479905
aF78.00951483191412
aF0.38117079119904673
aF23.214813639631036
aF0.14195175096607032
aI0
aF19.981545515355837
aI13
aa(lp158
g148
ag42
aS'sum'
p159
aF3.767159007528013e-05
aF7.119384861219799e-11
aF0.5000637887639235
aF4.555948888956392e-11
aF0.22000503539879004
aF1.9620018377815624e-09
aF0.882313216532357
aF4.2909926722467995e-10
aF0.02327780206137539
aF7.39600558498089e-10
aF4.3259062998401987e-10
aF5.209268923749861e-09
aF3.767159007528013e-05
aF7.119384861219799e-11
aF0.22000503539879004
aF1.9620018377815624e-09
aF2.077478350928619e-05
aF3.9261768788693555e-11
aI0
aF3.555558409849453e-18
aI13
aa(lp160
S'7'
p161
ag28
aS'41'
p162
aF0.13486065770103597
aF0.0006871013924247089
aF1.0000059510340167
aF0.07181257334433067
aF73.25291887132838
aF0.3514829477501493
aF0.9915106376445986
aF0.7527430182645081
aF-0.007086571771664959
aF0.0005990940317580851
aF2.4490621995080435
aF0.10666600751506472
aF0.13486065770103597
aF0.0006871013924247089
aF73.25291887132838
aF0.3514829477501493
aF24.762822350058677
aF0.1733058281107233
aI0
aF23.488939157071997
aI13
aa(lp163
g161
ag28
aS'281'
p164
aF0.130378788785175
aF0.0005892401152889277
aF1.0000010599287752
aF0.029997924573841206
aF76.42036159884829
aF0.3646947796881719
aF0.7129908881036242
aF0.6275126165028992
aF-0.006065575913889006
aF0.0005598259489173527
aF2.603425458224318
aF0.08734684635528578
aF0.130378788785175
aF0.0005892401152889277
aF76.42036159884829
aF0.3646947796881719
aF24.9750268980193
aF0.16415166082998864
aI0
aF13.903003056835084
aI13
aa(lp165
g161
ag28
aS'872'
p166
aF0.13174959298513764
aF0.0006158917160955737
aF1.0000015194797005
aF0.05833947328915012
aF77.45396692080288
aF0.38421279209028114
aF0.9900000000860821
aF0.7559345299626672
aF-0.007546419635768138
aF0.0005762006929311372
aF2.486111472275594
aF0.0949700500135997
aF0.13174959298513764
aF0.0006158917160955737
aF77.45396692080288
aF0.38421279209028114
aF25.578959960402948
aF0.17434987770313118
aI0
aF13.945933250622561
aI13
aa(lp167
g161
ag28
aS'1783'
p168
aF0.13133411507378845
aF0.0005895639230158857
aF1.000001809626883
aF0.057466289072037546
aF78.3648391818937
aF0.38880325638399427
aF0.9899999999463339
aF0.7559345302435877
aF-0.005986177943274418
aF0.0005837568790552244
aF2.5126111925455175
aF0.08426171477904254
aF0.13133411507378845
aF0.0005895639230158857
aF78.3648391818937
aF0.38880325638399427
aF25.798160065906096
aF0.17261158814150873
aI0
aF9.12689964266631
aI13
aa(lp169
g161
ag28
aS'2063'
p170
aF0.12930505495513375
aF0.0006031599918277979
aF1.0000012491234458
aF0.07002388191793152
aF77.63685235473679
aF0.3737299428788674
aF0.9918520641204999
aF0.7519742255021342
aF-0.0061786766048269656
aF0.0005599621362067491
aF2.540473106118629
aF0.10480910001924615
aF0.12930505495513375
aF0.0006031599918277979
aF77.63685235473679
aF0.3737299428788674
aF25.163633822344778
aF0.16867450834843958
aI0
aF14.643553912353553
aI13
aa(lp171
g161
ag28
aS'sum'
p172
aF3.767159007528013e-05
aF7.119384861219799e-11
aF0.5000637887639235
aF4.555948888956392e-11
aF0.22000503539879004
aF1.9620018377815624e-09
aF0.882313216532357
aF4.2909926722467995e-10
aF-0.02327780206137539
aF7.39600558498089e-10
aF4.3259062998401987e-10
aF5.209268923749861e-09
aF3.767159007528013e-05
aF7.119384861219799e-11
aF0.22000503539879004
aF1.9620018377815624e-09
aF2.077478350928619e-05
aF3.9261768788693555e-11
aI0
aF3.555558409849453e-18
aI13
aa(lp173
S'8'
p174
ag42
aS'41'
p175
aF0.11864890693429812
aF0.0004976588648488325
aF1.0000019228613652
aF0.04297830443908929
aF74.3057407570684
aF0.37374348824707937
aF0.9930634904325535
aF0.7490771589364426
aF-0.0016843190390911597
aF0.0005055281665939926
aF2.294989906295395
aF0.06309700963600795
aF0.11864890693429812
aF0.0004976588648488325
aF74.3057407570684
aF0.37374348824707937
aF22.099174123379857
aF0.14473152925693863
aI0
aF14.695608762383408
aI13
aa(lp176
g174
ag42
aS'281'
p177
aF0.1163197750747358
aF0.0004547988173942325
aF1.0000003357473162
aF0.02207488150380077
aF77.3967994546193
aF0.38432120259623304
aF0.8834427070225523
aF0.8700183825372203
aF-0.002294998516399723
aF0.00034200693834143825
aF2.37138182315845
aF0.05897342646392034
aF0.1163197750747358
aF0.0004547988173942325
aF77.3967994546193
aF0.38432120259623304
aF22.566618647205736
aF0.14262471792868783
aI0
aF18.851993223697125
aI13
aa(lp178
g174
ag42
aS'872'
p179
aF0.11605354271042885
aF0.0004818347858354584
aF1.0000010137565303
aF0.05153158123468449
aF78.38615297576516
aF0.4103689149751588
aF0.9999590568485746
aF0.9049443781410513
aF-0.001695290615172134
aF0.0005220708573643776
aF2.465268637270899
aF0.05727827853408929
aF0.11605354271042885
aF0.0004818347858354584
aF78.38615297576516
aF0.4103689149751588
aF22.802774233719706
aF0.1523615387000789
aI0
aF20.468901875953524
aI13
aa(lp180
g174
ag42
aS'1783'
p181
aF0.1149817382166774
aF0.0004699498053552881
aF1.0000012364148305
aF0.015658498543712762
aF78.0083636079049
aF0.4027884866461662
aF0.7435218377189802
aF0.8383780720284717
aF-0.0018208612545761616
aF0.0005057905563109166
aF2.4962870112475515
aF0.058852604307644274
aF0.1149817382166774
aF0.0004699498053552881
aF78.0083636079049
aF0.4027884866461662
aF22.483295663848853
aF0.14805837302805447
aI0
aF17.422661838845105
aI13
aa(lp182
g174
ag42
aS'2063'
p183
aF0.11588292430303326
aF0.00044843853796028245
aF1.0000018331916947
aF0.030009844031927912
aF78.45122748135097
aF0.39226182635638196
aF0.9900000003848882
aF0.7559345293620102
aF-0.0008990626100191018
aF0.0004935771843777835
aF2.174699001867892
aF0.04453649895652312
aF0.11588292430303326
aF0.00044843853796028245
aF78.45122748135097
aF0.39226182635638196
aF22.788152828909304
aF0.1440812022087307
aI0
aF14.549021550219095
aI13
aa(lp184
g174
ag42
aS'sum'
p185
aF3.767159007528013e-05
aF7.119384861219799e-11
aF0.5000637887639235
aF4.555948888956392e-11
aF0.22000503539879004
aF1.9620018377815624e-09
aF0.882313216532357
aF4.2909926722467995e-10
aF-0.02327780206137539
aF7.39600558498089e-10
aF4.3259062998401987e-10
aF5.209268923749861e-09
aF3.767159007528013e-05
aF7.119384861219799e-11
aF0.22000503539879004
aF1.9620018377815624e-09
aF2.077478350928619e-05
aF3.9261768788693555e-11
aI0
aF3.555558409849453e-18
aI13
aa(lp186
S'9'
p187
ag28
aS'41'
p188
aF0.13338697932010715
aF0.0008126760459673366
aF1.2883460505708668
aF0.05368386347227461
aF76.55412298488207
aF0.5481906077176006
aF0.4919453115912226
aF0.3574644314189437
aF0.0075380679823415335
aF0.0006625232376384275
aF2.053195422783502
aF0.04276278307686421
aF0.13338697932010715
aF0.0008126760459673366
aF76.55412298488207
aF0.5481906077176006
aF25.595991503277954
aF0.2406532453076427
aI0
aF30.86012293773455
aI19
aa(lp189
g187
ag28
aS'281'
p190
aF0.13183036425321787
aF0.0005741009733818154
aF0.9999983031459753
aF0.04603957167530859
aF78.02270825262062
aF0.4536694677562707
aF0.9945640885925143
aF0.7450341807535465
aF0.0071675756886140935
aF0.000655194752767683
aF2.3248674708990884
aF0.052203439024639975
aF0.13183036425321787
aF0.0005741009733818154
aF78.02270825262062
aF0.4536694677562707
aF25.782581978063472
aF0.1872995094221044
aI0
aF21.012015687995785
aI19
aa(lp191
g187
ag28
aS'872'
p192
aF0.13160235362682915
aF0.00058830138200095
aF1.0000064660629604
aF0.025880847494664738
aF78.38292745202969
aF0.467395927304608
aF0.17458790993983186
aF0.5856854620318822
aF0.007246449872497618
aF0.0006824773023498439
aF2.5323877031019237
aF0.05951076583910786
aF0.13160235362682915
aF0.00058830138200095
aF78.38292745202969
aF0.467395927304608
aF25.8568174986826
aF0.1926995444179071
aI0
aF18.82269393913142
aI19
aa(lp193
g187
ag28
aS'1783'
p194
aF0.1316807421072998
aF0.0011304201426982471
aF1.6898535029516715
aF0.47836764912640994
aF80.32650227156972
aF0.5376198965440366
aF0.04023318615001714
aF0.044722532427358797
aF0.006210047036692242
aF0.0006710228833591567
aF2.1000946583228903
aF0.17436856272572565
aF0.1316807421072998
aF0.0011304201426982471
aF80.32650227156972
aF0.5376198965440366
aF26.513743841240693
aF0.2886102071845
aI0
aF29.74280889789756
aI19
aa(lp195
g187
ag28
aS'2063'
p196
aF0.1321550036125315
aF0.0005565565640955095
aF1.0000020108972638
aF0.037749379356067536
aF79.1027393851811
aF0.459953341805317
aF0.9946545358408023
aF0.7447706090320736
aF0.006161176995385235
aF0.0006682607382837594
aF2.1328656850055716
aF0.04392504897720251
aF0.1321550036125315
aF0.0005565565640955095
aF79.1027393851811
aF0.459953341805317
aF26.20384783154762
aF0.1881315353417168
aI0
aF24.16440179828673
aI19
aa(lp197
g187
ag28
aS'sum'
p198
aF-0.013193481244031156
aF0.02607601568743516
aF1.0000003491628133
aF0.050156293616005015
aF0.22000735789936696
aF0.004775157985059675
aF0.99
aF0.03815443950846371
aF-4.660248981384427e-07
aF0.07138004047902913
aF4.7983286233233e-08
aF0.102424048464929
aF-0.013193481244031156
aF0.02607601568743516
aF0.22000735789936696
aF0.004775157985059675
aF-0.0072758970221791595
aF0.014381181227143585
aI0
aF0.048403346579652
aI19
aa.