(lp0
(lp1
S'XscanNumber_YscanNumber'
p2
aS'Type'
p3
aS'BCID'
p4
aS'xsec'
p5
aS'xsecErr'
p6
aS'normChange'
p7
aS'normChangeErr'
p8
aa(lp9
S'1_2'
p10
aS'XY'
p11
aS'sum'
p12
aF0.01910388623363007
aF0.0003729868080932652
aF-999.0
aF-999.0
aa(lp13
S'1_2'
p14
ag11
aS'1783'
p15
aF7466558.691916095
aF57574.23978733788
aF-999.0
aF-999.0
aa(lp16
S'1_2'
p17
ag11
aS'872'
p18
aF7514869.5892626215
aF60381.5638736147
aF-999.0
aF-999.0
aa(lp19
S'1_2'
p20
ag11
aS'41'
p21
aF7489645.265847439
aF54058.34424823501
aF-999.0
aF-999.0
aa(lp22
S'1_2'
p23
ag11
aS'281'
p24
aF7521982.89641718
aF55456.2186538321
aF-999.0
aF-999.0
aa(lp25
S'1_2'
p26
ag11
aS'2063'
p27
aF7474979.573029177
aF63793.77023479559
aF-999.0
aF-999.0
aa(lp28
S'4_3'
p29
ag11
aS'sum'
p30
aF-6.69743281338194
aF-0.013222495117195372
aF-999.0
aF-999.0
aa(lp31
S'4_3'
p32
ag11
aS'1783'
p33
aF7465432.872898513
aF77957.26554516955
aF-999.0
aF-999.0
aa(lp34
S'4_3'
p35
ag11
aS'872'
p36
aF7423352.1619545305
aF63193.3485529919
aF-999.0
aF-999.0
aa(lp37
S'4_3'
p38
ag11
aS'41'
p39
aF7487214.550692858
aF62754.93189611302
aF-999.0
aF-999.0
aa(lp40
S'4_3'
p41
ag11
aS'281'
p42
aF7573999.590236764
aF61970.641175005185
aF-999.0
aF-999.0
aa(lp43
S'4_3'
p44
ag11
aS'2063'
p45
aF7462526.789910416
aF59965.214304017856
aF-999.0
aF-999.0
aa(lp46
S'5_6'
p47
ag11
aS'sum'
p48
aF0.10381703117343986
aF68260226.10674925
aF-999.0
aF-999.0
aa(lp49
S'5_6'
p50
ag11
aS'1783'
p51
aF7419898.368348752
aF51532.59878546795
aF-999.0
aF-999.0
aa(lp52
S'5_6'
p53
ag11
aS'872'
p54
aF7566115.308590812
aF60827.77116617832
aF-999.0
aF-999.0
aa(lp55
S'5_6'
p56
ag11
aS'41'
p57
aF7409961.64551629
aF50479.19593113561
aF-999.0
aF-999.0
aa(lp58
S'5_6'
p59
ag11
aS'281'
p60
aF7695083.845190908
aF67787.96972763885
aF-999.0
aF-999.0
aa(lp61
S'5_6'
p62
ag11
aS'2063'
p63
aF7428745.658613545
aF50332.775155394505
aF-999.0
aF-999.0
aa(lp64
S'7_8'
p65
ag11
aS'sum'
p66
aF0.2295135870224737
aF0.033012689589967656
aF-999.0
aF-999.0
aa(lp67
S'7_8'
p68
ag11
aS'1783'
p69
aF7423195.614803353
aF52235.93121850312
aF-999.0
aF-999.0
aa(lp70
S'7_8'
p71
ag11
aS'872'
p72
aF7491186.201360387
aF54065.20160136121
aF-999.0
aF-999.0
aa(lp73
S'7_8'
p74
ag11
aS'41'
p75
aF7423657.152893504
aF55351.68736666537
aF-999.0
aF-999.0
aa(lp76
S'7_8'
p77
ag11
aS'281'
p78
aF7335152.517087003
aF50447.69406277752
aF-999.0
aF-999.0
aa(lp79
S'7_8'
p80
ag11
aS'2063'
p81
aF7353539.6900791535
aF51323.03729878453
aF-999.0
aF-999.0
aa(lp82
S'9_10'
p83
ag11
aS'sum'
p84
aF21.725557293650166
aF0.8155517083115553
aF-999.0
aF-999.0
aa(lp85
S'9_10'
p86
ag11
aS'1783'
p87
aF7484972.985298019
aF80359.05081189872
aF-999.0
aF-999.0
aa(lp88
S'9_10'
p89
ag11
aS'872'
p90
aF7416946.087270247
aF57628.19566224866
aF-999.0
aF-999.0
aa(lp91
S'9_10'
p92
ag11
aS'41'
p93
aF7410137.888248078
aF65651.90920705322
aF-999.0
aF-999.0
aa(lp94
S'9_10'
p95
ag11
aS'281'
p96
aF7473660.546798942
aF56904.79302226158
aF-999.0
aF-999.0
aa(lp97
S'9_10'
p98
ag11
aS'2063'
p99
aF7572944.803585529
aF56858.33796504414
aF-999.0
aF-999.0
aa(lp100
S'11_12'
p101
ag11
aS'sum'
p102
aF0.07347564087394133
aF1.5208852081958878e+16
aF-999.0
aF-999.0
aa(lp103
S'11_12'
p104
ag11
aS'1783'
p105
aF7595449.210731768
aF58371.569887902246
aF-999.0
aF-999.0
aa(lp106
S'11_12'
p107
ag11
aS'872'
p108
aF7581492.893008378
aF57404.15831143478
aF-999.0
aF-999.0
aa(lp109
S'11_12'
p110
ag11
aS'41'
p111
aF7556668.134294053
aF55661.9162700698
aF-999.0
aF-999.0
aa(lp112
S'11_12'
p113
ag11
aS'281'
p114
aF7614320.842373745
aF55541.21635265894
aF-999.0
aF-999.0
aa(lp115
S'11_12'
p116
ag11
aS'2063'
p117
aF7607007.0150731625
aF74329.84786447266
aF-999.0
aF-999.0
aa.