(lp0
(lp1
S'Scan'
p2
aS'Type'
p3
aS'BCID'
p4
aS'sigma'
p5
aS'sigmaErr'
p6
aS'sigmaRatio'
p7
aS'sigmaRatio_Err'
p8
aS'Amp'
p9
aS'AmpErr'
p10
aS'Frac'
p11
aS'FracErr'
p12
aS'Mean'
p13
aS'MeanErr'
p14
aS'Const'
p15
aS'ConstErr'
p16
aS'CapSigma'
p17
aS'CapSigmaErr'
p18
aS'peak'
p19
aS'peakErr'
p20
aS'area'
p21
aS'areaErr'
p22
aS'fitStatus'
p23
aS'chi2'
p24
aS'ndof'
p25
aa(lp26
S'1'
p27
aS'X'
p28
aS'41'
p29
aF0.13477135321782116
aF0.0005576283631691711
aF1.0000022784327365
aF0.029185739505523223
aF72.04135472885913
aF0.42456685878843814
aF0.9949863502802637
aF0.7437808361507389
aF-0.0008585062233612116
aF0.0006611808796507328
aF1.9740321118347426
aF0.03391685022169444
aF0.13477135321782116
aF0.0005576283631691711
aF72.04135472885913
aF0.42456685878843814
aF24.337131814365986
aF0.1752468312635044
aI0
aF16.502165296201813
aI19
aa(lp30
g27
ag28
aS'281'
p31
aF0.13117366322359855
aF0.0005250190444336576
aF1.0000025734377744
aF0.028482633104106314
aF75.62571769418227
aF0.44111899428470736
aF0.9954370958214883
aF0.742373638140604
aF0.0021933562845512216
aF0.0006589004329195069
aF1.9588284365713582
aF0.024566248755051534
aF0.13117366322359855
aF0.0005250190444336576
aF75.62571769418227
aF0.44111899428470736
aF24.866009222882003
aF0.17590444413526923
aI0
aF34.56879787702428
aI19
aa(lp32
g27
ag28
aS'872'
p33
aF0.13213829942109606
aF0.0006168577643231323
aF1.0000012865281107
aF0.024985841828999378
aF75.53270107193902
aF0.46121534466714564
aF0.9899999998717499
aF0.7559345303935157
aF4.920413817181679e-05
aF0.0006988393542790298
aF2.153212695518457
aF0.045604917247708654
aF0.13213829942109606
aF0.0006168577643231323
aF75.53270107193902
aF0.46121534466714564
aF25.01806191182582
aF0.1922944700838751
aI0
aF18.948512350411413
aI19
aa(lp34
g27
ag28
aS'1783'
p35
aF0.1301891857598042
aF2.859021055984832e-07
aF0.984060288697811
aF0.9144511244857823
aF77.31579341802113
aF0.00026361405733865695
aF0.999999999999934
aF0.005056571906896901
aF-0.0006327055907661198
aF4.613353304342389e-07
aF2.0745637742327814
aF2.1400150763462022e-05
aF0.1301891857598042
aF2.859021055984832e-07
aF77.31579341802113
aF0.00026361405733865695
aF25.230918571320352
aF0.00010232637701266548
aI0
aF38.71752976710309
aI19
aa(lp36
g27
ag28
aS'2063'
p37
aF0.129011965695736
aF0.000594080572336106
aF0.9999484820219786
aF0.06456189398244605
aF76.08568946514038
aF0.45261531196413785
aF0.994589258741853
aF0.7449610919032016
aF0.0010773883732861104
aF0.0006519851540283087
aF2.173578579046155
aF0.06321299121572022
aF0.129011965695736
aF0.000594080572336106
aF76.08568946514038
aF0.45261531196413785
aF24.604973805573756
aF0.1850980126687769
aI0
aF16.204544387917217
aI19
aa(lp38
g27
ag28
aS'sum'
p39
aF0.0021855368335832494
aF2.485987581121965e-08
aF0.5829359144679719
aF1.515605105409122e-08
aF1.1
aF5.0433015218408664e-08
aF0.99
aF1.3287973625562198e-08
aF-0.022318306441692762
aF2.4859872915619823e-08
aF1.532400151216251e-08
aF1.2470737662950397e-07
aF0.0021855368335832494
aF2.485987581121965e-08
aF1.1
aF5.0433015218408664e-08
aF0.006026161264538009
aF6.854647119066696e-08
aI0
aF5.8708765876990184e-15
aI19
aa(lp40
S'10'
p41
aS'Y'
p42
aS'41'
p43
aF0.1162094328095364
aF0.0004981972551845133
aF0.9999973387456336
aF0.035872733118715916
aF76.55327185027122
aF0.47751478430492966
aF0.9964409523938523
aF0.7389235283712068
aF-0.003076427167842215
aF0.0006093106095962942
aF2.254617389746503
aF0.0366312517010412
aF0.1162094328095364
aF0.0004981972551845133
aF76.55327185027122
aF0.47751478430492966
aF22.299497291895257
aF0.16878165767124492
aI0
aF18.992568515675778
aI19
aa(lp44
S'10'
p45
ag42
aS'281'
p46
aF0.11649307649106573
aF0.0005221289070848311
aF1.0000018186052055
aF0.032466485995216954
aF77.8502214767449
aF0.4916709778046737
aF0.9960823466387962
aF0.7402128126230922
aF-0.002415544944879346
aF0.000630296525827868
aF2.2336131254559692
aF0.03259884694251136
aF0.11649307649106573
aF0.0005221289070848311
aF77.8502214767449
aF0.4916709778046737
aF22.73264141421969
aF0.17605059362290812
aI0
aF18.723004142524502
aI19
aa(lp47
S'10'
p48
ag42
aS'872'
p49
aF0.1151357386440361
aF0.0005169908258371843
aF1.000005075721722
aF0.015621652594759283
aF78.39650207291882
aF0.5038271573624513
aF0.9900000030018834
aF0.7559345241013521
aF-0.0029907175511356588
aF0.0006364075453033286
aF2.3094907218338117
aF0.02563655525146502
aF0.1151357386440361
aF0.0005169908258371843
aF78.39650207291882
aF0.5038271573624513
aF22.625426325311093
aF0.177381642056395
aI0
aF21.491625128859077
aI19
aa(lp50
S'10'
p51
ag42
aS'1783'
p52
aF0.11351796496408122
aF0.0005011812132852086
aF0.9999967984912507
aF0.04944370170306023
aF80.05810715905959
aF0.5192830878130721
aF0.9958704528496364
aF0.7409433789007567
aF-0.003029925144538701
aF0.000609259504396971
aF2.3837851528101606
aF0.03827070084446693
aF0.11351796496408122
aF0.0005011812132852086
aF80.05810715905959
aF0.5192830878130721
aF22.780321490186548
aF0.17874152191777062
aI0
aF28.4299464499104
aI19
aa(lp53
S'10'
p54
ag42
aS'2063'
p55
aF0.1153580528491656
aF0.0005322015668196069
aF1.0000105955851437
aF0.03394679307732851
aF79.99583288064741
aF0.5027473166061611
aF0.014691080459901806
aF0.5804337130396896
aF-0.0036437009669392484
aF0.0006089656875269753
aF2.179182345340714
aF0.03669120990674668
aF0.1153580528491656
aF0.0005322015668196069
aF79.99583288064741
aF0.5027473166061611
aF23.131575595028362
aF0.18033910948893034
aI0
aF25.209222124602704
aI19
aa(lp56
S'10'
p57
ag42
aS'sum'
p58
aF0.0003833526472405077
aF6.137746485978724e-05
aF1.0000334746559616
aF0.00014896951162679054
aF0.9483292005383448
aF0.00048793949888226477
aF0.9900000000004505
aF0.00011332048314629038
aF0.015030081637263694
aF5.495960672711315e-05
aF0.00013068659112047687
aF0.0009797396681976381
aF0.0003833526472405077
aF6.137746485978724e-05
aF0.9483292005383448
aF0.00048793949888226477
aF0.0009112709465540599
aF0.0001459016644762641
aI0
aF4.269746274672674e-07
aI19
aa(lp59
S'11'
p60
ag28
aS'41'
p61
aF0.13803301156469225
aF0.0005737983027103583
aF1.0000030267550573
aF0.008611596520340381
aF78.63415065760672
aF0.4491388152180704
aF0.9935782318996702
aF0.5754048112503509
aF0.0006784592435218696
aF0.0006425572906760851
aF2.3059034196753316
aF0.040267642618673216
aF0.13803301156469225
aF0.0005737983027103583
aF78.63415065760672
aF0.4491388152180704
aF27.20721558060809
aF0.19220019426288418
aI0
aF23.731528538122113
aI19
aa(lp62
S'11'
p63
ag28
aS'281'
p64
aF0.13724412828264815
aF0.0005555761561451364
aF1.0000027523584056
aF0.0334248214046482
aF80.75778999552392
aF0.45104745668341195
aF0.9943581700023085
aF0.7456248661075251
aF0.0011753734991154414
aF0.0006600721514414864
aF2.263762927180343
aF0.03778559275822757
aF0.13724412828264815
aF0.0005555761561451364
aF80.75778999552392
aF0.45104745668341195
aF27.782295922147238
aF0.1916401241348094
aI0
aF27.73081737082786
aI19
aa(lp65
S'11'
p66
ag28
aS'872'
p67
aF0.13729898993769452
aF0.0005986843678954786
aF1.000000396491115
aF0.03158817511796641
aF81.39139688047462
aF0.4747675945054368
aF0.9900000000157512
aF0.7559345301040457
aF0.0015503916289504734
aF0.0006847297822401066
aF2.545711610969957
aF0.052569044994380976
aF0.13729898993769452
aF0.0005986843678954786
aF81.39139688047462
aF0.4747675945054368
aF28.01146213447837
aF0.20400155399756434
aI0
aF15.429228481178493
aI19
aa(lp68
S'11'
p69
ag28
aS'1783'
p70
aF0.13680317110388698
aF0.0006054634997568041
aF1.0000022165891287
aF0.027650697171045513
aF81.58397379830393
aF0.4879657785751945
aF0.9900000003414333
aF0.7559345294493629
aF0.0018304292382216483
aF0.0007143627334387352
aF2.4359510371536746
aF0.045268385029430425
aF0.13680317110388698
aF0.0006054634997568041
aF81.58397379830393
aF0.4879657785751945
aF27.97634363455732
aF0.20815947393169731
aI0
aF19.099125028224513
aI19
aa(lp71
S'11'
p72
ag28
aS'2063'
p73
aF0.13583670270508652
aF0.001003201867989485
aF1.5369020292602231
aF0.38313839129720617
aF82.2831306961451
aF0.5330735579632204
aF0.06560189826908475
aF0.08195474908644851
aF0.0013225138595040233
aF0.0006587797069687264
aF2.0226300093464857
aF0.13887080917034034
aF0.13583670270508652
aF0.001003201867989485
aF82.2831306961451
aF0.5330735579632204
aF28.016757589015626
aF0.2752420056350872
aI0
aF29.57755382790685
aI19
aa(lp74
S'11'
p75
ag28
aS'sum'
p76
aF-0.00029868361987404933
aF0.00027590581554913214
aF0.5000000039605423
aF0.0006086998287014806
aF0.2464058494468128
aF0.0022410930652318685
aF0.8574235218084033
aF0.00047003388742568905
aF-0.0031079331622835263
aF0.0008095185358468504
aF0.0004974734691504112
aF0.0038705619010821336
aF-0.00029868361987404933
aF0.00027590581554913214
aF0.2464058494468128
aF0.0022410930652318685
aF-0.0001844813013974283
aF0.000170420899091553
aI0
aF6.188568260096322e-06
aI19
aa(lp77
S'12'
p78
ag42
aS'41'
p79
aF0.10986768438725596
aF0.0004621349488181859
aF0.9999520071746484
aF0.020859508068798605
aF79.90364965183367
aF0.4922723562198428
aF0.9900001413259583
aF0.7559342472142524
aF-0.002415138443382859
aF0.0006015878128840335
aF2.279751076387791
aF0.04075443492359643
aF0.10986768438725596
aF0.0004621349488181859
aF79.90364965183367
aF0.4922723562198428
aF22.005260892638166
aF0.1641548259891666
aI0
aF27.232691091282998
aI19
aa(lp80
S'12'
p81
ag42
aS'281'
p82
aF0.10869147163398894
aF0.0004768552722479951
aF0.999996453423682
aF0.03933077463413376
aF81.64668002620202
aF0.5125832728748989
aF0.9900006482498682
aF0.7559332270039325
aF-0.00294318610756095
aF0.0005781626701099308
aF2.2752518731540663
aF0.04010784095510811
aF0.10869147163398894
aF0.0004768552722479951
aF81.64668002620202
aF0.5125832728748989
aF22.244565798209237
aF0.170373578495677
aI0
aF34.167373762983516
aI19
aa(lp83
S'12'
p84
ag42
aS'872'
p85
aF0.10725765252720565
aF0.0004707032148451779
aF1.0000012280388462
aF0.0259516362101343
aF82.40841759544595
aF0.5349821449324068
aF0.9973865189754001
aF0.735126491351957
aF-0.0025070462959088016
aF0.0005823722100686045
aF2.316832213606188
aF0.024900263713107718
aF0.10725765252720565
aF0.0004707032148451779
aF82.40841759544595
aF0.5349821449324068
aF22.15592042757436
aF0.17361414658834418
aI0
aF35.251813355975756
aI19
aa(lp86
S'12'
p87
ag42
aS'1783'
p88
aF0.10795724148926504
aF0.0004818206874574085
aF1.0000181111957076
aF0.009997522828285865
aF82.04620451673331
aF0.5394825734160946
aF0.571258181301025
aF0.525990462604712
aF-0.0018075682296992664
aF0.0006110638029134043
aF2.383819726753123
aF0.03471905778755757
aF0.10795724148926504
aF0.0004818206874574085
aF82.04620451673331
aF0.5394825734160946
aF22.202414608393553
aF0.17644177771453426
aI0
aF20.50505950390339
aI19
aa(lp89
S'12'
p90
ag42
aS'2063'
p91
aF0.10826130525466285
aF0.00047486516463925133
aF0.5000000000007367
aF0.287130197037716
aF82.29850454874104
aF0.5532735904201118
aF0.9842611913393949
aF0.005828631875566592
aF-0.0026139889403160805
aF0.0005896280426346715
aF2.0871134675587575
aF0.05044651831738811
aF0.10826130525466285
aF0.00047486516463925133
aF82.29850454874104
aF0.5532735904201118
aF22.333415034345695
aF0.17927361724491164
aI0
aF45.52516961472146
aI19
aa(lp92
S'12'
p93
ag42
aS'sum'
p94
aF0.00039732433593605513
aF6.264434641613768e-08
aF0.6915987830872514
aF1.3186006365659746e-06
aF1.0988862481184012
aF7.709677765538773e-06
aF0.989999992651492
aF1.3087607736074916e-06
aF0.0005236698882615134
aF5.201655713161646e-06
aF1.5093256788833997e-06
aF8.773122931819488e-06
aF0.00039732433593605513
aF6.264434641613768e-08
aF1.0988862481184012
aF7.709677765538773e-06
aF0.0010944296211561407
aF1.727245658049826e-07
aI0
aF5.695160196330764e-11
aI19
aa(lp95
S'2'
p96
ag42
aS'41'
p97
aF0.12242741248603572
aF0.0005115657199155835
aF1.000000428945074
aF0.006492926734154025
aF72.41459819846798
aF0.43092658561302954
aF0.5969422419623048
aF0.6987842949714151
aF0.006149319804468749
aF0.0006156179333650526
aF2.094044684131439
aF0.03619319570087165
aF0.12242741248603572
aF0.0005115657199155835
aF72.41459819846798
aF0.43092658561302954
aF22.2225928892107
aF0.1615880010778606
aI0
aF22.95910532438056
aI19
aa(lp98
g96
ag42
aS'281'
p99
aF0.12102859088934184
aF0.0005501520344995354
aF1.0000015259412331
aF0.04534262206945322
aF75.1556813662272
aF0.45459771101715774
aF0.972780070888883
aF0.8183527122393681
aF0.0051030009845030155
aF0.0006220481213485243
aF2.199626614567199
aF0.04837582324291212
aF0.12102859088934184
aF0.0005501520344995354
aF75.1556813662272
aF0.45459771101715774
aF22.800256227367214
aF0.17251547902332737
aI0
aF20.353081106890844
aI19
aa(lp100
g96
ag42
aS'872'
p101
aF0.11983042025318244
aF0.0005751998297211543
aF0.9999972523952203
aF0.03842466137469813
aF75.50217057752872
aF0.487542105365506
aF0.9955217223046566
aF0.7421006455189532
aF0.004235008945164699
aF0.0006680640838256191
aF2.3010089489354097
aF0.04448884630488581
aF0.11983042025318244
aF0.0005751998297211543
aF75.50217057752872
aF0.487542105365506
aF22.678611104415396
aF0.1824721691872894
aI0
aF16.860971750838885
aI19
aa(lp102
g96
ag42
aS'1783'
p103
aF0.11843321731166286
aF0.0005654308044070891
aF0.9999987472109868
aF0.012303275601673769
aF76.79133108366075
aF0.5012157883690946
aF0.5868724194048358
aF0.7022593270269203
aF0.005174527730897663
aF0.0006647439183925646
aF2.17945845279219
aF0.030999892365054738
aF0.11843321731166286
aF0.0005654308044070891
aF76.79133108366075
aF0.5012157883690946
aF22.79689280547458
aF0.18435212372554718
aI0
aF31.168561212630394
aI19
aa(lp104
g96
ag42
aS'2063'
p105
aF0.12017696790028458
aF0.0005669649823830405
aF0.9999974557518718
aF0.029191651668620144
aF76.1661175422557
aF0.46882636685309365
aF0.9899999998606299
aF0.7559345304158691
aF0.005425520424028375
aF0.0006398991873074976
aF2.1427416026478423
aF0.04961527628961382
aF0.12017696790028458
aF0.0005669649823830405
aF76.1661175422557
aF0.46882636685309365
aF22.94420399300473
aF0.17793975354359806
aI0
aF16.80464959499013
aI19
aa(lp106
g96
ag42
aS'sum'
p107
aF-0.009529802699811185
aF1.4303203740442159e-06
aF0.5178220151708256
aF1.796262900079014e-10
aF0.3850925509819414
aF4.955143957369908e-08
aF0.999913660030797
aF1.0975345925538022e-08
aF4.4677031809860885
aF2.1691179810460046e-08
aF1.3371341256451785e-08
aF1.375759209917198e-07
aF-0.009529802699811185
aF1.4303203740442159e-06
aF0.3850925509819414
aF4.955143957369908e-08
aF-0.009198964893698697
aF1.380665702886033e-06
aI0
aF4.46981917491224e-15
aI19
aa(lp108
S'3'
p109
ag42
aS'41'
p110
aF0.12270780204787209
aF0.000600520607384134
aF0.999997044889052
aF0.01251599639589307
aF72.44501202912791
aF0.5993865919683259
aF0.3251069568020738
aF0.6220370656260336
aF0.0016923452859485136
aF0.0007081185449313779
aF2.1506625400511266
aF0.03763084370373693
aF0.12270780204787209
aF0.000600520607384134
aF72.44501202912791
aF0.5993865919683259
aF22.282842987915135
aF0.21419834247091976
aI0
aF22.620317765614796
aI19
aa(lp111
g109
ag42
aS'281'
p112
aF0.122377653479139
aF0.0005986081241046003
aF1.0000062803524128
aF0.023280277136962957
aF74.87727834680274
aF0.6028845444658941
aF0.9959713560157939
aF0.740598209783607
aF0.0007339105583081035
aF0.0007256279369253817
aF2.0568561840514112
aF0.028203163354272753
aF0.122377653479139
aF0.0005986081241046003
aF74.87727834680274
aF0.6028845444658941
aF22.969000963662097
aF0.21639119024099962
aI0
aF36.74637091028717
aI19
aa(lp113
g109
ag42
aS'872'
p114
aF0.11867966492228274
aF0.0005938312890592085
aF0.9999977314752537
aF0.039056357022961175
aF75.86059064867398
aF0.6423936112945796
aF0.9959230441194258
aF0.7407640808834492
aF0.0006483514970246274
aF0.0007381493390373245
aF2.368231118307334
aF0.044894722650029806
aF0.11867966492228274
aF0.0005938312890592085
aF75.86059064867398
aF0.6423936112945796
aF22.567448779637424
aF0.22197112211721612
aI0
aF17.06899240247135
aI19
aa(lp115
g109
ag42
aS'1783'
p116
aF0.11739838971619886
aF0.0008637475491369638
aF0.7821197783098053
aF0.07700916410088421
aF77.42482012227332
aF0.8127064958919945
aF0.3537473644364335
aF0.3130265240544752
aF0.0009256722725315674
aF0.0007133751178174047
aF2.1366453011341795
aF0.030647726878545445
aF0.11739838971619886
aF0.0008637475491369638
aF77.42482012227332
aF0.8127064958919945
aF22.784121044465245
aF0.29205697508818773
aI0
aF42.81811318876306
aI19
aa(lp117
g109
ag42
aS'2063'
p118
aF0.1194671273696196
aF0.0005525420632842094
aF1.0000030531023962
aF0.0286552764429171
aF76.95752252099194
aF0.6212467763062506
aF0.9961071002505271
aF0.7401260178621616
aF0.0007865116943314021
aF0.0006994089482455726
aF2.1219588617366987
aF0.033042939737627286
aF0.1194671273696196
aF0.0005525420632842094
aF76.95752252099194
aF0.6212467763062506
aF23.045675017986127
aF0.21440888732872765
aI0
aF27.767203532900798
aI19
aa(lp119
g109
ag42
aS'sum'
p120
aF-0.0016223211989677222
aF0.0002145950843817578
aF1.1104348108614912
aF5.673275107344227e-05
aF0.4062550281277622
aF0.0002495932094891757
aF0.9708380049091884
aF2.5887727204078196e-05
aF0.0005535312247768221
aF0.0004216957458484638
aF4.2844878472836356e-05
aF0.00047042640485364364
aF-0.0016223211989677222
aF0.0002145950843817578
aF0.4062550281277622
aF0.0002495932094891757
aF-0.0016520588984845286
aF0.0002185310423887289
aI0
aF4.589493504268114e-08
aI19
aa(lp121
S'4'
p122
ag28
aS'41'
p123
aF0.1334987119112529
aF0.0006042492119568553
aF1.000001260956557
aF0.033683729536135076
aF73.02490402327894
aF0.43429291890203103
aF0.9899999996322895
aF0.7559345308748768
aF0.00036998637731889525
aF0.00067172891064187
aF2.279393672414847
aF0.051543513794462203
aF0.1334987119112529
aF0.0006042492119568553
aF73.02490402327894
aF0.43429291890203103
aF24.436443825259683
aF0.18263040781578568
aI0
aF27.9203789129059
aI19
aa(lp124
g122
ag28
aS'281'
p125
aF0.12988512376898528
aF0.0009889499814625014
aF0.7849497547663319
aF0.09204651308529177
aF76.59322552950717
aF0.5675531248392787
aF0.6875143141334392
aF0.6337325754861809
aF-0.0002715507415804039
aF0.0006442827502195684
aF2.124490972293065
aF0.06952387497340684
aF0.12988512376898528
aF0.0009889499814625014
aF76.59322552950717
aF0.5675531248392787
aF24.93674164532127
aF0.26494172947679756
aI0
aF18.737867149612917
aI19
aa(lp126
g122
ag28
aS'872'
p127
aF0.13073531636056193
aF0.0005938938971311321
aF0.9999986169013126
aF0.03592149739402084
aF76.40504360088735
aF0.4584053246678508
aF0.9900000001823428
aF0.7559345297691649
aF0.0008291510516367451
aF0.0006684311347357632
aF2.359793320949433
aF0.05077149649445212
aF0.13073531636056193
aF0.0005938938971311321
aF76.40504360088735
aF0.4584053246678508
aF25.038302625265345
aF0.18842447476109184
aI0
aF33.081340042224056
aI19
aa(lp128
g122
ag28
aS'1783'
p129
aF0.1310027030524956
aF0.0005749426963199154
aF1.0000015600272887
aF0.01911286267521084
aF77.04331315599384
aF0.4614865829654491
aF0.9899999998703244
aF0.7559345303963814
aF0.0011250799944721415
aF0.0006653339690737886
aF2.2068156775398236
aF0.03576625853396198
aF0.1310027030524956
aF0.0005749426963199154
aF77.04331315599384
aF0.4614865829654491
aF25.299104084428453
aF0.18786367304424756
aI0
aF35.005880486824005
aI19
aa(lp130
g122
ag28
aS'2063'
p131
aF0.12933918616554047
aF0.0005586058347710469
aF0.9999997509647973
aF0.029953031920217754
aF76.75970215770174
aF0.44239503542227965
aF0.9900000000102684
aF0.7559345301150673
aF0.0013549080067071797
aF0.00040055699605729816
aF2.1951215122739915
aF0.04718070137860675
aF0.12933918616554047
aF0.0005586058347710469
aF76.75970215770174
aF0.44239503542227965
aF24.885899276949058
aF0.17922960497978047
aI0
aF24.347173289722395
aI19
aa(lp132
g122
ag28
aS'sum'
p133
aF-0.001635865504572466
aF6.949721772387706e-05
aF0.998236627604641
aF4.879382104404455e-05
aF0.38182155816480046
aF0.00020326895333126364
aF0.9773692112549454
aF3.086940815187061e-05
aF-0.0025084573409344824
aF6.951455156049193e-05
aF4.2851083662531764e-05
aF0.00010662988048366612
aF-0.001635865504572466
aF6.949721772387706e-05
aF0.38182155816480046
aF0.00020326895333126364
aF-0.0015656618678656937
aF6.651994690421657e-05
aI0
aF4.5906638253827107e-08
aI19
aa(lp134
S'5'
p135
ag28
aS'41'
p136
aF0.1330639721733813
aF0.0005696162107946715
aF1.0000024071942162
aF0.05339096227760021
aF73.46307138405636
aF0.3451976400810679
aF0.9900000001400331
aF0.7559345298542158
aF-0.02005853454268336
aF0.0005299287389046121
aF2.346344813544885
aF0.0799738170169888
aF0.1330639721733813
aF0.0005696162107946715
aF73.46307138405636
aF0.3451976400810679
aF24.50301351008193
aF0.1557530492192681
aI0
aF14.734311331306785
aI13
aa(lp137
g135
ag28
aS'281'
p138
aF0.1337862313770766
aF0.0008929737382070913
aF1.9999999996467817
aF0.9230444751936406
aF77.87690332073619
aF0.5262641055457067
aF0.06124233237265342
aF0.015482088349395129
aF-0.018549170506855502
aF0.0005139188043994038
aF1.196930110455977
aF0.24243053933469788
aF0.1337862313770766
aF0.0008929737382070913
aF77.87690332073619
aF0.5262641055457067
aF26.116202564727757
aF0.24805774030206118
aI0
aF23.0940690288333
aI13
aa(lp139
g135
ag28
aS'872'
p140
aF0.1306657842586244
aF0.0005114915260299405
aF0.9999907869223605
aF0.04394285823812
aF78.15755491091019
aF0.3789332927227562
aF0.7547852510278039
aF0.5360575249316936
aF-0.018736925904262167
aF0.0005332488651424385
aF2.3085786932019268
aF0.05335998058813285
aF0.1306657842586244
aF0.0005114915260299405
aF78.15755491091019
aF0.3789332927227562
aF25.5989868957843
aF0.15951597919107324
aI0
aF17.55997919310302
aI13
aa(lp141
g135
ag28
aS'1783'
p142
aF0.1300881323113411
aF0.0005887282684233231
aF1.0000056916979894
aF0.08128315696215505
aF77.64084555813032
aF0.3835181546619637
aF0.9920112907273844
aF0.751608992085853
aF-0.01848915504898467
aF0.0005564212369069086
aF2.562599038316518
aF0.08758788434711762
aF0.1300881323113411
aF0.0005887282684233231
aF77.64084555813032
aF0.3835181546619637
aF25.317328059505883
aF0.16960954465514155
aI0
aF15.12607286636619
aI13
aa(lp143
g135
ag28
aS'2063'
p144
aF0.12823217106790114
aF0.0005809460400992287
aF1.0000011008006944
aF0.056572021767386405
aF77.56783414205375
aF0.369924776605977
aF0.9900000000117914
aF0.7559345301120055
aF-0.018871596381077535
aF0.0005301546453078658
aF2.5289226287950943
aF0.09845135345300138
aF0.12823217106790114
aF0.0005809460400992287
aF77.56783414205375
aF0.369924776605977
aF24.932658847444383
aF0.16400414595477814
aI0
aF16.3487367345865
aI13
aa(lp145
g135
ag28
aS'sum'
p146
aF0.00032728431148635944
aF1.4969529272405114e-07
aF0.5036345150237599
aF2.5783448290126144e-12
aF0.371001782424961
aF1.4986997287859966e-10
aF0.99
aF3.479709657244597e-11
aF0.01107250910833017
aF9.66121037381608e-09
aF3.807620885254437e-11
aF4.585188967303589e-10
aF0.00032728431148635944
aF1.4969529272405114e-07
aF0.371001782424961
aF1.4986997287859966e-10
aF0.0003043624827104925
aF1.3921116700237192e-07
aI0
aF2.7546155931068985e-20
aI13
aa(lp147
S'6'
p148
ag42
aS'41'
p149
aF0.12014231294258541
aF0.0004962312109176778
aF1.000000901111311
aF0.05930968871627995
aF74.15877792738723
aF0.36393712082171703
aF0.9927514307818827
aF0.7498507733442031
aF-0.010367649709986342
aF0.0005015923101890513
aF2.296022083078189
aF0.07474604508217286
aF0.12014231294258541
aF0.0004962312109176778
aF74.15877792738723
aF0.36393712082171703
aF22.333073085727154
aF0.14325205077637806
aI0
aF13.092740809701972
aI13
aa(lp150
g148
ag42
aS'281'
p151
aF0.11898671349894496
aF0.00046934827207710213
aF1.000002353514767
aF0.04024160107511365
aF75.99134930396701
aF0.3745372964246201
aF0.9899999998028464
aF0.7559345305320251
aF-0.010074464715115264
aF0.0004950554644918673
aF2.279192770656897
aF0.05467786670443986
aF0.11898671349894496
aF0.00046934827207710213
aF75.99134930396701
aF0.3745372964246201
aF22.664834870174623
aF0.14307838870977005
aI0
aF12.63721696313248
aI13
aa(lp152
g148
ag42
aS'872'
p153
aF0.11838614361249959
aF0.000680544371116677
aF1.9999999999999911
aF1.1898826939118283
aF77.5483700167794
aF0.5094823384823357
aF0.013137823211081645
aF0.012112933878647647
aF-0.009054307375142361
aF0.0005167028828861505
aF2.1367646510010196
aF0.1919074023153844
aF0.11838614361249959
aF0.000680544371116677
aF77.5483700167794
aF0.5094823384823357
aF23.012483060165344
aF0.20089322909560242
aI0
aF27.111421558391648
aI13
aa(lp154
g148
ag42
aS'1783'
p155
aF0.11677492776951975
aF0.0004554547764210571
aF1.0000012911151654
aF0.027864602669567473
aF77.9549152234625
aF0.38756811091274557
aF0.23144113000401662
aF0.6692142384053994
aF-0.009165424477235529
aF0.000370905409933606
aF2.3111414081929675
aF0.04467806627169946
aF0.11677492776951975
aF0.0004554547764210571
aF77.9549152234625
aF0.38756811091274557
aF22.818287360614832
aF0.14418906690870767
aI0
aF23.847902907516747
aI13
aa(lp156
g148
ag42
aS'2063'
p157
aF0.11830882934664967
aF0.00043395564110596847
aF1.0000016941926524
aF0.02576135981794675
aF78.40678908815768
aF0.3845844182067708
aF0.9900836812792253
aF0.853968131781415
aF-0.010227323175239408
aF0.0004831021915665197
aF2.0744303158994546
aF0.04089133171999593
aF0.11830882934664967
aF0.00043395564110596847
aF78.40678908815768
aF0.3845844182067708
aF23.252023878029366
aF0.14241379194299736
aI0
aF19.160991216472567
aI13
aa(lp158
g148
ag42
aS'sum'
p159
aF0.0047264968605603384
aF15.360215476351463
aF0.5565275093988561
aF1.4970670082735685e-10
aF4.430625796957145
aF2.936118392765992e-09
aF0.98366453095593
aF5.174154595487044e-10
aF0.7479787551694685
aF0.006656356178780093
aF5.582057038822086e-10
aF6.725567603824683e-09
aF0.0047264968605603384
aF15.360215476351463
aF4.430625796957145
aF2.936118392765992e-09
aF0.052492152244589176
aF170.5895070030255
aI0
aF5.920278549086007e-18
aI13
aa(lp160
S'7'
p161
ag28
aS'41'
p162
aF0.1347703053254218
aF0.0006783210431551075
aF1.000017543510206
aF0.07193251809945389
aF73.25961048186943
aF0.34986582479459116
aF0.4689211178712248
aF0.5294146330582103
aF-0.005846414134072693
aF0.0005986369164448397
aF2.4444328908238355
aF0.1051562407527431
aF0.1347703053254218
aF0.0006783210431551075
aF73.25961048186943
aF0.34986582479459116
aF24.74849259579145
aF0.1717125203366791
aI0
aF23.38271031657186
aI13
aa(lp163
g161
ag28
aS'281'
p164
aF0.13029585332452737
aF0.0005894501496100892
aF1.0000015940091775
aF0.05645978921364153
aF76.42186246562356
aF0.3646593048259277
aF0.9918354548551758
aF0.7520120734234266
aF-0.004826582894773339
aF0.0005588246190242595
aF2.5987993317261604
aF0.08745067034848653
aF0.13029585332452737
aF0.0005894501496100892
aF76.42186246562356
aF0.3646593048259277
aF24.9596301815603
aF0.16411741579163666
aI0
aF13.061823382051854
aI13
aa(lp165
g161
ag28
aS'872'
p166
aF0.13164372306688704
aF0.0006152388871406434
aF1.0000014974509546
aF0.05846525425115273
aF77.46212331281853
aF0.3843176851736061
aF0.9900000000901161
aF0.755934529954558
aF-0.006303406904066023
aF0.0005752685436650957
aF2.48365475856399
aF0.0949707013256258
aF0.13164372306688704
aF0.0006152388871406434
aF77.46212331281853
aF0.3843176851736061
aF25.56109695694494
aF0.17422256896030552
aI0
aF15.097474800061729
aI13
aa(lp167
g161
ag28
aS'1783'
p168
aF0.13122002395733426
aF0.0005882920218178385
aF1.0000017837086852
aF0.057587651216842506
aF78.36842815100994
aF0.3888312518247332
aF0.9899999999543179
aF0.7559345302275384
aF-0.004741419709939498
aF0.0005827802610285774
aF2.513069800512844
aF0.08420615668273923
aF0.13122002395733426
aF0.0005882920218178385
aF78.36842815100994
aF0.3888312518247332
aF25.776929457380277
aF0.17237192830220002
aI0
aF8.95976208225014
aI13
aa(lp169
g161
ag28
aS'2063'
p170
aF0.12922677610304864
aF0.000601459093127856
aF1.000001287144683
aF0.07006581119422184
aF77.61836417182558
aF0.3739469131937838
aF0.9918505102467159
aF0.7519777683363932
aF-0.004912273331663846
aF0.0005585383985550486
aF2.545085290613766
aF0.10450762144909143
aF0.12922677610304864
aF0.000601459093127856
aF77.61836417182558
aF0.3739469131937838
aF25.142411474222307
aF0.1684227709309106
aI0
aF16.752209525363906
aI13
aa(lp171
g161
ag28
aS'sum'
p172
aF0.00038066714377987836
aF5.848612301883036e-05
aF0.6915993101063618
aF3.5182093558241107e-05
aF1.1
aF0.00013253274170675137
aF0.99
aF3.491941891709777e-05
aF0.0
aF6.532775068083961e-05
aF3.816727170258272e-05
aF0.00032588504785997546
aF0.00038066714377987836
aF5.848612301883036e-05
aF1.1
aF0.00013253274170675137
aF0.0010496101284038343
aF0.00016126331618093747
aI0
aF2.7740175176886084e-08
aI13
aa(lp173
S'8'
p174
ag42
aS'41'
p175
aF0.11842845812228205
aF0.0004967808683826558
aF1.0000015529467334
aF0.04288718953419135
aF74.30914935151009
aF0.37374015528256876
aF0.019052221306957717
aF0.8725742537798875
aF-0.0008738822466156343
aF0.0005047549641467447
aF2.296243840065541
aF0.06306499115721587
aF0.11842845812228205
aF0.0004967808683826558
aF74.30914935151009
aF0.37374015528256876
aF22.059125879619625
aF0.14447014277281764
aI0
aF14.855384857284731
aI13
aa(lp176
g174
ag42
aS'281'
p177
aF0.1161084060268213
aF0.0004538743336577712
aF0.9999990356323415
aF0.04500523461491057
aF77.40459171437477
aF0.38433093134577234
aF0.9900282899373725
aF0.7657063439496807
aF-0.0014820694636873825
aF0.0004808619064192211
aF2.3703944217851314
aF0.059075203604771476
aF0.1161084060268213
aF0.0004538743336577712
aF77.40459171437477
aF0.38433093134577234
aF22.527879857882017
aF0.14236149041204643
aI0
aF18.597425575956866
aI13
aa(lp178
g174
ag42
aS'872'
p179
aF0.11583560655193369
aF0.00048078657691855327
aF1.0000016399437726
aF0.02456699919055355
aF78.39476666186802
aF0.41037585625051065
aF0.024192772870212265
aF0.7438472925488666
aF-0.0008765823200891727
aF0.0005209645481216614
aF2.4655796968309796
aF0.05726042814314747
aF0.11583560655193369
aF0.00048078657691855327
aF78.39476666186802
aF0.41037585625051065
aF22.76245410147352
aF0.15206594558396874
aI0
aF20.03412051112011
aI13
aa(lp180
g174
ag42
aS'1783'
p181
aF0.11476410262704352
aF0.0004695009720959636
aF1.000001334140927
aF0.0125501163529948
aF78.01832929254283
aF0.40308246841286177
aF0.9937231957507694
aF0.7754353011677397
aF-0.0010025158854267686
aF0.0005048016450553207
aF2.4957901412391847
aF0.05887776943376921
aF0.11476410262704352
aF0.0004695009720959636
aF78.01832929254283
aF0.40308246841286177
aF22.443606480391757
aF0.147905203316662
aI0
aF17.64462955921362
aI13
aa(lp182
g174
ag42
aS'2063'
p183
aF0.11567219800943558
aF0.00044767093830682693
aF1.000001828838177
aF0.029968067260315534
aF78.45523757401509
aF0.3922471565530259
aF0.9900000003811329
aF0.7559345293695593
aF-8.316373921415742e-05
aF0.0004925117944429404
aF2.1752290150956504
aF0.0445204175315328
aF0.11567219800943558
aF0.00044767093830682693
aF78.45523757401509
aF0.3922471565530259
aF22.74787662618021
aF0.14382435034370003
aI0
aF14.189769443248263
aI13
aa(lp184
g174
ag42
aS'sum'
p185
aF-0.00022170045317860545
aF1.3961229381901598e-05
aF0.519914584003579
aF9.624402925954659e-06
aF1.1
aF2.8369802142893648e-05
aF0.99
aF7.474809527144324e-06
aF-0.0008493247607161265
aF1.3983981115051443e-05
aF8.179195335467071e-06
aF7.000746900240214e-05
aF-0.00022170045317860545
aF1.3961229381901598e-05
aF1.1
aF2.8369802142893648e-05
aF-0.0006112926868795986
aF3.8495176777426935e-05
aI0
aF1.2710875019559945e-09
aI13
aa(lp186
S'9'
p187
ag28
aS'41'
p188
aF0.13282919435286308
aF0.0008136103077433715
aF1.2881042834273204
aF0.05284366625518233
aF76.56722924153262
aF0.5490778770170905
aF0.48811902532091295
aF0.36301087485034356
aF0.0037047248479791794
aF0.0006597216402047291
aF2.053192059458882
aF0.043040849330952646
aF0.13282919435286308
aF0.0008136103077433715
aF76.56722924153262
aF0.5490778770170905
aF25.493320396499225
aF0.24042842849304935
aI0
aF30.55255233551029
aI19
aa(lp189
g187
ag28
aS'281'
p190
aF0.1312786095406102
aF0.000572462616451727
aF0.9999985778411526
aF0.045727592472232015
aF78.0347917565891
aF0.4540511818592776
aF0.9945353076799175
aF0.7451175150587566
aF0.003331082832001455
aF0.0006525239013788122
aF2.3247550939041197
aF0.05221347677747534
aF0.1312786095406102
aF0.000572462616451727
aF78.0347917565891
aF0.4540511818592776
aF25.67864942088324
aF0.1867161625700605
aI0
aF21.254484187693144
aI19
aa(lp191
g187
ag28
aS'872'
p192
aF0.13105646427690446
aF0.0005852788141912432
aF0.9999924527845467
aF0.055953709895087134
aF78.393118860461
aF0.466577700575705
aF0.9941023403365747
aF0.7463414345396349
aF0.0034192628420270156
aF0.0006772292705483497
aF2.532567498037314
aF0.05949367472445699
aF0.13105646427690446
aF0.0005852788141912432
aF78.393118860461
aF0.466577700575705
aF25.75291085004345
aF0.19162551465647143
aI0
aF18.51897731839027
aI19
aa(lp193
g187
ag28
aS'1783'
p194
aF0.13113303805737844
aF0.0011266121851452612
aF1.6900060083363113
aF0.47763270406425995
aF80.33923521179032
aF0.5376573785618532
aF0.04037530121352223
aF0.044802169049348306
aF0.0023817775698033684
aF0.0006682064241345333
aF2.0998672530032403
aF0.17428207674385898
aF0.13113303805737844
aF0.0011266121851452612
aF80.33923521179032
aF0.5376573785618532
aF26.40764969290165
aF0.2875876736315551
aI0
aF29.772147629635896
aI19
aa(lp195
g187
ag28
aS'2063'
p196
aF0.1316089950368057
aF0.0005541329139144078
aF1.0000018409647353
aF0.03804826046465365
aF79.11359980881714
aF0.459596370777156
aF0.9946506604053399
aF0.7447819553737292
aF0.0023361411872128476
aF0.0006643368418788149
aF2.1328398975475986
aF0.04394086861961122
aF0.1316089950368057
aF0.0005541329139144078
aF79.11359980881714
aF0.459596370777156
aF26.099167413655397
aF0.18725329447294015
aI0
aF23.78199846470066
aI19
aa(lp197
g187
ag28
aS'sum'
p198
aF-0.0011218503702887699
aF2.2819396731995342e-05
aF0.6915993101063618
aF0.00010578603983844008
aF1.1
aF0.0003985008578249212
aF0.99
aF0.00010499568195359172
aF0.0
aF0.00019642808258633584
aF8.854814983305648e-05
aF0.000969175843881645
aF-0.0011218503702887699
aF2.2819396731995342e-05
aF1.1
aF0.0003985008578249212
aF-0.0030932680438781972
aF6.292969787564367e-05
aI0
aF3.665480891834143e-07
aI19
aa.