(lp0
(lp1
S'XscanNumber_YscanNumber'
p2
aS'Type'
p3
aS'BCID'
p4
aS'xsec'
p5
aS'xsecErr'
p6
aS'normChange'
p7
aS'normChangeErr'
p8
aa(lp9
S'1_2'
p10
aS'XY'
p11
aS'sum'
p12
aF-97.172959978437
aF-0.014626435630271098
aF-999.0
aF-999.0
aa(lp13
S'1_2'
p14
ag11
aS'1783'
p15
aF7464849.010657707
aF43123.034387406726
aF-999.0
aF-999.0
aa(lp16
S'1_2'
p17
ag11
aS'872'
p18
aF7513164.525143841
aF60376.59927482119
aF-999.0
aF-999.0
aa(lp19
S'1_2'
p20
ag11
aS'41'
p21
aF7487926.55549102
aF54056.7809772579
aF-999.0
aF-999.0
aa(lp22
S'1_2'
p23
ag11
aS'281'
p24
aF7520249.775267566
aF55431.6193988204
aF-999.0
aF-999.0
aa(lp25
S'1_2'
p26
ag11
aS'2063'
p27
aF7415894.850412083
aF58289.76846103923
aF-999.0
aF-999.0
aa(lp28
S'4_3'
p29
ag11
aS'sum'
p30
aF6.570565291965874
aF0.9128618057245215
aF-999.0
aF-999.0
aa(lp31
S'4_3'
p32
ag11
aS'1783'
p33
aF7463304.614244667
aF78275.80328350388
aF-999.0
aF-999.0
aa(lp34
S'4_3'
p35
ag11
aS'872'
p36
aF7422000.891315673
aF63211.492625713516
aF-999.0
aF-999.0
aa(lp37
S'4_3'
p38
ag11
aS'41'
p39
aF7486387.682775459
aF62781.95472582611
aF-999.0
aF-999.0
aa(lp40
S'4_3'
p41
ag11
aS'281'
p42
aF7563790.2491964875
aF79969.650526154
aF-999.0
aF-999.0
aa(lp43
S'4_3'
p44
ag11
aS'2063'
p45
aF7461926.251709556
aF60002.72080327512
aF-999.0
aF-999.0
aa(lp46
S'5_6'
p47
ag11
aS'sum'
p48
aF23.33473680212131
aF75833.45465758818
aF-999.0
aF-999.0
aa(lp49
S'5_6'
p50
ag11
aS'1783'
p51
aF7425657.584839211
aF51432.07928342802
aF-999.0
aF-999.0
aa(lp52
S'5_6'
p53
ag11
aS'872'
p54
aF7566895.992696525
aF61005.27539638132
aF-999.0
aF-999.0
aa(lp55
S'5_6'
p56
ag11
aS'41'
p57
aF7414075.197591801
aF50790.91773332137
aF-999.0
aF-999.0
aa(lp58
S'5_6'
p59
ag11
aS'281'
p60
aF7695002.831156475
aF67844.05918929563
aF-999.0
aF-999.0
aa(lp61
S'5_6'
p62
ag11
aS'2063'
p63
aF7433921.4915682515
aF50245.52851773115
aF-999.0
aF-999.0
aa(lp64
S'7_8'
p65
ag11
aS'sum'
p66
aF-0.5832899959709276
aF-0.09685291583413397
aF-999.0
aF-999.0
aa(lp67
S'7_8'
p68
ag11
aS'1783'
p69
aF7398710.3494804725
aF52139.20137478314
aF-999.0
aF-999.0
aa(lp70
S'7_8'
p71
ag11
aS'872'
p72
aF7466517.923599129
aF53884.45334149289
aF-999.0
aF-999.0
aa(lp73
S'7_8'
p74
ag11
aS'41'
p75
aF7399367.325816972
aF54857.32178663676
aF-999.0
aF-999.0
aa(lp76
S'7_8'
p77
ag11
aS'281'
p78
aF7310972.653995648
aF50445.06155153421
aF-999.0
aF-999.0
aa(lp79
S'7_8'
p80
ag11
aS'2063'
p81
aF7329271.733479459
aF51146.32185408936
aF-999.0
aF-999.0
aa(lp82
S'9_10'
p83
ag11
aS'sum'
p84
aF-2.7674706975760217
aF-0.4466539552096071
aF-999.0
aF-999.0
aa(lp85
S'9_10'
p86
ag11
aS'1783'
p87
aF7501079.368589527
aF80447.52462360945
aF-999.0
aF-999.0
aa(lp88
S'9_10'
p89
ag11
aS'872'
p90
aF7432514.77875361
aF57229.30317836124
aF-999.0
aF-999.0
aa(lp91
S'9_10'
p92
ag11
aS'41'
p93
aF7425370.604368741
aF65781.26425033799
aF-999.0
aF-999.0
aa(lp94
S'9_10'
p95
ag11
aS'281'
p96
aF7489422.3059101
aF56809.3325366508
aF-999.0
aF-999.0
aa(lp97
S'9_10'
p98
ag11
aS'2063'
p99
aF7588908.031270078
aF57465.55339760773
aF-999.0
aF-999.0
aa(lp100
S'11_12'
p101
ag11
aS'sum'
p102
aF-0.5015601644327693
aF-0.4633116249291943
aF-999.0
aF-999.0
aa(lp103
S'11_12'
p104
ag11
aS'1783'
p105
aF7592087.762969932
aF58449.08416803752
aF-999.0
aF-999.0
aa(lp106
S'11_12'
p107
ag11
aS'872'
p108
aF7578075.156837951
aF57384.07268916681
aF-999.0
aF-999.0
aa(lp109
S'11_12'
p110
ag11
aS'41'
p111
aF7553280.89025762
aF54801.97813943407
aF-999.0
aF-999.0
aa(lp112
S'11_12'
p113
ag11
aS'281'
p114
aF7610918.884105048
aF55570.1289655998
aF-999.0
aF-999.0
aa(lp115
S'11_12'
p116
ag11
aS'2063'
p117
aF7603641.556737652
aF74335.00447315493
aF-999.0
aF-999.0
aa.