(dp0
S'Angle'
p1
S'0.0'
p2
sS'Scan_20'
p3
(lp4
(lp5
I20
aVB2X5
p6
aI1
acnumpy.core.multiarray
scalar
p7
(cnumpy
dtype
p8
(S'f8'
p9
I0
I1
tp10
Rp11
(I3
S'<'
p12
NNNI-1
I-1
I0
tp13
bS'\x00\x00\x00\xc5\x19\xce\xd6A'
p14
tp15
Rp16
ag7
(g11
S'\x00\x00\x00\xd0\x19\xce\xd6A'
p17
tp18
Rp19
aF-0.123024
aa(lp20
I20
ag6
aI2
ag7
(g11
S'\x00\x00@\xd6\x19\xce\xd6A'
p21
tp22
Rp23
ag7
(g11
S'\x00\x00\x80\xe1\x19\xce\xd6A'
p24
tp25
Rp26
aF0.0
aa(lp27
I20
ag6
aI3
ag7
(g11
S'\x00\x00\xc0\xe7\x19\xce\xd6A'
p28
tp29
Rp30
ag7
(g11
S'\x00\x00\xc0\xf2\x19\xce\xd6A'
p31
tp32
Rp33
aF0.123024
aasS'Scan_4'
p34
(lp35
(lp36
I4
aVB1Y4
p37
aI1
ag7
(g11
S'\x00\x00\xc0\xf5\x14\xce\xd6A'
p38
tp39
Rp40
ag7
(g11
S'\x00\x00\x00\x01\x15\xce\xd6A'
p41
tp42
Rp43
aF0.123024
aa(lp44
I4
ag37
aI2
ag7
(g11
S'\x00\x00\x00\x07\x15\xce\xd6A'
p45
tp46
Rp47
ag7
(g11
S'\x00\x00\x80\x12\x15\xce\xd6A'
p48
tp49
Rp50
aF-0.0
aa(lp51
I4
ag37
aI3
ag7
(g11
S'\x00\x00\x00\x19\x15\xce\xd6A'
p52
tp53
Rp54
ag7
(g11
S'\x00\x00@$\x15\xce\xd6A'
p55
tp56
Rp57
aF-0.123024
aasS'Scan_5'
p58
(lp59
(lp60
I5
aVB1Y5
p61
aI1
ag7
(g11
S'\x00\x00@+\x15\xce\xd6A'
p62
tp63
Rp64
ag7
(g11
S'\x00\x00\x806\x15\xce\xd6A'
p65
tp66
Rp67
aF0.123024
aa(lp68
I5
ag61
aI2
ag7
(g11
S'\x00\x00\xc0<\x15\xce\xd6A'
p69
tp70
Rp71
ag7
(g11
S'\x00\x00\x00H\x15\xce\xd6A'
p72
tp73
Rp74
aF-0.0
aa(lp75
I5
ag61
aI3
ag7
(g11
S'\x00\x00\x80N\x15\xce\xd6A'
p76
tp77
Rp78
ag7
(g11
S'\x00\x00\x80Y\x15\xce\xd6A'
p79
tp80
Rp81
aF-0.123024
aasS'Scan_6'
p82
(lp83
(lp84
I6
aVB1X1
p85
aI1
ag7
(g11
S'\x00\x00\xc0\xc3\x15\xce\xd6A'
p86
tp87
Rp88
ag7
(g11
S'\x00\x00\x00\xcf\x15\xce\xd6A'
p89
tp90
Rp91
aF0.123024
aa(lp92
I6
ag85
aI2
ag7
(g11
S'\x00\x00\x80\xd5\x15\xce\xd6A'
p93
tp94
Rp95
ag7
(g11
S'\x00\x00\x00\xe1\x15\xce\xd6A'
p96
tp97
Rp98
aF-0.0
aa(lp99
I6
ag85
aI3
ag7
(g11
S'\x00\x00\xc0\xe7\x15\xce\xd6A'
p100
tp101
Rp102
ag7
(g11
S'\x00\x00\xc0\xf2\x15\xce\xd6A'
p103
tp104
Rp105
aF-0.123024
aasS'Scan_7'
p106
(lp107
(lp108
I7
aVB1X2
p109
aI1
ag7
(g11
S'\x00\x00\xc0\xf9\x15\xce\xd6A'
p110
tp111
Rp112
ag7
(g11
S'\x00\x00\x00\x05\x16\xce\xd6A'
p113
tp114
Rp115
aF0.123024
aa(lp116
I7
ag109
aI2
ag7
(g11
S'\x00\x00\x00\x0c\x16\xce\xd6A'
p117
tp118
Rp119
ag7
(g11
S'\x00\x00\xc0\x16\x16\xce\xd6A'
p120
tp121
Rp122
aF-0.0
aa(lp123
I7
ag109
aI3
ag7
(g11
S'\x00\x00\xc0\x1d\x16\xce\xd6A'
p124
tp125
Rp126
ag7
(g11
S'\x00\x00\x00)\x16\xce\xd6A'
p127
tp128
Rp129
aF-0.123024
aasS'Scan_1'
p130
(lp131
(lp132
I1
aVB1Y1
p133
aI1
ag7
(g11
S'\x00\x00\x00U\x14\xce\xd6A'
p134
tp135
Rp136
ag7
(g11
S'\x00\x00@`\x14\xce\xd6A'
p137
tp138
Rp139
aF0.123024
aa(lp140
I1
ag133
aI2
ag7
(g11
S'\x00\x00\x80f\x14\xce\xd6A'
p141
tp142
Rp143
ag7
(g11
S'\x00\x00\xc0q\x14\xce\xd6A'
p144
tp145
Rp146
aF-0.0
aa(lp147
I1
ag133
aI3
ag7
(g11
S'\x00\x00@x\x14\xce\xd6A'
p148
tp149
Rp150
ag7
(g11
S'\x00\x00@\x83\x14\xce\xd6A'
p151
tp152
Rp153
aF-0.123024
aasS'Scan_2'
p154
(lp155
(lp156
I2
aVB1Y2
p157
aI1
ag7
(g11
S'\x00\x00\x80\x8a\x14\xce\xd6A'
p158
tp159
Rp160
ag7
(g11
S'\x00\x00\xc0\x95\x14\xce\xd6A'
p161
tp162
Rp163
aF0.123024
aa(lp164
I2
ag157
aI2
ag7
(g11
S'\x00\x00\x80\x9c\x14\xce\xd6A'
p165
tp166
Rp167
ag7
(g11
S'\x00\x00@\xa7\x14\xce\xd6A'
p168
tp169
Rp170
aF-0.0
aa(lp171
I2
ag157
aI3
ag7
(g11
S'\x00\x00\xc0\xad\x14\xce\xd6A'
p172
tp173
Rp174
ag7
(g11
S'\x00\x00@\xb9\x14\xce\xd6A'
p175
tp176
Rp177
aF-0.123024
aasS'Scan_3'
p178
(lp179
(lp180
I3
aVB1Y3
p181
aI1
ag7
(g11
S'\x00\x00\x00\xc0\x14\xce\xd6A'
p182
tp183
Rp184
ag7
(g11
S'\x00\x00@\xcb\x14\xce\xd6A'
p185
tp186
Rp187
aF0.123024
aa(lp188
I3
ag181
aI2
ag7
(g11
S'\x00\x00\x00\xd2\x14\xce\xd6A'
p189
tp190
Rp191
ag7
(g11
S'\x00\x00\xc0\xdc\x14\xce\xd6A'
p192
tp193
Rp194
aF-0.0
aa(lp195
I3
ag181
aI3
ag7
(g11
S'\x00\x00\x80\xe3\x14\xce\xd6A'
p196
tp197
Rp198
ag7
(g11
S'\x00\x00\xc0\xee\x14\xce\xd6A'
p199
tp200
Rp201
aF-0.123024
aasS'Scan_8'
p202
(lp203
(lp204
I8
aVB1X3
p205
aI1
ag7
(g11
S'\x00\x00\x000\x16\xce\xd6A'
p206
tp207
Rp208
ag7
(g11
S'\x00\x00\x00;\x16\xce\xd6A'
p209
tp210
Rp211
aF0.123024
aa(lp212
I8
ag205
aI2
ag7
(g11
S'\x00\x00\xc0A\x16\xce\xd6A'
p213
tp214
Rp215
ag7
(g11
S'\x00\x00\xc0L\x16\xce\xd6A'
p216
tp217
Rp218
aF-0.0
aa(lp219
I8
ag205
aI3
ag7
(g11
S'\x00\x00\xc0S\x16\xce\xd6A'
p220
tp221
Rp222
ag7
(g11
S'\x00\x00\x00_\x16\xce\xd6A'
p223
tp224
Rp225
aF-0.123024
aasS'Scan_9'
p226
(lp227
(lp228
I9
aVB1X4
p229
aI1
ag7
(g11
S'\x00\x00\x80e\x16\xce\xd6A'
p230
tp231
Rp232
ag7
(g11
S'\x00\x00\xc0p\x16\xce\xd6A'
p233
tp234
Rp235
aF0.123024
aa(lp236
I9
ag229
aI2
ag7
(g11
S'\x00\x00@w\x16\xce\xd6A'
p237
tp238
Rp239
ag7
(g11
S'\x00\x00\xc0\x82\x16\xce\xd6A'
p240
tp241
Rp242
aF-0.0
aa(lp243
I9
ag229
aI3
ag7
(g11
S'\x00\x00\x80\x89\x16\xce\xd6A'
p244
tp245
Rp246
ag7
(g11
S'\x00\x00\xc0\x94\x16\xce\xd6A'
p247
tp248
Rp249
aF-0.123024
aasS'Run'
p250
(lp251
g7
(g8
(S'i8'
p252
I0
I1
tp253
Rp254
(I3
S'<'
p255
NNNI-1
I-1
I0
tp256
bS'+\xde\x04\x00\x00\x00\x00\x00'
p257
tp258
Rp259
ag7
(g254
S'+\xde\x04\x00\x00\x00\x00\x00'
p260
tp261
Rp262
ag7
(g254
S'+\xde\x04\x00\x00\x00\x00\x00'
p263
tp264
Rp265
ag7
(g254
S'+\xde\x04\x00\x00\x00\x00\x00'
p266
tp267
Rp268
ag7
(g254
S'+\xde\x04\x00\x00\x00\x00\x00'
p269
tp270
Rp271
ag7
(g254
S'+\xde\x04\x00\x00\x00\x00\x00'
p272
tp273
Rp274
ag7
(g254
S'+\xde\x04\x00\x00\x00\x00\x00'
p275
tp276
Rp277
ag7
(g254
S'+\xde\x04\x00\x00\x00\x00\x00'
p278
tp279
Rp280
ag7
(g254
S'+\xde\x04\x00\x00\x00\x00\x00'
p281
tp282
Rp283
ag7
(g254
S'+\xde\x04\x00\x00\x00\x00\x00'
p284
tp285
Rp286
ag7
(g254
S'+\xde\x04\x00\x00\x00\x00\x00'
p287
tp288
Rp289
ag7
(g254
S'+\xde\x04\x00\x00\x00\x00\x00'
p290
tp291
Rp292
ag7
(g254
S'+\xde\x04\x00\x00\x00\x00\x00'
p293
tp294
Rp295
ag7
(g254
S'+\xde\x04\x00\x00\x00\x00\x00'
p296
tp297
Rp298
ag7
(g254
S'+\xde\x04\x00\x00\x00\x00\x00'
p299
tp300
Rp301
ag7
(g254
S'+\xde\x04\x00\x00\x00\x00\x00'
p302
tp303
Rp304
ag7
(g254
S'+\xde\x04\x00\x00\x00\x00\x00'
p305
tp306
Rp307
ag7
(g254
S'+\xde\x04\x00\x00\x00\x00\x00'
p308
tp309
Rp310
ag7
(g254
S'+\xde\x04\x00\x00\x00\x00\x00'
p311
tp312
Rp313
ag7
(g254
S'+\xde\x04\x00\x00\x00\x00\x00'
p314
tp315
Rp316
asS'Scan_18'
p317
(lp318
(lp319
I18
aVB2X3
p320
aI1
ag7
(g11
S'\x00\x00\xc0[\x19\xce\xd6A'
p321
tp322
Rp323
ag7
(g11
S'\x00\x00\xc0f\x19\xce\xd6A'
p324
tp325
Rp326
aF-0.123024
aa(lp327
I18
ag320
aI2
ag7
(g11
S'\x00\x00\x00m\x19\xce\xd6A'
p328
tp329
Rp330
ag7
(g11
S'\x00\x00@x\x19\xce\xd6A'
p331
tp332
Rp333
aF0.0
aa(lp334
I18
ag320
aI3
ag7
(g11
S'\x00\x00\x80~\x19\xce\xd6A'
p335
tp336
Rp337
ag7
(g11
S'\x00\x00\xc0\x89\x19\xce\xd6A'
p338
tp339
Rp340
aF0.123024
aasS'EnergyB2'
p341
S'6499'
p342
sS'EnergyB1'
p343
S'6499'
p344
sS'CollidingBunches'
p345
(lp346
I13
aI34
aI55
aI76
aI97
aI118
aI139
aI160
aI181
aI202
aI223
aI244
aI265
aI286
aI307
aI328
aI718
aI739
aI760
aI781
aI802
aI823
aI844
aI865
aI897
aI918
aI939
aI960
aI981
aI1002
aI1023
aI1044
aI1065
aI1086
aI1107
aI1128
aI1149
aI1170
aI1191
aI1212
aI1254
aI1275
aI1296
aI1317
aI1338
aI1359
aI1380
aI1401
aI1433
aI1454
aI1475
aI1496
aI1517
aI1538
aI1559
aI1580
aI1601
aI1622
aI1643
aI1664
aI1685
aI1706
aI1727
aI1748
aI1780
aI1801
aI1822
aI1843
aI1864
aI1885
aI1906
aI1927
aI1948
aI1969
aI1990
aI2011
aI2032
aI2053
aI2074
aI2095
aI2129
aI2150
aI2171
aI2192
aI2213
aI2234
aI2255
aI2276
aI2297
aI2318
aI2339
aI2360
aI2381
aI2402
aI2423
aI2444
aI2865
aI2886
aI2907
aI2928
aI2949
aI2970
aI2991
aI3012
aI3033
aI3054
aI3075
aI3096
aI3128
aI3149
aI3170
aI3191
aI3212
aI3233
aI3254
aI3275
aI3296
aI3317
aI3338
aI3359
aI3380
aI3401
aI3422
aI3443
asS'Offset'
p347
(lp348
F0.0
aF0.0
aF0.0
aF0.0
aF0.0
aF0.0
aF0.0
aF0.0
aF0.0
aF0.0
aF0.0
aF0.0
aF0.0
aF0.0
aF0.0
aF0.0
aF0.0
aF0.0
aF0.0
aF0.0
asS'ScanNames'
p349
(lp350
g133
ag157
ag181
ag37
ag61
ag85
ag109
ag205
ag229
aVB1X5
p351
aVB2Y1
p352
aVB2Y2
p353
aVB2Y3
p354
aVB2Y4
p355
aVB2Y5
p356
aVB2X1
p357
aVB2X2
p358
ag320
aVB2X4
p359
ag6
asS'ScanTimeWindows'
p360
(lp361
(lp362
I1530417492
aI1530417677
aa(lp363
I1530417706
aI1530417893
aa(lp364
I1530417920
aI1530418107
aa(lp365
I1530418135
aI1530418321
aa(lp366
I1530418349
aI1530418534
aa(lp367
I1530418959
aI1530419147
aa(lp368
I1530419175
aI1530419364
aa(lp369
I1530419392
aI1530419580
aa(lp370
I1530419606
aI1530419795
aa(lp371
I1530419822
aI1530420011
aa(lp372
I1530420649
aI1530420840
aa(lp373
I1530420869
aI1530421060
aa(lp374
I1530421089
aI1530421279
aa(lp375
I1530421308
aI1530421499
aa(lp376
I1530421526
aI1530421717
aa(lp377
I1530422217
aI1530422402
aa(lp378
I1530422428
aI1530422612
aa(lp379
I1530422639
aI1530422823
aa(lp380
I1530422849
aI1530423033
aa(lp381
I1530423060
aI1530423243
aasS'ParticleTypeB2'
p382
S'proton'
p383
sS'BetaStar'
p384
S'19.17'
p385
sS'ParticleTypeB1'
p386
S'proton'
p387
sS'Scan_16'
p388
(lp389
(lp390
I16
ag357
aI1
ag7
(g11
S'\x00\x00@\xf2\x18\xce\xd6A'
p391
tp392
Rp393
ag7
(g11
S'\x00\x00@\xfd\x18\xce\xd6A'
p394
tp395
Rp396
aF-0.123024
aa(lp397
I16
ag357
aI2
ag7
(g11
S'\x00\x00\xc0\x03\x19\xce\xd6A'
p398
tp399
Rp400
ag7
(g11
S'\x00\x00\x00\x0f\x19\xce\xd6A'
p401
tp402
Rp403
aF0.0
aa(lp404
I16
ag357
aI3
ag7
(g11
S'\x00\x00@\x15\x19\xce\xd6A'
p405
tp406
Rp407
ag7
(g11
S'\x00\x00\x80 \x19\xce\xd6A'
p408
tp409
Rp410
aF0.123024
aasS'Scan_17'
p411
(lp412
(lp413
I17
ag358
aI1
ag7
(g11
S"\x00\x00\x00'\x19\xce\xd6A"
p414
tp415
Rp416
ag7
(g11
S'\x00\x00@2\x19\xce\xd6A'
p417
tp418
Rp419
aF-0.123024
aa(lp420
I17
ag358
aI2
ag7
(g11
S'\x00\x00\x808\x19\xce\xd6A'
p421
tp422
Rp423
ag7
(g11
S'\x00\x00\xc0C\x19\xce\xd6A'
p424
tp425
Rp426
aF0.0
aa(lp427
I17
ag358
aI3
ag7
(g11
S'\x00\x00\x00J\x19\xce\xd6A'
p428
tp429
Rp430
ag7
(g11
S'\x00\x00\x00U\x19\xce\xd6A'
p431
tp432
Rp433
aF0.123024
aasS'Scan_14'
p434
(lp435
(lp436
I14
ag355
aI1
ag7
(g11
S'\x00\x00\x00\x0f\x18\xce\xd6A'
p437
tp438
Rp439
ag7
(g11
S'\x00\x00@\x1a\x18\xce\xd6A'
p440
tp441
Rp442
aF-0.123024
aa(lp443
I14
ag355
aI2
ag7
(g11
S'\x00\x00@!\x18\xce\xd6A'
p444
tp445
Rp446
ag7
(g11
S'\x00\x00\x80,\x18\xce\xd6A'
p447
tp448
Rp449
aF0.0
aa(lp450
I14
ag355
aI3
ag7
(g11
S'\x00\x00@3\x18\xce\xd6A'
p451
tp452
Rp453
ag7
(g11
S'\x00\x00\xc0>\x18\xce\xd6A'
p454
tp455
Rp456
aF0.123024
aasS'Scan_15'
p457
(lp458
(lp459
I15
ag356
aI1
ag7
(g11
S'\x00\x00\x80E\x18\xce\xd6A'
p460
tp461
Rp462
ag7
(g11
S'\x00\x00\xc0P\x18\xce\xd6A'
p463
tp464
Rp465
aF-0.123024
aa(lp466
I15
ag356
aI2
ag7
(g11
S'\x00\x00\xc0W\x18\xce\xd6A'
p467
tp468
Rp469
ag7
(g11
S'\x00\x00\x00c\x18\xce\xd6A'
p470
tp471
Rp472
aF0.0
aa(lp473
I15
ag356
aI3
ag7
(g11
S'\x00\x00\x00j\x18\xce\xd6A'
p474
tp475
Rp476
ag7
(g11
S'\x00\x00@u\x18\xce\xd6A'
p477
tp478
Rp479
aF0.123024
aasS'Scan_12'
p480
(lp481
(lp482
I12
ag353
aI1
ag7
(g11
S'\x00\x00@\xa1\x17\xce\xd6A'
p483
tp484
Rp485
ag7
(g11
S'\x00\x00\x80\xac\x17\xce\xd6A'
p486
tp487
Rp488
aF-0.123024
aa(lp489
I12
ag353
aI2
ag7
(g11
S'\x00\x00\x80\xb3\x17\xce\xd6A'
p490
tp491
Rp492
ag7
(g11
S'\x00\x00\xc0\xbe\x17\xce\xd6A'
p493
tp494
Rp495
aF0.0
aa(lp496
I12
ag353
aI3
ag7
(g11
S'\x00\x00\x00\xc6\x17\xce\xd6A'
p497
tp498
Rp499
ag7
(g11
S'\x00\x00\x00\xd1\x17\xce\xd6A'
p500
tp501
Rp502
aF0.123024
aasS'Scan_13'
p503
(lp504
(lp505
I13
ag354
aI1
ag7
(g11
S'\x00\x00@\xd8\x17\xce\xd6A'
p506
tp507
Rp508
ag7
(g11
S'\x00\x00@\xe3\x17\xce\xd6A'
p509
tp510
Rp511
aF-0.123024
aa(lp512
I13
ag354
aI2
ag7
(g11
S'\x00\x00\x80\xea\x17\xce\xd6A'
p513
tp514
Rp515
ag7
(g11
S'\x00\x00\x80\xf5\x17\xce\xd6A'
p516
tp517
Rp518
aF0.0
aa(lp519
I13
ag354
aI3
ag7
(g11
S'\x00\x00\xc0\xfc\x17\xce\xd6A'
p520
tp521
Rp522
ag7
(g11
S'\x00\x00\xc0\x07\x18\xce\xd6A'
p523
tp524
Rp525
aF0.123024
aasS'Scan_10'
p526
(lp527
(lp528
I10
ag351
aI1
ag7
(g11
S'\x00\x00\x80\x9b\x16\xce\xd6A'
p529
tp530
Rp531
ag7
(g11
S'\x00\x00\xc0\xa6\x16\xce\xd6A'
p532
tp533
Rp534
aF0.123024
aa(lp535
I10
ag351
aI2
ag7
(g11
S'\x00\x00\x80\xad\x16\xce\xd6A'
p536
tp537
Rp538
ag7
(g11
S'\x00\x00\x80\xb8\x16\xce\xd6A'
p539
tp540
Rp541
aF-0.0
aa(lp542
I10
ag351
aI3
ag7
(g11
S'\x00\x00\xc0\xbf\x16\xce\xd6A'
p543
tp544
Rp545
ag7
(g11
S'\x00\x00\xc0\xca\x16\xce\xd6A'
p546
tp547
Rp548
aF-0.123024
aasS'Scan_11'
p549
(lp550
(lp551
I11
ag352
aI1
ag7
(g11
S'\x00\x00@j\x17\xce\xd6A'
p552
tp553
Rp554
ag7
(g11
S'\x00\x00\x80u\x17\xce\xd6A'
p555
tp556
Rp557
aF-0.123024
aa(lp558
I11
ag352
aI2
ag7
(g11
S'\x00\x00\xc0|\x17\xce\xd6A'
p559
tp560
Rp561
ag7
(g11
S'\x00\x00\xc0\x87\x17\xce\xd6A'
p562
tp563
Rp564
aF0.0
aa(lp565
I11
ag352
aI3
ag7
(g11
S'\x00\x00\x00\x8f\x17\xce\xd6A'
p566
tp567
Rp568
ag7
(g11
S'\x00\x00\x00\x9a\x17\xce\xd6A'
p569
tp570
Rp571
aF0.123024
aasS'Date'
p572
S'Jul012018'
p573
sS'InputDIPFile'
p574
S'/eos/cms/store/group/comm_luminosity/VdM/scanFill6868_30June2018/beamData/vdm_4299086b-716a-47ca-8d96-ddc81ee27717.csv'
p575
sS'Scan_19'
p576
(lp577
(lp578
I19
ag359
aI1
ag7
(g11
S'\x00\x00@\x90\x19\xce\xd6A'
p579
tp580
Rp581
ag7
(g11
S'\x00\x00\x80\x9b\x19\xce\xd6A'
p582
tp583
Rp584
aF-0.123024
aa(lp585
I19
ag359
aI2
ag7
(g11
S'\x00\x00\xc0\xa1\x19\xce\xd6A'
p586
tp587
Rp588
ag7
(g11
S'\x00\x00\xc0\xac\x19\xce\xd6A'
p589
tp590
Rp591
aF0.0
aa(lp592
I19
ag359
aI3
ag7
(g11
S'\x00\x00\x00\xb3\x19\xce\xd6A'
p593
tp594
Rp595
ag7
(g11
S'\x00\x00@\xbe\x19\xce\xd6A'
p596
tp597
Rp598
aF0.123024
aasS'FilledBunchesB2'
p599
(lp600
I13
aI34
aI55
aI76
aI97
aI118
aI139
aI160
aI181
aI202
aI223
aI244
aI265
aI286
aI307
aI328
aI539
aI560
aI581
aI602
aI623
aI644
aI665
aI686
aI718
aI739
aI760
aI781
aI802
aI823
aI844
aI865
aI897
aI918
aI939
aI960
aI981
aI1002
aI1023
aI1044
aI1065
aI1086
aI1107
aI1128
aI1149
aI1170
aI1191
aI1212
aI1254
aI1275
aI1296
aI1317
aI1338
aI1359
aI1380
aI1401
aI1433
aI1454
aI1475
aI1496
aI1517
aI1538
aI1559
aI1580
aI1601
aI1622
aI1643
aI1664
aI1685
aI1706
aI1727
aI1748
aI1780
aI1801
aI1822
aI1843
aI1864
aI1885
aI1906
aI1927
aI1948
aI1969
aI1990
aI2011
aI2032
aI2053
aI2074
aI2095
aI2129
aI2150
aI2171
aI2192
aI2213
aI2234
aI2255
aI2276
aI2297
aI2318
aI2339
aI2360
aI2381
aI2402
aI2423
aI2444
aI2492
aI2513
aI2534
aI2555
aI2576
aI2597
aI2618
aI2639
aI2865
aI2886
aI2907
aI2928
aI2949
aI2970
aI2991
aI3012
aI3033
aI3054
aI3075
aI3096
aI3128
aI3149
aI3170
aI3191
aI3212
aI3233
aI3254
aI3275
aI3296
aI3317
aI3338
aI3359
aI3380
aI3401
aI3422
aI3443
asS'FilledBunchesB1'
p601
(lp602
I13
aI34
aI55
aI76
aI97
aI118
aI139
aI160
aI181
aI202
aI223
aI244
aI265
aI286
aI307
aI328
aI363
aI384
aI405
aI426
aI447
aI468
aI489
aI510
aI718
aI739
aI760
aI781
aI802
aI823
aI844
aI865
aI897
aI918
aI939
aI960
aI981
aI1002
aI1023
aI1044
aI1065
aI1086
aI1107
aI1128
aI1149
aI1170
aI1191
aI1212
aI1254
aI1275
aI1296
aI1317
aI1338
aI1359
aI1380
aI1401
aI1433
aI1454
aI1475
aI1496
aI1517
aI1538
aI1559
aI1580
aI1601
aI1622
aI1643
aI1664
aI1685
aI1706
aI1727
aI1748
aI1780
aI1801
aI1822
aI1843
aI1864
aI1885
aI1906
aI1927
aI1948
aI1969
aI1990
aI2011
aI2032
aI2053
aI2074
aI2095
aI2129
aI2150
aI2171
aI2192
aI2213
aI2234
aI2255
aI2276
aI2297
aI2318
aI2339
aI2360
aI2381
aI2402
aI2423
aI2444
aI2686
aI2707
aI2728
aI2749
aI2770
aI2791
aI2812
aI2833
aI2865
aI2886
aI2907
aI2928
aI2949
aI2970
aI2991
aI3012
aI3033
aI3054
aI3075
aI3096
aI3128
aI3149
aI3170
aI3191
aI3212
aI3233
aI3254
aI3275
aI3296
aI3317
aI3338
aI3359
aI3380
aI3401
aI3422
aI3443
asS'Fill'
p603
S'6868'
p604
s.