(lp0
(lp1
S'Scan'
p2
aS'Type'
p3
aS'BCID'
p4
aS'sigma'
p5
aS'sigmaErr'
p6
aS'sigmaRatio'
p7
aS'sigmaRatio_Err'
p8
aS'Amp'
p9
aS'AmpErr'
p10
aS'Frac'
p11
aS'FracErr'
p12
aS'Mean'
p13
aS'MeanErr'
p14
aS'Const'
p15
aS'ConstErr'
p16
aS'CapSigma'
p17
aS'CapSigmaErr'
p18
aS'peak'
p19
aS'peakErr'
p20
aS'area'
p21
aS'areaErr'
p22
aS'fitStatus'
p23
aS'chi2'
p24
aS'ndof'
p25
aa(lp26
S'1'
p27
aS'X'
p28
aS'41'
p29
aF0.1347063436491932
aF0.0005567519605120129
aF1.0000022850955295
aF0.029098742834516023
aF72.04032621744764
aF0.42483379974946445
aF0.9949927533560402
aF0.7437613686582447
aF-0.0018948268306997241
aF0.0006608656229979063
aF1.9741769444993489
aF0.03389676572905875
aF0.1347063436491932
aF0.0005567519605120129
aF72.04032621744764
aF0.42483379974946445
aF24.325045042311924
aF0.17517227333715893
aI0
aF16.57144060703204
aI19
aa(lp30
g27
ag28
aS'281'
p31
aF0.13110902788488488
aF0.0005247637018337899
aF1.0000025747100596
aF0.02845399824044642
aF75.62636913324141
aF0.4411493290594848
aF0.9954308244999448
aF0.7423937525453477
aF0.0011533898571240418
aF0.0006584886161050612
aF1.9587983367536
aF0.02455364023485085
aF0.13110902788488488
aF0.0005247637018337899
aF75.62636913324141
aF0.4411493290594848
aF24.853970678529105
aF0.17582683310861838
aI0
aF34.714598098523176
aI19
aa(lp32
g27
ag28
aS'872'
p33
aF0.13207417146160108
aF0.0006163504767014272
aF1.0000012622317462
aF0.024861779275749674
aF75.5312528239994
aF0.46110799880014497
aF0.9899999998759257
aF0.7559345303851217
aF-0.0009917911393699484
aF0.0006988448648836932
aF2.1536053355033675
aF0.045556477961115505
aF0.13207417146160108
aF0.0006163504767014272
aF75.5312528239994
aF0.46110799880014497
aF25.005440952882793
aF0.19214764744713386
aI0
aF19.038476273995904
aI19
aa(lp34
g27
ag28
aS'1783'
p35
aF0.1301239240753906
aF0.0005340039177306178
aF0.9811387254289285
aF0.9794982387356537
aF77.31610413082609
aF0.46921467288103713
aF0.9999999999999982
aF0.7133413738923615
aF-0.001671637083640289
aF0.0006587051652784283
aF2.074566762948158
aF0.032645674109613054
aF0.1301239240753906
aF0.0005340039177306178
aF77.31610413082609
aF0.46921467288103713
aF25.21837207528149
aF0.18475171028855206
aI0
aF38.890438266495096
aI19
aa(lp36
g27
ag28
aS'2063'
p37
aF0.12894831044085417
aF0.0005935108998081397
aF0.9999500842402849
aF0.06444184090508187
aF76.08576946498536
aF0.4533770111165225
aF0.9945847372356607
aF0.7449742348091071
aF3.3655339089530064e-05
aF0.0006520303852208643
aF2.173556353478059
aF0.06308361562871023
aF0.12894831044085417
aF0.0005935108998081397
aF76.08576946498536
aF0.4533770111165225
aF24.59285942625539
aF0.18516925860374717
aI0
aF16.34106896084566
aI19
aa(lp38
g27
ag28
aS'sum'
p39
aF-6.480529191056509e-07
aF3.186997203707284e-11
aF0.5269802303557631
aF1.2263853034051065e-10
aF1.1
aF4.979838095487428e-08
aF0.99
aF1.3120767045017764e-08
aF0.0
aF2.4546526139599552e-08
aF1.5131494945919144e-08
aF1.5565390076329514e-07
aF-6.480529191056509e-07
aF3.186997203707284e-11
aF1.1
aF4.979838095487428e-08
aF-1.7868705475361193e-06
aF8.78748275555664e-11
aI0
aF5.724053482459418e-15
aI19
aa(lp40
S'10'
p41
aS'Y'
p42
aS'41'
p43
aF0.11613905321428575
aF0.0004979072816108663
aF0.9999971218536973
aF0.0359584470452014
aF76.10710625868423
aF0.47262640026480085
aF0.9964455936878469
aF0.7389063718228892
aF-0.0032620003198145214
aF0.000612655785175232
aF2.25484210113504
aF0.036625117602731905
aF0.11613905321428575
aF0.0004979072816108663
aF76.10710625868423
aF0.47262640026480085
aF22.15610552701619
aF0.16719287153316367
aI0
aF18.90226509911714
aI19
aa(lp44
S'10'
p45
ag42
aS'281'
p46
aF0.11641950358536422
aF0.0005327014743053011
aF1.0000148122716168
aF0.032533749186997585
aF77.392355647779
aF0.4885083764428373
aF0.9960875743960114
aF0.7401945082404129
aF-0.0026202208548163908
aF0.0006337472185524077
aF2.233974964247559
aF0.03214923413431259
aF0.11641950358536422
aF0.0005327014743053011
aF77.392355647779
aF0.4885083764428373
aF22.584669683920602
aF0.17607311853067995
aI0
aF18.289176202647376
aI19
aa(lp47
S'10'
p48
ag42
aS'872'
p49
aF0.11506764522205717
aF0.0005180483589358389
aF1.0000045486384148
aF0.01563972910707867
aF77.92940725298624
aF0.5133606230889853
aF0.990000002806129
aF0.7559345244948557
aF-0.0031650721781579048
aF0.0006397408826556881
aF2.309647091236313
aF0.025658159781950962
aF0.11506764522205717
aF0.0005180483589358389
aF77.92940725298624
aF0.5133606230889853
aF22.47732022068129
aF0.17934641275473703
aI0
aF21.457888905594167
aI19
aa(lp50
S'10'
p51
ag42
aS'1783'
p52
aF0.11344443786823834
aF0.0005018390935092548
aF0.9999957527050556
aF0.04964801027298127
aF79.57247643759091
aF0.5119181662704761
aF0.9958772979831187
aF0.7409201158002743
aF-0.003228234002516136
aF0.0006126894320885325
aF2.3841106812334996
aF0.038286439661053606
aF0.11344443786823834
aF0.0005018390935092548
aF79.57247643759091
aF0.5119181662704761
aF22.62747094683154
aF0.1766636251500233
aI0
aF27.9983175373377
aI19
aa(lp53
S'10'
p54
ag42
aS'2063'
p55
aF0.11527829428005326
aF0.0005327247618436838
aF1.000002003675333
aF0.034015450150401194
aF79.53190965894153
aF0.499166923777139
aF0.9960134347957763
aF0.7404528158852424
aF-0.0038227963205386037
aF0.0006130390545525702
aF2.1796135337858273
aF0.036724781359442016
aF0.11527829428005326
aF0.0005327247618436838
aF79.53190965894153
aF0.499166923777139
aF22.981527245225887
aF0.17911976015831757
aI0
aF25.257133391581714
aI19
aa(lp56
S'10'
p57
ag42
aS'sum'
p58
aF-0.0018647892344909969
aF1.719528880320555e-05
aF1.4806833195820484
aF1.9519719467377477e-05
aF0.4463874589053808
aF6.079339805740686e-05
aF0.17947107153659847
aF1.076396863346143e-05
aF0.0017298279970112684
aF2.6883415256184277e-05
aF8.599961427435687e-06
aF0.0001375736926598219
aF-0.0018647892344909969
aF1.719528880320555e-05
aF0.4463874589053808
aF6.079339805740686e-05
aF-0.002086563818056415
aF1.924237863325723e-05
aI0
aF7.166075575276177e-09
aI19
aa(lp59
S'11'
p60
ag28
aS'41'
p61
aF0.13811961743406265
aF0.000574256096492088
aF1.000003885896604
aF0.034654770889199216
aF78.638463765631
aF0.454890766036371
aF0.9943478946300949
aF0.745654009261417
aF0.0014461057500544808
aF0.0006582122200273647
aF2.3057674040061524
aF0.04070206809395294
aF0.13811961743406265
aF0.000574256096492088
aF78.638463765631
aF0.454890766036371
aF27.22577942849786
aF0.19394932400632
aI0
aF23.700662212617523
aI19
aa(lp62
S'11'
p63
ag28
aS'281'
p64
aF0.13732995149699975
aF0.0005557353074948943
aF1.0000027399295432
aF0.03344210500230893
aF80.76218110258456
aF0.4510227267861495
aF0.9943583883291669
aF0.745624246549536
aF0.0019433684811120794
aF0.0006605847803386752
aF2.2636646140131655
aF0.03778301653531413
aF0.13732995149699975
aF0.0005557353074948943
aF80.76218110258456
aF0.4510227267861495
aF27.801180668164687
aF0.19173429524508342
aI0
aF27.949963989291554
aI19
aa(lp65
S'11'
p66
ag28
aS'872'
p67
aF0.1373803882699008
aF0.0005991608241579543
aF1.0000001840813493
aF0.031596893136132786
aF81.39746988482719
aF0.4749184053030078
aF0.629724514926574
aF0.6498293503000592
aF0.0023193293773257112
aF0.0006850165306040625
aF2.5455879770196295
aF0.05254063327950487
aF0.1373803882699008
aF0.0005991608241579543
aF81.39746988482719
aF0.4749184053030078
aF28.03016016681133
aF0.2041843986606937
aI0
aF15.581154943571935
aI19
aa(lp68
S'11'
p69
ag28
aS'1783'
p70
aF0.13688806639589796
aF0.0006030903733567894
aF1.000002038258673
aF0.02766639905426549
aF81.58888397311068
aF0.4866755428378795
aF0.9900000003570719
aF0.7559345294179265
aF0.002597244540347894
aF0.0007107638677958556
aF2.43606522244884
aF0.045018620373202145
aF0.13688806639589796
aF0.0006030903733567894
aF81.58888397311068
aF0.4866755428378795
aF27.995389596811158
aF0.20760289111147706
aI0
aF19.251108186908507
aI19
aa(lp71
S'11'
p72
ag28
aS'2063'
p73
aF0.13592157924712753
aF0.0010029417768011668
aF1.5362575589763994
aF0.3835719487318596
aF82.28578029577126
aF0.5331486295255701
aF0.06555083059145628
aF0.08211868217474794
aF0.002087084685155336
aF0.0006591522645341262
aF2.023081775740101
aF0.1386766518000464
aF0.13592157924712753
aF0.0010029417768011668
aF82.28578029577126
aF0.5331486295255701
aF28.035166380783618
aF0.2752983759559904
aI0
aF29.833680802649955
aI19
aa(lp74
S'11'
p75
ag28
aS'sum'
p76
aF-0.0002715692273526525
aF1.3309832966030432e-06
aF0.8328378125899207
aF7.501743973435485e-06
aF1.0999929149808227
aF2.4408725024020988e-05
aF0.9900002225222315
aF6.431150120075389e-06
aF0.6754033668964445
aF5.715016657561274e-05
aF7.41672491699763e-06
aF5.8920984253436964e-05
aF-0.0002715692273526525
aF1.3309832966030432e-06
aF1.0999929149808227
aF2.4408725024020988e-05
aF-0.0007487905912457936
aF3.6699223768894833e-06
aI0
aF1.3751952123603379e-09
aI19
aa(lp77
S'12'
p78
ag42
aS'41'
p79
aF0.10987188319423671
aF0.0004810961435404254
aF0.9999553587924827
aF0.02077652601963148
aF79.9400744620397
aF0.49335387324337887
aF0.9900001644260186
aF0.7559342002984558
aF-0.0036735634877032852
aF0.0006016542782309042
aF2.2798274460697736
aF0.040602064991128284
aF0.10987188319423671
aF0.0004810961435404254
aF79.9400744620397
aF0.49335387324337887
aF22.016133549429295
aF0.16659829239415205
aI0
aF27.193013571925462
aI19
aa(lp80
S'12'
p81
ag42
aS'281'
p82
aF0.1086943370993745
aF0.00047724781294172086
aF0.9999968477423289
aF0.03931564624772527
aF81.68571788113306
aF0.5131029716823718
aF0.9900006400062248
aF0.7559332435758899
aF-0.004200263796202545
aF0.000577683128855316
aF2.2752298561313475
aF0.04024207265172053
aF0.1086943370993745
aF0.00047724781294172086
aF81.68571788113306
aF0.5131029716823718
aF22.25578834773311
aF0.17056542961313226
aI0
aF34.02933100917931
aI19
aa(lp83
S'12'
p84
ag42
aS'872'
p85
aF0.10726049721862291
aF0.0004712703912468567
aF1.0000013071010754
aF0.02593235705630026
aF82.4491753931508
aF0.536379476063594
aF0.9974008059509893
aF0.7350636847379944
aF-0.0037649685718390367
aF0.0005814178119286958
aF2.316753513649856
aF0.024910483371591408
aF0.10726049721862291
aF0.0004712703912468567
aF82.4491753931508
aF0.536379476063594
aF22.16746627867083
aF0.1740211473528596
aI0
aF35.07157651666413
aI19
aa(lp86
S'12'
p87
ag42
aS'1783'
p88
aF0.10795827806487966
aF0.00048138918000627685
aF0.999992402080169
aF0.03737885664086671
aF82.08630746048917
aF0.5368600594058606
aF0.9970379586647937
aF0.7366035755385756
aF-0.0030623216396847633
aF0.0006106458775321415
aF2.3837009711373263
aF0.034750884297781726
aF0.10795827806487966
aF0.00048138918000627685
aF82.08630746048917
aF0.5368600594058606
aF22.2134800984781
aF0.17583345896699762
aI0
aF20.763409294771815
aI19
aa(lp89
S'12'
p90
ag42
aS'2063'
p91
aF0.10826341547428828
aF0.0004747128003897153
aF0.5000000000007354
aF0.2816944411289225
aF82.33648391127099
aF0.5536422432722148
aF0.9843283650022281
aF0.005822736246335614
aF-0.003865683353106729
aF0.000589226160182537
aF2.087385043903665
aF0.050451262388905294
aF0.10826341547428828
aF0.0004747128003897153
aF82.33648391127099
aF0.5536422432722148
aF22.344157048002803
aF0.1793673802837793
aI0
aF45.609726962070674
aI19
aa(lp92
S'12'
p93
ag42
aS'sum'
p94
aF0.0018525754966462788
aF6.271337665853734e-07
aF1.8019566745047855
aF3.4050352215398114e-07
aF0.8828839888550593
aF1.1838579081165846e-06
aF0.990000001365703
aF3.3522196091430777e-07
aF1566.2459556824801
aF1.4717684564371298e-05
aF3.865940606528895e-07
aF3.1438202104635817e-06
aF0.0018525754966462788
aF6.271337665853734e-07
aF0.8828839888550593
aF1.1838579081165846e-06
aF0.0040998643775946465
aF1.3878967766661866e-06
aI0
aF3.736374193302248e-12
aI19
aa(lp95
S'2'
p96
ag42
aS'41'
p97
aF0.12256169695069356
aF0.0005121033749758471
aF1.0000007201005026
aF0.021018036242052507
aF72.40864765994336
aF0.43070128380040273
aF0.9899999999625482
aF0.7559345302109939
aF0.0057853008506225595
aF0.0006162815660176685
aF2.093949237022273
aF0.03619741256156295
aF0.12256169695069356
aF0.0005121033749758471
aF72.40864765994336
aF0.43070128380040273
aF22.245139628162743
aF0.16170175911081944
aI0
aF22.874349613715594
aI19
aa(lp98
g96
ag42
aS'281'
p99
aF0.12116136002055862
aF0.0005504931388683928
aF0.9999877731396953
aF0.04198755363034018
aF75.1490786684539
aF0.455726448164782
aF0.9955266194935453
aF0.7420847577789427
aF0.004738780726685954
aF0.0006231664836082674
aF2.1995621161910566
aF0.04896184064695874
aF0.12116136002055862
aF0.0005504931388683928
aF75.1490786684539
aF0.455726448164782
aF22.82326297077317
aF0.17294378761134063
aI0
aF20.37462484725636
aI19
aa(lp100
g96
ag42
aS'872'
p101
aF0.11995921053455284
aF0.0005758878138910141
aF0.9999972037292789
aF0.03843785906094299
aF75.49758072228258
aF0.4875514202961284
aF0.9955253209316131
aF0.7420889716176768
aF0.0038708823435952546
aF0.0006688362771917285
aF2.300801975066097
aF0.04449430967051349
aF0.11995921053455284
aF0.0005758878138910141
aF75.49758072228258
aF0.4875514202961284
aF22.70160528385341
aF0.182674458398738
aI0
aF16.86013398263991
aI19
aa(lp102
g96
ag42
aS'1783'
p103
aF0.11856212768504551
aF0.0005657404206288581
aF1.0000013256100357
aF0.01976911694450595
aF76.78570825854702
aF0.500957508000468
aF0.9900000011973464
aF0.7559345277288148
aF0.004813092772145612
aF0.0006655589475694542
aF2.179338265677742
aF0.031004878997235696
aF0.11856212768504551
aF0.0005657404206288581
aF76.78570825854702
aF0.500957508000468
aF22.82003536395239
aF0.18445136796685868
aI0
aF31.064881593890494
aI19
aa(lp104
g96
ag42
aS'2063'
p105
aF0.12030857981794105
aF0.0005674980823088632
aF0.9999996230200757
aF0.018212464482219137
aF76.16015767401177
aF0.4685466572729027
aF0.36800029677485274
aF0.722534528048081
aF0.005063220471363985
aF0.0006406659353157252
aF2.142542412148622
aF0.04961837622922394
aF0.12030857981794105
aF0.0005674980823088632
aF76.16015767401177
aF0.4685466572729027
aF22.967534048411466
aF0.17805232219730294
aI0
aF16.776640105106367
aI19
aa(lp106
g96
ag42
aS'sum'
p107
aF-0.0014239773564244805
aF6.75268950017023e-07
aF1.4172474869227762
aF5.642378359293052e-07
aF0.23395710102873726
aF1.853702043616813e-06
aF0.056953922174985294
aF3.826804899302093e-07
aF0.002890669841560693
aF6.75276130208371e-07
aF4.130816411151983e-07
aF3.3942997260247024e-06
aF-0.0014239773564244805
aF6.75268950017023e-07
aF0.23395710102873726
aF1.853702043616813e-06
aF-0.0008350822427354831
aF3.9606234769272674e-07
aI0
aF4.331986121280519e-12
aI19
aa(lp108
S'3'
p109
ag42
aS'41'
p110
aF0.12280423488760858
aF0.0006004581097088507
aF1.000004028650518
aF0.03487481148877147
aF72.40674101235162
aF0.6026199120534343
aF0.9953229288723261
aF0.7427373608720436
aF0.00561013837503495
aF0.0007084064134785627
aF2.1497427927904225
aF0.03762378880223305
aF0.12280423488760858
aF0.0006004581097088507
aF72.40674101235162
aF0.6026199120534343
aF22.28857372996341
aF0.21514554549052173
aI0
aF23.46409416465695
aI19
aa(lp111
g109
ag42
aS'281'
p112
aF0.12244623108432201
aF0.000605071372797208
aF1.0000061176767898
aF0.023241602628355174
aF74.86030387081024
aF0.5960817036057762
aF0.995983606387825
aF0.7405559706957447
aF0.0046674999108289985
aF0.0007252229343801339
aF2.056713388795299
aF0.028184312153133773
aF0.12244623108432201
aF0.000605071372797208
aF74.86030387081024
aF0.5960817036057762
aF22.976662332165475
aF0.21532146899294818
aI0
aF37.08809311673395
aI19
aa(lp113
g109
ag42
aS'872'
p114
aF0.11875983376226056
aF0.0005995022523146413
aF0.9999970270333642
aF0.03909876947679569
aF75.84180713455662
aF0.6396058414518038
aF0.9959032095592927
aF0.7408318559919074
aF0.004597247189970197
aF0.0007337011608794823
aF2.368145651735147
aF0.04462597098262755
aF0.11875983376226056
aF0.0005995022523146413
aF75.84180713455662
aF0.6396058414518038
aF22.577101625995077
aF0.22190558189258505
aI0
aF16.71161667477676
aI19
aa(lp115
g109
ag42
aS'1783'
p116
aF0.1175373842893576
aF0.0008545450942181872
aF1.2663819270724694
aF0.11615694111571084
aF77.34751206254576
aF0.8052790194458339
aF0.6241026505368251
aF0.33909064080784956
aF0.004857065065158306
aF0.00071449306755043
aF2.1367191110948554
aF0.030860854736568966
aF0.1175373842893576
aF0.0008545450942181872
aF77.34751206254576
aF0.8052790194458339
aF22.78831975385809
aF0.2893771941614132
aI0
aF43.4723532561474
aI19
aa(lp117
g109
ag42
aS'2063'
p118
aF0.11951669472447661
aF0.000551042068829761
aF1.00000292999522
aF0.028901794006901516
aF76.94927421877891
aF0.6157377939870088
aF0.9961560973928245
aF0.7399532901101946
aF0.004690425245039179
aF0.0006994007208869399
aF2.121262232828236
aF0.03308771012155942
aF0.11951669472447661
aF0.000551042068829761
aF76.94927421877891
aF0.6157377939870088
aF23.052765695382558
aF0.2128949693676138
aI0
aF28.851338857111692
aI19
aa(lp119
g109
ag42
aS'sum'
p120
aF-5.043159536935206
aF5.9839660576141646e-05
aF0.5405453188197473
aF4.09452687025238e-10
aF1.3559140295090846
aF4.2311834370557375e-08
aF0.11028490203152014
aF7.010274911364179e-09
aF-1915.862232803373
aF1.944824317021651e-08
aF1.1988702253162842e-08
aF1.2337344955766142e-07
aF-5.043159536935206
aF5.9839660576141646e-05
aF1.3559140295090846
aF4.2311834370557375e-08
aF-17.140551666527312
aF0.0002033820927874089
aI0
aF3.593224542874794e-15
aI19
aa(lp121
S'4'
p122
ag28
aS'41'
p123
aF0.13341585166067024
aF0.0006038809122237684
aF1.0000012654361963
aF0.0337163035689127
aF73.0997371733971
aF0.43507113032527656
aF0.9899999996433193
aF0.7559345308527046
aF-0.0009185383215785985
aF0.0006706402139273567
aF2.2783319321083835
aF0.05156067977229717
aF0.13341585166067024
aF0.0006038809122237684
aF73.0997371733971
aF0.43507113032527656
aF24.446302561228617
aF0.18279351078914846
aI0
aF28.56412698973093
aI19
aa(lp124
g122
ag28
aS'281'
p125
aF0.13078383417606523
aF0.000560741604580001
aF1.0000038034926506
aF0.03564383864044546
aF75.72805038332895
aF0.44351997398998577
aF0.9948335903401146
aF0.7442410779969626
aF-0.0015791797219738357
aF0.0006390927732226609
aF2.1997073543712964
aF0.03636894598069085
aF0.13078383417606523
aF0.000560741604580001
aF75.72805038332895
aF0.44351997398998577
aF24.82565842317885
aF0.1801948156477387
aI0
aF32.72916892984993
aI19
aa(lp126
g122
ag28
aS'872'
p127
aF0.13066970894271748
aF0.0005945801300228389
aF0.9999986002280412
aF0.035855388313727754
aF76.4778842732442
aF0.4592061617349472
aF0.9900000001842941
aF0.7559345297652423
aF-0.00046328401845898565
aF0.0006675288120559162
aF2.3602385859926605
aF0.050805715872908275
aF0.13066970894271748
aF0.0005945801300228389
aF76.4778842732442
aF0.4592061617349472
aF25.04959581742984
aF0.18871838147281556
aI0
aF33.19855587149669
aI19
aa(lp128
g122
ag28
aS'1783'
p129
aF0.13093701279420497
aF0.0005744520711621784
aF1.0000015556189368
aF0.019096660631226614
aF77.11996019913511
aF0.4625867798494667
aF0.9899999998027693
aF0.75593453053218
aF-0.00017301857429781621
aF0.0006647096976349859
aF2.206948474670485
aF0.03584351842195366
aF0.13093701279420497
aF0.0005744520711621784
aF77.11996019913511
aF0.4625867798494667
aF25.311574409014348
aF0.18810295070934088
aI0
aF34.12586790443843
aI19
aa(lp130
g122
ag28
aS'2063'
p131
aF0.12927880954158813
aF0.0005532045898633178
aF0.9999999130359094
aF0.018627887399035592
aF76.8361639034249
aF0.45073702845088803
aF0.9817736969450892
aF0.9353318491236309
aF6.401036097604012e-05
aF0.0006520303878813583
aF2.1951186043543998
aF0.046829479775960525
aF0.12927880954158813
aF0.0005532045898633178
aF76.8361639034249
aF0.45073702845088803
aF24.899060057464503
aF0.18079463708707977
aI0
aF24.386157720826006
aI19
aa(lp132
g122
ag28
aS'sum'
p133
aF-0.0014965844686028497
aF6.121348544986174e-05
aF1.4031659769004758
aF5.108436944741303e-05
aF0.2999316379524726
aF0.00014762377505163904
aF0.9999998240316894
aF3.0862094942234e-05
aF-0.00014579570023662497
aF6.136073968201476e-05
aF3.78251773625049e-05
aF0.0003056494266342994
aF-0.0014965844686028497
aF6.121348544986174e-05
aF0.2999316379524726
aF0.00014762377505163904
aF-0.0011251578312296412
aF4.60246784742887e-05
aI0
aF3.577628642262736e-08
aI19
aa(lp134
S'5'
p135
ag28
aS'41'
p136
aF0.13324976725222834
aF0.0005610958345873056
aF1.0000018624372584
aF0.05030886828473202
aF73.25640143316336
aF0.3433687587608816
aF0.990000000080377
aF0.7559345299741355
aF-0.0007025628583338831
aF0.000531296637482762
aF2.3497662992951005
aF0.07869991682543187
aF0.13324976725222834
aF0.0005610958345873056
aF73.25640143316336
aF0.3433687587608816
aF24.46819733140967
aF0.15417166556361672
aI0
aF13.962204395939068
aI13
aa(lp137
g135
ag28
aS'281'
p138
aF0.13404437758596977
aF0.0008919821625189535
aF1.9999999999968296
aF0.9232433124285155
aF77.66485027153283
aF0.5216499904497169
aF0.06243548990210018
aF0.015454633149345809
aF0.0008103501576851929
aF0.0005165347310701302
aF1.1833411000005105
aF0.24058350670684264
aF0.13404437758596977
aF0.0008919821625189535
aF77.66485027153283
aF0.5216499904497169
aF26.09534518246506
aF0.246728093617925
aI0
aF22.64546715170771
aI13
aa(lp139
g135
ag28
aS'872'
p140
aF0.13085945828302956
aF0.0005127440554727383
aF1.000001879216895
aF0.038032090499097004
aF77.92080969918474
aF0.3770265482683044
aF0.9899999999803453
aF0.7559345301752195
aF0.0006243200862837132
aF0.0005362034265877243
aF2.3102798980306
aF0.05342323053137377
aF0.13085945828302956
aF0.0005127440554727383
aF77.92080969918474
aF0.3770265482683044
aF25.559273727392398
aF0.1591356533257587
aI0
aF17.062660274894714
aI13
aa(lp141
g135
ag28
aS'1783'
p142
aF0.13027467993704525
aF0.0005885830348250056
aF1.0000033990128867
aF0.07290041839910744
aF77.40440878698011
aF0.3780570476180145
aF0.991853992575735
aF0.7519698280510116
aF0.0008798755344984274
aF0.0005593858682553539
aF2.5653103337110372
aF0.08667018306114738
aF0.13027467993704525
aF0.0005885830348250056
aF77.40440878698011
aF0.3780570476180145
aF25.276424876032852
aF0.16817406144939467
aI0
aF15.740928346974176
aI13
aa(lp143
g135
ag28
aS'2063'
p144
aF0.1284076098915499
aF0.0005848893291087844
aF1.0000000252788048
aF0.0537232248214482
aF77.32924242136177
aF0.36821510924936973
aF0.02068289141174573
aF0.9723564433143028
aF0.0004856670227564794
aF0.0005337432324334961
aF2.533316662020239
aF0.09932219477405857
aF0.1284076098915499
aF0.0005848893291087844
aF77.32924242136177
aF0.36821510924936973
aF24.88997451977179
aF0.16401124972629916
aI0
aF15.962952187756583
aI13
aa(lp145
g135
ag28
aS'sum'
p146
aF0.0003681801138293192
aF0.00026658975883190515
aF1.0000110051545383
aF0.0011889781182722234
aF1.099996912063898
aF0.003432782785440676
aF0.99
aF0.0009044625524209724
aF-0.0006821604642691159
aF0.0016920824799975594
aF0.000989557570403865
aF0.007646584399115524
aF0.0003681801138293192
aF0.00026658975883190515
aF1.099996912063898
aF0.003432782785440676
aF0.0010151769020021152
aF0.0007350703335503042
aI0
aF1.8610429006183544e-05
aI13
aa(lp147
S'6'
p148
ag42
aS'41'
p149
aF0.12045679038462358
aF0.0004983169665574391
aF1.000000401628732
aF0.04235286089184742
aF73.93148797884555
aF0.36235376881949577
aF0.004817700277602199
aF0.8955062218575771
aF1.4722319855806155e-05
aF0.0005048118564603696
aF2.3038863598841335
aF0.07454444804039584
aF0.12045679038462358
aF0.0004983169665574391
aF73.93148797884555
aF0.36235376881949577
aF22.322902805212756
aF0.14317276022285103
aI0
aF11.697855400433157
aI13
aa(lp150
g148
ag42
aS'281'
p151
aF0.1193121059047389
aF0.00047287224066234915
aF1.000002011580231
aF0.03952137758334695
aF75.74476179938497
aF0.3729701134110428
aF0.98999999979537
aF0.7559345305470548
aF0.0003378468378366641
aF0.0004983803718600138
aF2.282954625252178
aF0.05455972677501175
aF0.1193121059047389
aF0.00047287224066234915
aF75.74476179938497
aF0.3729701134110428
aF22.653069091708602
aF0.14318831263547846
aI0
aF12.448000479963076
aI13
aa(lp152
g148
ag42
aS'872'
p153
aF0.11814952309064258
aF0.0004587679264761304
aF1.0000033299752944
aF0.04356629921455879
aF76.928442975818
aF0.3872269615372872
aF0.0004713538580574661
aF0.7184455374355742
aF0.0012604944108931396
aF0.0005192957083738201
aF2.3433520767841305
aF0.056547570113360424
aF0.11814952309064258
aF0.0004587679264761304
aF76.928442975818
aF0.3872269615372872
aF22.7828919024396
aF0.14483608342827384
aI0
aF25.682277877100674
aI13
aa(lp154
g148
ag42
aS'1783'
p155
aF0.1170697733237994
aF0.00045725606572214763
aF1.0000023821239548
aF0.009091578891545271
aF77.69488199202961
aF0.39981685131245115
aF0.5059203987453584
aF0.7529433081112126
aF0.0012986412403895602
aF0.0004953625089907181
aF2.3115458364182784
aF0.04581062348463294
aF0.1170697733237994
aF0.00045725606572214763
aF77.69488199202961
aF0.39981685131245115
aF22.79959450292846
aF0.14729453114941207
aI0
aF24.476269998415376
aI13
aa(lp156
g148
ag42
aS'2063'
p157
aF0.1186286328176176
aF0.0004360118839587815
aF1.000001631254805
aF0.02585790858111736
aF78.15396442067812
aF0.3825458713957133
aF0.9996797623128988
aF0.9421643235174739
aF0.00019595414669953647
aF0.0004865082985868731
aF2.076389881034122
aF0.04091480881588638
aF0.1186286328176176
aF0.0004360118839587815
aF78.15396442067812
aF0.3825458713957133
aF23.239697580242936
aF0.14225205328143942
aI0
aF19.995798440531097
aI13
aa(lp158
g148
ag42
aS'sum'
p159
aF-0.0013393576189010602
aF0.00021740638904671686
aF1.062166365808623
aF4.1914537758772454e-05
aF0.32447099447565797
aF0.00014792767767351128
aF0.9900943781481027
aF4.9030212010936554e-05
aF0.00019560790916410293
aF0.0013058319924965382
aF4.284475288052203e-05
aF0.0005150582563075101
aF-0.0013393576189010602
aF0.00021740638904671686
aF0.32447099447565797
aF0.00014792767767351128
aF-0.0010893372798844
aF0.00017682343777683507
aI0
aF3.488837354320007e-08
aI13
aa(lp160
S'7'
p161
ag28
aS'41'
p162
aF0.13512399030298425
aF0.0006868048942315798
aF1.0000047357745396
aF0.07262369965061011
aF73.2583927882402
aF0.3513484563017286
aF0.8453741245447568
aF0.9004748758644792
aF-0.006254311231180928
aF0.0005991348303968307
aF2.4448381167262583
aF0.10652774331289483
aF0.13512399030298425
aF0.0006868048942315798
aF73.2583927882402
aF0.3513484563017286
aF24.813028959401393
aF0.1734009659294907
aI0
aF23.35164745457991
aI13
aa(lp163
g161
ag28
aS'281'
p164
aF0.13063711873027342
aF0.0005907728975891142
aF1.0000015925028982
aF0.05642344286557721
aF76.42124089707511
aF0.3646706744373418
aF0.9918371247539497
aF0.7520082703018742
aF-0.005231810561224955
aF0.0005602999044648728
aF2.5992373028945384
aF0.08743470306383694
aF0.13063711873027342
aF0.0005907728975891142
aF76.42124089707511
aF0.3646706744373418
aF25.024799854606172
aF0.16452019481469451
aI0
aF13.106609191363127
aI13
aa(lp165
g161
ag28
aS'872'
p166
aF0.13199157076685294
aF0.0006167696049756989
aF0.9999997374795304
aF0.06462233058432237
aF77.46055846774416
aF0.3842934572018777
aF0.6719812365134322
aF0.7973032878842035
aF-0.006713131383514493
aF0.00057679511594239
aF2.4837687672268376
aF0.0949711291111639
aF0.13199157076685294
aF0.0006167696049756989
aF77.46055846774416
aF0.3842934572018777
aF25.628120374574582
aF0.17466278930380888
aI0
aF14.887819114991341
aI13
aa(lp167
g161
ag28
aS'1783'
p168
aF0.131567663371808
aF0.0005899416152340664
aF1.0000023797617672
aF0.06361249950737374
aF78.36758534272622
aF0.38882237904529404
aF0.84955487610414
aF0.5243370343642337
aF-0.005147326895881262
aF0.0005843609799205231
aF2.5128223435651815
aF0.08421500927791192
aF0.131567663371808
aF0.0005899416152340664
aF78.36758534272622
aF0.38882237904529404
aF25.844941973205326
aF0.17283757476044836
aI0
aF8.930185273139639
aI13
aa(lp169
g161
ag28
aS'2063'
p170
aF0.1295647986579516
aF0.0006033836212863168
aF1.0000011022847073
aF0.03726416086752282
aF77.62036010224747
aF0.37385977153048344
aF0.13367662977598022
aF0.9151865573059872
aF-0.00532146361105059
aF0.0005601872153202821
aF2.5442924562633253
aF0.10459630904882267
aF0.1295647986579516
aF0.0006033836212863168
aF77.62036010224747
aF0.37385977153048344
aF25.208825492965413
aF0.16889256304202163
aI0
aF16.41489854899037
aI13
aa(lp171
g161
ag28
aS'sum'
p172
aF5.267404834085112e-06
aF13.924999661442346
aF0.5269802303557631
aF1.4867804101924788e-12
aF1.1
aF6.037193780571001e-10
aF0.99
aF1.5906664369727632e-10
aF-0.0008895824477647155
aF2.9758424290721605e-10
aF1.7405632490863354e-10
aF2.0960036710848133e-09
aF5.267404834085112e-06
aF13.924999661442346
aF1.1
aF6.037193780571001e-10
aF1.452376848015033e-05
aF38.395277663158346
aI0
aF5.756164805732963e-19
aI13
aa(lp173
S'8'
p174
ag42
aS'41'
p175
aF0.11879109059468036
aF0.0004983358993832316
aF1.0000019274113254
aF0.04295678307184775
aF74.35024525572689
aF0.37419241590065155
aF0.9930613563038293
aF0.7490825194282589
aF-0.0013717934970408517
aF0.0005059254866217381
aF2.2969627587161705
aF0.06306634104201692
aF0.11879109059468036
aF0.0004983358993832316
aF74.35024525572689
aF0.37419241590065155
aF22.138908693815242
aF0.14505286143878107
aI0
aF15.008211051509896
aI13
aa(lp176
g174
ag42
aS'281'
p177
aF0.11646404025628421
aF0.00045541956305380604
aF1.0000016195379158
aF0.044914523044047305
aF77.45384589800507
aF0.3848609200287143
aF0.9932011617040447
aF0.7487292582628648
aF-0.00198725749473696
aF0.00048204412502764627
aF2.370137112075858
aF0.05911624019197714
aF0.11646404025628421
aF0.00045541956305380604
aF77.45384589800507
aF0.3848609200287143
aF22.611260500121464
aF0.14297249461251324
aI0
aF18.47262252471002
aI13
aa(lp178
g174
ag42
aS'872'
p179
aF0.11618905899850297
aF0.0004822626619005978
aF1.0000025964592236
aF0.05152939011498259
aF78.44275300380738
aF0.4108712582217322
aF0.9929598036773973
aF0.7493364702144056
aF-0.0013748567424653538
aF0.0005221940912770896
aF2.4657961630745135
aF0.05726586399282718
aF0.11618905899850297
aF0.0004822626619005978
aF78.44275300380738
aF0.4108712582217322
aF22.845885493994988
aF0.15268015586984987
aI0
aF19.853983160866257
aI13
aa(lp180
g174
ag42
aS'1783'
p181
aF0.11511261994601805
aF0.00046845495366494864
aF1.0000012986186604
aF0.04058717102205872
aF78.06830515560455
aF0.40293589802179497
aF0.989999999920308
aF0.7559345302959048
aF-0.0015034825194447433
aF0.000505950211711725
aF2.4956922939660053
aF0.058847836802950804
aF0.11511261994601805
aF0.00046845495366494864
aF78.06830515560455
aF0.40293589802179497
aF22.52618381828098
aF0.14805787288723152
aI0
aF17.740673733575235
aI13
aa(lp182
g174
ag42
aS'2063'
p183
aF0.11603041736132017
aF0.0004491432136033209
aF1.000001831642071
aF0.030014964726891413
aF78.49832782961225
aF0.39272157374659145
aF0.9900000003867109
aF0.7559345293583465
aF-0.0005795063926459338
aF0.0004937887257299826
aF2.1754663967463217
aF0.04451535018862307
aF0.11603041736132017
aF0.0004491432136033209
aF78.49832782961225
aF0.39272157374659145
aF22.830855960091746
aF0.14441890423453863
aI0
aF14.05906212190209
aI13
aa(lp184
g174
ag42
aS'sum'
p185
aF-0.0007208946951222178
aF7.334288614100234e-05
aF1.0418127276501923
aF5.279735900066526e-05
aF0.35405904028712565
aF0.0002130464778973723
aF0.9999987264683985
aF3.684714480179165e-05
aF-0.0006374620980899015
aF7.334684325293349e-05
aF4.290039589516237e-05
aF0.0003194662783968483
aF-0.0007208946951222178
aF7.334288614100234e-05
aF0.35405904028712565
aF0.0002130464778973723
aF-0.0006397900058279605
aF6.509253927558711e-05
aI0
aF3.496847116704375e-08
aI13
aa(lp186
S'9'
p187
ag28
aS'41'
p188
aF0.13291725794463696
aF0.0008154988012955809
aF1.286533554831403
aF0.04905799451972903
aF76.56806560405485
aF0.5487861534553815
aF0.4774123770819173
aF0.3684848796227085
aF0.002792079710145403
aF0.0006600927154043988
aF2.0529886372100945
aF0.04332312965419627
aF0.13291725794463696
aF0.0008154988012955809
aF76.56806560405485
aF0.5487861534553815
aF25.510500706957643
aF0.2406833405450562
aI0
aF30.222588406272965
aI19
aa(lp189
g187
ag28
aS'281'
p190
aF0.13135125247008791
aF0.0005719724738561861
aF0.9999986709243709
aF0.04566599171654118
aF78.04318753966253
aF0.45355292398468805
aF0.9945301034753845
aF0.7451325563727429
aF0.0024169132275996762
aF0.0006528292024236207
aF2.324264408821813
aF0.05222489494365634
aF0.13135125247008791
aF0.0005719724738561861
aF78.04318753966253
aF0.45355292398468805
aF25.69562298530396
aF0.18660076946213394
aI0
aF21.5708434619066
aI19
aa(lp191
g187
ag28
aS'872'
p192
aF0.13113660993716672
aF0.0005798219106791375
aF0.9999924616115933
aF0.05594549758041911
aF78.39786945912694
aF0.46419675886279776
aF0.9941011475902524
aF0.7463447322846234
aF0.0025102133455755776
aF0.0006780899634415257
aF2.5324255297410136
aF0.05835942860158405
aF0.13113660993716672
aF0.0005798219106791375
aF78.39786945912694
aF0.46419675886279776
aF25.770221238073425
aF0.19043556406279125
aI0
aF18.32426591869917
aI19
aa(lp193
g187
ag28
aS'1783'
p194
aF0.13121541082125682
aF0.0011329036917626606
aF1.6930790716811046
aF0.47896643583107157
aF80.34599975230323
aF0.5376699396528082
aF0.040183979751548804
aF0.04448564660575935
aF0.0014695262947231327
aF0.0006686503379124862
aF2.099116422319341
aF0.17524662911703037
aF0.13121541082125682
aF0.0011329036917626606
aF80.34599975230323
aF0.5376699396528082
aF26.426462882637104
aF0.2886739614324292
aI0
aF29.92691872461358
aI19
aa(lp195
g187
ag28
aS'2063'
p196
aF0.13169026038662804
aF0.0005544369220785915
aF1.000001847659233
aF0.038098287316472634
aF79.12112665691707
aF0.4597294510553738
aF0.9946508298307657
aF0.744781459436802
aF0.0014280325113571262
aF0.0006646626435402599
aF2.1325578413446293
aF0.04394951613281051
aF0.13169026038662804
aF0.0005544369220785915
aF79.12112665691707
aF0.4597294510553738
aF26.117767615526386
aF0.18740618831939804
aI0
aF23.317148437202473
aI19
aa(lp197
g187
ag28
aS'sum'
p198
aF-0.0016152072412621873
aF0.0001565135482633092
aF1.5721824488338996
aF0.00013713827314693397
aF3.5768727936721696
aF0.00047164403276252995
aF0.9796597461792487
aF8.676285937576787e-05
aF0.0035170075178683523
aF0.00015867258220552527
aF9.794954503872244e-05
aF0.0007832512096469996
aF-0.0016152072412621873
aF0.0001565135482633092
aF3.5768727936721696
aF0.00047164403276252995
aF-0.014481771226653492
aF0.0014032846315078697
aI0
aF2.3989512075615595e-07
aI19
aa.