(lp0
(lp1
S'XscanNumber_YscanNumber'
p2
aS'Type'
p3
aS'BCID'
p4
aS'xsec'
p5
aS'xsecErr'
p6
aS'normChange'
p7
aS'normChangeErr'
p8
aa(lp9
S'1_2'
p10
aS'XY'
p11
aS'sum'
p12
aF0.0038672770914960027
aF1.84375708095965e-06
aF-999.0
aF-999.0
aa(lp13
S'1_2'
p14
ag11
aS'1783'
p15
aF7468970.690570327
aF57588.159577286984
aF-999.0
aF-999.0
aa(lp16
S'1_2'
p17
ag11
aS'872'
p18
aF7517288.7898144955
aF60404.375043902415
aF-999.0
aF-999.0
aa(lp19
S'1_2'
p20
ag11
aS'41'
p21
aF7492161.793490758
aF54068.86116036566
aF-999.0
aF-999.0
aa(lp22
S'1_2'
p23
ag11
aS'281'
p24
aF7524492.897242775
aF55477.33254056451
aF-999.0
aF-999.0
aa(lp25
S'1_2'
p26
ag11
aS'2063'
p27
aF7420066.752279536
aF58319.370420471394
aF-999.0
aF-999.0
aa(lp28
S'4_3'
p29
ag11
aS'sum'
p30
aF39262.11308439204
aF1605.9077510966201
aF-999.0
aF-999.0
aa(lp31
S'4_3'
p32
ag11
aS'1783'
p33
aF7468362.036551068
aF77704.41123827334
aF-999.0
aF-999.0
aa(lp34
S'4_3'
p35
ag11
aS'872'
p36
aF7425922.776807084
aF63407.339320123916
aF-999.0
aF-999.0
aa(lp37
S'4_3'
p38
ag11
aS'41'
p39
aF7489502.644761438
aF62879.657854716046
aF-999.0
aF-999.0
aa(lp40
S'4_3'
p41
ag11
aS'281'
p42
aF7576013.625820579
aF62079.30323619377
aF-999.0
aF-999.0
aa(lp43
S'4_3'
p44
ag11
aS'2063'
p45
aF7464848.623667242
aF59807.45453114775
aF-999.0
aF-999.0
aa(lp46
S'5_6'
p47
ag11
aS'sum'
p48
aF-2.2067819436981186
aF-1.6375417138434132
aF-999.0
aF-999.0
aa(lp49
S'5_6'
p50
ag11
aS'1783'
p51
aF7431294.573829457
aF51621.91987531751
aF-999.0
aF-999.0
aa(lp52
S'5_6'
p53
ag11
aS'872'
p54
aF7521354.82841031
aF49097.6640534241
aF-999.0
aF-999.0
aa(lp55
S'5_6'
p56
ag11
aS'41'
p57
aF7421978.580797561
aF50528.43164845741
aF-999.0
aF-999.0
aa(lp58
S'5_6'
p59
ag11
aS'281'
p60
aF7707890.886687468
aF67839.06504703577
aF-999.0
aF-999.0
aa(lp61
S'5_6'
p62
ag11
aS'2063'
p63
aF7440697.515256366
aF50420.323313509536
aF-999.0
aF-999.0
aa(lp64
S'7_8'
p65
ag11
aS'sum'
p66
aF-0.01734604390150707
aF-45856.2922471486
aF-999.0
aF-999.0
aa(lp67
S'7_8'
p68
ag11
aS'1783'
p69
aF7443177.427280542
aF52356.25983233602
aF-999.0
aF-999.0
aa(lp70
S'7_8'
p71
ag11
aS'872'
p72
aF7511326.570981217
aF54208.94612743685
aF-999.0
aF-999.0
aa(lp73
S'7_8'
p74
ag11
aS'41'
p75
aF7443513.443511532
aF55465.51982868372
aF-999.0
aF-999.0
aa(lp76
S'7_8'
p77
ag11
aS'281'
p78
aF7354897.57360742
aF50750.89405377003
aF-999.0
aF-999.0
aa(lp79
S'7_8'
p80
ag11
aS'2063'
p81
aF7373329.536387638
aF51473.11512034971
aF-999.0
aF-999.0
aa(lp82
S'9_10'
p83
ag11
aS'sum'
p84
aF38.070274273185596
aF3.705676774282612
aF-999.0
aF-999.0
aa(lp85
S'9_10'
p86
ag11
aS'1783'
p87
aF7478535.637657819
aF80429.75262584229
aF-999.0
aF-999.0
aa(lp88
S'9_10'
p89
ag11
aS'872'
p90
aF7410744.034173314
aF57125.26059981929
aF-999.0
aF-999.0
aa(lp91
S'9_10'
p92
ag11
aS'41'
p93
aF7404196.650411262
aF65612.17488795702
aF-999.0
aF-999.0
aa(lp94
S'9_10'
p95
ag11
aS'281'
p96
aF7467241.020275877
aF57011.213278317344
aF-999.0
aF-999.0
aa(lp97
S'9_10'
p98
ag11
aS'2063'
p99
aF7566577.052264223
aF57314.885431116374
aF-999.0
aF-999.0
aa(lp100
S'11_12'
p101
ag11
aS'sum'
p102
aF-3.1340224207610694
aF-0.015396747969463912
aF-999.0
aF-999.0
aa(lp103
S'11_12'
p104
ag11
aS'1783'
p105
aF7598961.918915519
aF58315.86593087699
aF-999.0
aF-999.0
aa(lp106
S'11_12'
p107
ag11
aS'872'
p108
aF7584936.892178824
aF57487.761288286216
aF-999.0
aF-999.0
aa(lp109
S'11_12'
p110
ag11
aS'41'
p111
aF7560251.0648840135
aF55744.639863235425
aF-999.0
aF-999.0
aa(lp112
S'11_12'
p113
ag11
aS'281'
p114
aF7617915.593593671
aF55636.598255661134
aF-999.0
aF-999.0
aa(lp115
S'11_12'
p116
ag11
aS'2063'
p117
aF7610419.19720042
aF74361.48241210292
aF-999.0
aF-999.0
aa.