(dp0
S'OrbitDrifts_X'
p1
(lp2
(lp3
F0.382317
aF0.566695
aF3.94559
aa(lp4
F3.84856
aF6.7346
aF8.76572
aa(lp5
F10.468
aF9.051
aF9.28323
aa(lp6
F8.43775
aF5.23247
aF7.59064
aa(lp7
F0.888692
aF1.19184
aF5.87543
aa(lp8
F5.97866
aF7.46682
aF0.116614
aa(lp9
F0.116614
aF1.75609
aF-2.2041
aa(lp10
F-2.31767
aF-3.93031
aF-11.1914
aa(lp11
F-0.87981
aF-5.21464
aF-5.95177
aa(lp12
F0.07735
aF-5.85379
aF-9.57429
aa(lp13
F-10.1861
aF-11.4959
aF-11.4959
aa(lp14
F-12.1201
aF-7.53509
aF-7.53509
aa(lp15
F1.47139
aF-0.383636
aF-0.383636
aa(lp16
F2.58072
aF-0.52802
aF-0.52802
aa(lp17
F0.111739
aF0.797316
aF-2.44276
aa(lp18
F-2.34574
aF-4.57055
aF-3.06878
aa(lp19
F-2.98649
aF-1.73126
aF-1.00562
aa(lp20
F-1.14911
aF-3.68063
aF-2.86331
aa(lp21
F0.232033
aF-4.80774
aF-1.31606
aa(lp22
F-1.3012
aF5.05642
aF8.92427
aasS'TimeWindows'
p23
(lp24
(lp25
I1501228819
aI1501229371
aI1501229922
aa(lp26
I1501230043
aI1501230601
aI1501231156
aa(lp27
I1501231396
aI1501231951
aI1501232506
aa(lp28
I1501232709
aI1501233260
aI1501233812
aa(lp29
I1501235300
aI1501235943
aI1501236680
aa(lp30
I1501236692
aI1501237343
aI1501238561
aa(lp31
I1501238561
aI1501239213
aI1501239930
aa(lp32
I1501239942
aI1501240575
aI1501241838
aa(lp33
I1501245550
aI1501246102
aI1501246666
aa(lp34
I1501246831
aI1501247387
aI1501247942
aa(lp35
I1501248337
aI1501249563
aI1501249563
aa(lp36
I1501249680
aI1501250914
aI1501250914
aa(lp37
I1501261093
aI1501262384
aI1501262384
aa(lp38
I1501262497
aI1501263811
aI1501263811
aa(lp39
I1501264112
aI1501264726
aI1501265358
aa(lp40
I1501265391
aI1501266011
aI1501266636
aa(lp41
I1501266759
aI1501267394
aI1501268026
aa(lp42
I1501268123
aI1501268728
aI1501269328
aa(lp43
I1501269781
aI1501270333
aI1501270903
aa(lp44
I1501270921
aI1501271476
aI1501272031
aasS'Names'
p45
(lp46
VX1
p47
aVY1
p48
aVY2
p49
aVX2
p50
aVBIX1
p51
aVBIY1
p52
aVBIX2
p53
aVBIY2
p54
aVX3
p55
aVY3
p56
aVX4
p57
aVY4
p58
aVL1X
p59
aVL1Y
p60
aVNBIY1
p61
aVNBIX1
p62
aVNBIY2
p63
aVNBIX2
p64
aVX5
p65
aVY5
p66
asS'OrbitDrifts_Y'
p67
(lp68
(lp69
F0.219762
aF-0.205952
aF-0.583333
aa(lp70
F-0.310952
aF-1.02976
aF0.23619
aa(lp71
F5.55452
aF1.97833
aF4.90214
aa(lp72
F5.36667
aF6.083
aF5.5369
aa(lp73
F-0.329375
aF0.0175
aF1.01694
aa(lp74
F0.976
aF0.466719
aF0.0707812
aa(lp75
F0.0707812
aF-0.330156
aF0.204687
aa(lp76
F0.244062
aF0.667258
aF-2.75548
aa(lp77
F-0.33075
aF-2.68357
aF-3.43405
aa(lp78
F-3.5055
aF-5.249
aF-3.98405
aa(lp79
F-3.98405
aF-3.12571
aF-3.12571
aa(lp80
F-2.26333
aF-1.14214
aF-1.14214
aa(lp81
F1.53531
aF-0.725208
aF-0.725208
aa(lp82
F-0.164286
aF4.44755
aF4.44755
aa(lp83
F0.100156
aF-1.13172
aF-2.23
aa(lp84
F-2.21597
aF-1.27774
aF0.535
aa(lp85
F0.628871
aF1.27855
aF-0.562097
aa(lp86
F-0.800937
aF-1.32016
aF-1.13578
aa(lp87
F-0.0259524
aF-0.79381
aF-1.29463
aa(lp88
F-1.24619
aF-2.46976
aF-0.116053
aas.