(lp0
(lp1
S'Scan'
p2
aS'Type'
p3
aS'BCID'
p4
aS'sigma'
p5
aS'sigmaErr'
p6
aS'sigmaRatio'
p7
aS'sigmaRatio_Err'
p8
aS'Amp'
p9
aS'AmpErr'
p10
aS'Frac'
p11
aS'FracErr'
p12
aS'Mean'
p13
aS'MeanErr'
p14
aS'Const'
p15
aS'ConstErr'
p16
aS'CapSigma'
p17
aS'CapSigmaErr'
p18
aS'peak'
p19
aS'peakErr'
p20
aS'area'
p21
aS'areaErr'
p22
aS'fitStatus'
p23
aS'chi2'
p24
aS'ndof'
p25
aa(lp26
S'1'
p27
aS'X'
p28
aS'41'
p29
aF0.13939866296215922
aF0.0003659293874974495
aF1.0000007954046533
aF0.04351503997699224
aF69.94315917029078
aF0.23215120224396202
aF0.9947894048306861
aF0.7443727284976438
aF0.00025027840015165437
aF0.0003958244042987041
aF0.3386978562835062
aF0.030707479765122947
aF0.13939866296215922
aF0.0003659293874974495
aF69.94315917029078
aF0.23215120224396202
aF24.43958274334115
aF0.10342194688284508
aI0
aF32.88867422544475
aI19
aa(lp30
g27
ag28
aS'281'
p31
aF0.13406949624493011
aF0.00032640172910450847
aF1.0000030926452943
aF0.015087420446324384
aF78.99561626387522
aF0.25138188342916834
aF0.8122627651291583
aF0.5632564359779623
aF0.00017394017528234217
aF0.00037788646559435725
aF0.33193215019668504
aF0.02735320646079173
aF0.13406949624493011
aF0.00032640172910450847
aF78.99561626387522
aF0.25138188342916834
aF26.54745560535359
aF0.10636786432675199
aI0
aF29.81762874687473
aI19
aa(lp32
g27
ag28
aS'872'
p33
aF0.13532562795115366
aF0.0003422421687901576
aF1.0000000108722287
aF0.03889739861913177
aF77.5468326887172
aF0.2553377225385276
aF0.07352343809472422
aF0.7996163111314513
aF0.0013946086411630412
aF0.00038820891862012573
aF0.3442069607069756
aF0.030238087130732533
aF0.13532562795115366
aF0.0003422421687901576
aF77.5468326887172
aF0.2553377225385276
aF26.304742176397347
aF0.10921312275177175
aI0
aF36.07215298899348
aI19
aa(lp34
g27
ag28
aS'1783'
p35
aF0.13253503234397895
aF0.00033269209435990915
aF1.0000135337856948
aF0.04289478811605785
aF80.10261286495523
aF0.25684566135846154
aF0.995822940198261
aF0.7411042484610333
aF0.0010542824031060936
aF0.00036748437406639814
aF0.4254634068662957
aF0.03411522377942583
aF0.13253503234397895
aF0.00033269209435990915
aF80.10261286495523
aF0.25684566135846154
aF26.611374397848707
aF0.10836606941066554
aI0
aF35.144783744354804
aI19
aa(lp36
g27
ag28
aS'2063'
p37
aF0.13323506776857888
aF0.0002992559676666279
aF1.0000085112508015
aF0.04352167854864275
aF79.41642132118719
aF0.23748630401563275
aF0.9958123045677826
aF0.7411401158608926
aF0.001111199715611253
aF0.00033878691369394553
aF0.33008413090100236
aF0.023754278091178693
aF0.13323506776857888
aF0.0002992559676666279
aF79.41642132118719
aF0.23748630401563275
aF26.522764812040684
aF0.0991940878188459
aI0
aF33.18005161485124
aI19
aa(lp38
g27
ag28
aS'sum'
p39
aF-3.319468423869625e-05
aF0.001461578490692616
aF0.5278420463594762
aF0.028921698320677598
aF0.24514591331330993
aF1.2264605054982132
aF0.9900000000054819
aF0.2601349124799807
aF0.00038450278942532665
aF0.48666426339228774
aF0.3
aF0.022311344804016014
aF-3.319468423869625e-05
aF0.001461578490692616
aF0.24514591331330993
aF1.2264605054982132
aF-2.0397790819899523e-05
aF0.0009039040239386969
aI0
aF2.2500000000000004
aI19
aa(lp40
S'10'
p41
aS'Y'
p42
aS'41'
p43
aF0.1332417402766768
aF0.00033541508469503727
aF1.000004392723873
aF0.029280505644873944
aF73.98412503800014
aF0.24558491232455282
aF0.9900000798717593
aF0.7559343695780303
aF-0.00017725302812941757
aF0.00037476593653795043
aF0.38071301380241185
aF0.02839609268130383
aF0.1332417402766768
aF0.00033541508469503727
aF73.98412503800014
aF0.24558491232455282
aF24.709773962767457
aF0.10294107659383762
aI0
aF31.894501351354105
aI19
aa(lp44
S'10'
p45
ag42
aS'281'
p46
aF0.12321180175518025
aF0.00030092023049488645
aF0.9999987487834878
aF0.03145460416657819
aF82.69885299725135
aF0.2673055501465882
aF0.8164020779126605
aF0.7539095141801369
aF-0.00030687991833508444
aF0.00034344667435157785
aF0.39924017045167004
aF0.02937683416712583
aF0.12321180175518025
aF0.00030092023049488645
aF82.69885299725135
aF0.2673055501465882
aF25.541225338725802
aF0.10347330681658205
aI0
aF17.61307269097813
aI19
aa(lp47
S'10'
p48
ag42
aS'872'
p49
aF0.12448620065330451
aF0.00028897488693420496
aF0.9999989583795752
aF0.014548424266152882
aF82.1689747972024
aF0.270772862961131
aF0.6694348181814951
aF0.6651158397852975
aF0.00036268253170183894
aF0.0003544817097353114
aF0.320507338751802
aF0.02495108440382174
aF0.12448620065330451
aF0.00028897488693420496
aF82.1689747972024
aF0.270772862961131
aF25.64005869166863
aF0.10335119445007503
aI0
aF27.868639583475424
aI19
aa(lp50
S'10'
p51
ag42
aS'1783'
p52
aF0.12229097887041139
aF0.00029663572550553586
aF1.0000616318332936
aF0.029992913680886746
aF83.80011113154336
aF0.27737829412079407
aF0.9900073150007594
aF0.7559198291338501
aF-0.0005685992845435039
aF0.00034061533759398803
aF0.3972774718061073
aF0.030228774440051565
aF0.12229097887041139
aF0.00029663572550553586
aF83.80011113154336
aF0.27737829412079407
aF25.687920591955617
aF0.10541408847724278
aI0
aF27.69163209980272
aI19
aa(lp53
S'10'
p54
ag42
aS'2063'
p55
aF0.12323608721112031
aF1.8662870826364089e-06
aF1.0000013940079944
aF1.0300087376635219
aF82.63825557281832
aF0.0019004941400027064
aF0.9999971679991976
aF0.9664897868520436
aF-0.0005452231032052035
aF2.976705324113872e-06
aF0.36824887091009906
aF0.0002358128079318622
aF0.12323608721112031
aF1.8662870826364089e-06
aF82.63825557281832
aF0.0019004941400027064
aF25.52754062692753
aF0.0007029291401712754
aI0
aF49.743703272303016
aI19
aa(lp56
S'10'
p57
ag42
aS'sum'
p58
aF-0.000135970540016944
aF0.0013391458362405912
aF0.519914584003579
aF0.008624427886528719
aF1.1
aF0.9873125120721375
aF0.99
aF0.2601349124837729
aF-0.001012625423890937
aF0.48666426339228774
aF0.3
aF0.02231134480405403
aF-0.000135970540016944
aF0.0013391458362405912
aF1.1
aF0.9873125120721375
aF-0.0003749103601356495
aF0.003707716587231752
aI0
aF2.2500000000000004
aI19
aa(lp59
S'2'
p60
ag42
aS'41'
p61
aF0.1387189417878521
aF0.0005782451775572998
aF1.3470218402326375
aF1.1654686822025815
aF70.83186206611916
aF0.32987505539852435
aF0.958265103039859
aF0.19062246833464302
aF0.0017161270740631413
aF0.0003970338323072532
aF0.38430278611996815
aF0.041548689303076314
aF0.1387189417878521
aF0.0005782451775572998
aF70.83186206611916
aF0.32987505539852435
aF24.62942995359653
aF0.15393928281411973
aI0
aF10.842201839496077
aI19
aa(lp62
g60
ag42
aS'281'
p63
aF0.12869147569486114
aF0.00030657933478631707
aF0.9999785183430243
aF0.017354779721529212
aF79.48404799572182
aF0.25820493742942574
aF0.026447235930919966
aF0.5702162186821123
aF0.0006232905049292177
aF0.00035084579486725255
aF0.36585408704878897
aF0.02790323678491488
aF0.12869147569486114
aF0.00030657933478631707
aF79.48404799572182
aF0.25820493742942574
aF25.64009866409205
aF0.10328887156078809
aI0
aF23.69381904151505
aI19
aa(lp64
g60
ag42
aS'872'
p65
aF0.13101631847512263
aF0.00033347940988098264
aF1.0000016298286307
aF0.023698712133669197
aF77.69247885635171
aF0.2619395731164005
aF0.9900000185886333
aF0.755934492769005
aF0.0010020334934907518
aF0.0003782654082603437
aF0.3255430304855644
aF0.02755429441713586
aF0.13101631847512263
aF0.00033347940988098264
aF77.69247885635171
aF0.2619395731164005
aF25.514925474238982
aF0.10778553538585327
aI0
aF33.87415493788164
aI19
aa(lp66
g60
ag42
aS'1783'
p67
aF0.12758010073944182
aF0.0003127470982478691
aF1.0000134216620904
aF0.028192212920168436
aF80.43818456297448
aF0.261545802993723
aF0.9900010043053472
aF0.7559325112381132
aF0.0005301735793692194
aF0.0003554016185147203
aF0.3764265017347635
aF0.030257071540826186
aF0.12758010073944182
aF0.0003127470982478691
aF80.43818456297448
aF0.261545802993723
aF25.723800644834444
aF0.10474860706179522
aI0
aF36.059783643893915
aI19
aa(lp68
g60
ag42
aS'2063'
p69
aF0.12885001199577975
aF4.943648027420301e-08
aF1.001563841863783
aF1.1085163075550617
aF79.94698805071836
aF4.6945618016991375e-05
aF0.9999999999999949
aF0.004130590432962766
aF0.0010387740606926056
aF7.922262349865425e-08
aF0.30000000000001126
aF5.095733557336501e-10
aF0.12885001199577975
aF4.943648027420301e-08
aF79.94698805071836
aF4.6945618016991375e-05
aF25.82120490963265
aF1.8112080335952008e-05
aI0
aF47.63736136793344
aI19
aa(lp70
g60
ag42
aS'sum'
p71
aF-4.2468501769958516e-07
aF0.0008619601349512978
aF0.534238224702293
aF0.39183849899511614
aF0.22000148096334093
aF1.291417632545914
aF8.199275498371739e-05
aF0.24312592328792923
aF-0.00033222827732239373
aF0.48666426339228774
aF0.3
aF0.02231134480486529
aF-4.2468501769958516e-07
aF0.0008619601349512978
aF0.22000148096334093
aF1.291417632545914
aF-2.3419762062531153e-07
aF0.0004753401898688532
aI0
aF2.2500000000000004
aI19
aa(lp72
S'3'
p73
ag42
aS'41'
p74
aF0.13833277171307576
aF0.0003544547249750135
aF1.0000025228605496
aF0.03367354622645824
aF70.95026318394834
aF0.23533609474385742
aF0.9900000543812473
aF0.7559344208188834
aF0.0007482027203137879
aF0.0003914972915128942
aF0.3965980374270154
aF0.031035173234611496
aF0.13833277171307576
aF0.0003544547249750135
aF70.95026318394834
aF0.23533609474385742
aF24.60192123565282
aF0.10311547961253244
aI0
aF29.85683511061445
aI19
aa(lp75
g73
ag42
aS'281'
p76
aF0.12836695451462682
aF0.00030025200660436315
aF1.000005165186839
aF0.012621782502773182
aF79.98976228762683
aF0.25483100523197777
aF0.5743203551116114
aF0.6930486558173301
aF0.0011976532735874495
aF0.0003464913215265941
aF0.323901800466564
aF0.023740167017360314
aF0.12836695451462682
aF0.00030025200660436315
aF79.98976228762683
aF0.25483100523197777
aF25.738164846502265
aF0.10172364346536332
aI0
aF21.50805469937278
aI19
aa(lp77
g73
ag42
aS'872'
p78
aF0.13002489394890515
aF0.0003149087132949142
aF1.0000575790249744
aF0.056290065627688846
aF77.91227960840352
aF0.25824774562917696
aF0.9960117154122167
aF0.7404587770283249
aF0.0009288929596068875
aF0.0003643874957151963
aF0.3326070754344442
aF0.02788289454039053
aF0.13002489394890515
aF0.0003149087132949142
aF77.91227960840352
aF0.25824774562917696
aF25.393487707560944
aF0.10424390295105983
aI0
aF23.5862154117972
aI19
aa(lp79
g73
ag42
aS'1783'
p80
aF0.12669141624501118
aF0.00030562911030256615
aF1.0003539544297673
aF0.05974751055271876
aF80.97377699650175
aF0.26564487583718943
aF0.996478198731922
aF0.7387856864438643
aF0.0015860866626164823
aF0.0003522618361404629
aF0.37769696154195376
aF0.030052121386836828
aF0.12669141624501118
aF0.00030562911030256615
aF80.97377699650175
aF0.26564487583718943
aF25.71470358085834
aF0.10471331885866098
aI0
aF14.746070253115619
aI19
aa(lp81
g73
ag42
aS'2063'
p82
aF0.12903569256244063
aF0.0002610564372420223
aF0.9999996170380931
aF0.02108477830899269
aF79.55252182864828
aF0.23341967453405488
aF0.9999175500747801
aF0.7439696929987931
aF0.0005836745648624017
aF0.00031924074475781573
aF0.30000000007318156
aF0.009278442470440157
aF0.12903569256244063
aF0.0002610564372420223
aF79.55252182864828
aF0.23341967453405488
aF25.730826872797515
aF0.09170559447389022
aI0
aF27.75230812181197
aI19
aa(lp83
g73
ag42
aS'sum'
p84
aF6.805789621923193e-05
aF1874.898263045191
aF0.5269802303557631
aF0.008465864296813558
aF1.1
aF0.9873125120721375
aF0.99
aF0.2601349124837729
aF-0.0009248802661561278
aF0.48666426339228774
aF0.3
aF0.02231134480468343
aF6.805789621923193e-05
aF1874.898263045191
aF1.1
aF0.9873125120721375
aF0.00018765543167253193
aF5169.640298026193
aI0
aF2.2500000000000004
aI19
aa(lp85
S'4'
p86
ag28
aS'41'
p87
aF0.1383952452574197
aF0.0003644558107432052
aF1.0000055955255176
aF0.03508671481369441
aF71.25812713779376
aF0.2398589581960806
aF0.9900001147274258
aF0.7559342995109574
aF0.0012892103724527857
aF0.0003982482652365812
aF0.4009763470746897
aF0.0339128951584651
aF0.1383952452574197
aF0.0003644558107432052
aF71.25812713779376
aF0.2398589581960806
aF24.719831580388053
aF0.10564759404020958
aI0
aF15.97926436515226
aI19
aa(lp88
g86
ag28
aS'281'
p89
aF0.1329130438025156
aF0.0003243089653331756
aF1.000005476480136
aF0.02836033590927023
aF80.42741330043663
aF0.2531490939601966
aF0.9900002362878879
aF0.755934055148826
aF0.00048044102536756635
aF0.0003578500896278736
aF0.40537875214341873
aF0.03449321365958094
aF0.1329130438025156
aF0.0003243089653331756
aF80.42741330043663
aF0.2531490939601966
aF26.795486044165017
aF0.10671433536593676
aI0
aF28.66084863070516
aI19
aa(lp90
g86
ag28
aS'872'
p91
aF0.13440570417828251
aF0.0003229617502415474
aF1.000008299062725
aF0.04267576992343419
aF78.79887158291632
aF0.2524446642477187
aF0.9955049216328917
aF0.7421550757175183
aF0.0015420817411970385
aF0.0003750212571298188
aF0.33256499119292066
aF0.03009328716132456
aF0.13440570417828251
aF0.0003229617502415474
aF78.79887158291632
aF0.2524446642477187
aF26.547744733646155
aF0.10631466576126344
aI0
aF36.11642578734113
aI19
aa(lp92
g86
ag28
aS'1783'
p93
aF0.13191599515592106
aF0.00031917908376186154
aF1.0000265572364704
aF0.02330187424332314
aF81.55163391924665
aF0.2617600757351255
aF0.938331708880423
aF0.703522754317096
aF0.0012330765264725093
aF0.00035973071811877186
aF0.3914284939065631
aF0.03271498956669164
aF0.13191599515592106
aF0.00031917908376186154
aF81.55163391924665
aF0.2617600757351255
aF26.96621910874843
aF0.10839198775500945
aI0
aF26.313706325261087
aI19
aa(lp94
g86
ag28
aS'2063'
p95
aF0.13255242932188355
aF0.00026830306531760724
aF1.0000003025032107
aF0.009202571528247327
aF80.1989623719293
aF0.23641437881899208
aF3.1637708839404866e-06
aF0.7403063427063415
aF0.0006758471697254827
aF0.000333671102554359
aF0.30000000001041643
aF0.020780589254163456
aF0.13255242932188355
aF0.00026830306531760724
aF80.1989623719293
aF0.23641437881899208
aF26.646880548225237
aF0.09528599398814266
aI0
aF27.14496662516385
aI19
aa(lp96
g86
ag28
aS'sum'
p97
aF-3.1383928348131943e-05
aF0.0012164404923621518
aF0.519914584003579
aF0.008624427886528719
aF1.1
aF0.9873125120721375
aF0.99
aF0.2601349124837729
aF0.0
aF0.48666426339228774
aF0.3
aF0.02231134480473377
aF-3.1383928348131943e-05
aF0.0012164404923621518
aF1.1
aF0.9873125120721375
aF-8.653462638306301e-05
aF0.003354979716346565
aI0
aF2.2500000000000004
aI19
aa(lp98
S'5'
p99
ag28
aS'41'
p100
aF0.1386680394053213
aF0.0013019634367078545
aF0.500001844903732
aF1.4098839600499091
aF71.2244483986916
aF0.4517657710044247
aF0.9946320725001945
aF0.01614351031189576
aF-0.0013399587199922338
aF0.0003394860413118529
aF0.40957943305320027
aF0.43939473385439465
aF0.1386680394053213
aF0.0013019634367078545
aF71.2244483986916
aF0.4517657710044247
aF24.756851059340793
aF0.2805141052108997
aI0
aF18.793937750307908
aI13
aa(lp101
g99
ag28
aS'281'
p102
aF0.13383360116846277
aF0.0003218452985315457
aF0.9999997825766505
aF0.09645430085438844
aF80.55146095449082
aF0.21141028105315485
aF0.9914857063492251
aF0.7527984122466758
aF-0.0006800473122472233
aF0.00029712739336878785
aF0.32467636888365053
aF0.045279637266278594
aF0.13383360116846277
aF0.0003218452985315457
aF80.55146095449082
aF0.21141028105315485
aF27.022686309589787
aF0.09619217771384282
aI0
aF23.38544492467979
aI13
aa(lp103
g99
ag28
aS'872'
p104
aF0.1353084360929978
aF0.00020313166859491885
aF0.6877859461808318
aF0.9143857236268937
aF78.907142250103
aF0.1765901115814117
aF1.0
aF0.5208122132210855
aF-0.0005743810631310178
aF0.0003229310679325392
aF0.3000000000000241
aF0.03054391128722933
aF0.1353084360929978
aF0.00020313166859491885
aF78.907142250103
aF0.1765901115814117
aF26.762773812005328
aF0.07212138953049477
aI0
aF60.80839212062434
aI13
aa(lp105
g99
ag28
aS'1783'
p106
aF0.1323182605261233
aF2.1072611673853438e-07
aF1.000539419599166
aF0.9309927280255444
aF81.44634778837462
aF0.00019334658248482128
aF0.9999999999959788
aF0.7840734163159233
aF-0.0010511174255545964
aF3.329619050844566e-07
aF0.37825951301329896
aF3.7930541209652e-05
aF0.1323182605261233
aF2.1072611673853438e-07
aF81.44634778837462
aF0.00019334658248482128
aF27.013529512889146
aF7.72215890350861e-05
aI0
aF36.9581401114633
aI13
aa(lp107
g99
ag28
aS'2063'
p108
aF0.13279332083783374
aF7.361811278932155e-08
aF1.0019020550608624
aF0.9252959856051199
aF80.70866773553175
aF6.738560517760561e-05
aF0.9999999999956148
aF0.003610846182244276
aF-0.0007069477606062296
aF1.1781580254477809e-07
aF0.30000000000000493
aF9.902133280004222e-10
aF0.13279332083783374
aF7.361811278932155e-08
aF80.70866773553175
aF6.738560517760561e-05
aF26.864969033149634
aF2.6924497190360353e-05
aI0
aF77.53254067785039
aI13
aa(lp109
g99
ag28
aS'sum'
p110
aF0.012764504136577287
aF0.6315285806181736
aF0.5194225446258811
aF0.011408124114365656
aF0.4325252296656591
aF1.1431477597867472
aF0.99
aF0.27416408529958514
aF3.084019623483837
aF0.5129102485590663
aF0.3
aF0.030668302498587985
aF0.012764504136577287
aF0.6315285806181736
aF0.4325252296656591
aF1.1431477597867472
aF0.013839019714044628
aF0.6856668822347849
aI4
aF1.7100000000000004
aI13
aa(lp111
S'6'
p112
ag42
aS'41'
p113
aF0.13660570566234156
aF0.0003451325473160306
aF0.999997359190646
aF0.0492881659824696
aF71.99822870956822
aF0.2050240787320945
aF0.5675664749639133
aF0.7781369270709135
aF-0.0010526690899540499
aF0.00033012068357681564
aF0.385119288527649
aF0.047664011680467966
aF0.13660570566234156
aF0.0003451325473160306
aF71.99822870956822
aF0.2050240787320945
aF24.65361362403719
aF0.09385263420127345
aI0
aF22.593773662235623
aI13
aa(lp114
g112
ag42
aS'281'
p115
aF0.12574015332933436
aF0.0002947600075807077
aF1.00000686010512
aF0.06080944864801918
aF80.83060776856331
aF0.22872923219566133
aF0.759126847302114
aF0.5200227321089863
aF-0.0014148671800749322
aF0.00030923354260462357
aF0.4652753797649157
aF0.044425486143384596
aF0.12574015332933436
aF0.0002947600075807077
aF80.83060776856331
aF0.22872923219566133
aF25.476500019740534
aF0.09361590773630746
aI0
aF17.51444938973661
aI13
aa(lp116
g112
ag42
aS'872'
p117
aF0.12766886049009674
aF0.00031606936744076145
aF0.9999997728581149
aF0.031189266388743808
aF79.05462914384555
aF0.23058434656670812
aF0.13154358335826272
aF0.9341873640927901
aF-0.0016210422604760134
aF0.00032108701792602553
aF0.3885190070592942
aF0.04512453346511508
aF0.12766886049009674
aF0.00031606936744076145
aF79.05462914384555
aF0.23058434656670812
aF25.29893399392547
aF0.09678829258122346
aI0
aF21.05240814108343
aI13
aa(lp118
g112
ag42
aS'1783'
p119
aF0.12541973757663563
aF0.0002934435789438932
aF0.9999999837836465
aF0.051693704815096775
aF81.7171183886375
aF0.2288955961412853
aF0.8358322283634677
aF0.6115000306732795
aF-0.0012475206982586666
aF0.000300814502270994
aF0.3655465409333777
aF0.04196157156170491
aF0.12541973757663563
aF0.0002934435789438932
aF81.7171183886375
aF0.2288955961412853
aF25.690281645527424
aF0.09376132159628546
aI0
aF21.019497191343515
aI13
aa(lp120
g112
ag42
aS'2063'
p121
aF0.12707612117249076
aF0.0002715566551448105
aF1.0000000158736708
aF0.030510224677500197
aF80.76679904360338
aF0.20861803050690497
aF0.5159921643368311
aF0.6848373029020348
aF-0.0020145429779570437
aF0.0002783408134568403
aF0.3105737738746805
aF0.035150186653196414
aF0.12707612117249076
aF0.0002715566551448105
aF80.76679904360338
aF0.20861803050690497
aF25.726858360692056
aF0.08624570894013771
aI0
aF25.762526402360493
aI13
aa(lp122
g112
ag42
aS'sum'
p123
aF0.08544154842370606
aF3.72592283149642
aF0.5193250460736242
aF0.011429777880288821
aF0.4263809878716375
aF1.1466839709690926
aF0.99
aF0.27416408529958514
aF-2.1373041404164366
aF8013488.247302021
aF0.3
aF0.030668302499021003
aF0.08544154842370606
aF3.72592283149642
aF0.4263809878716375
aF1.1466839709690926
aF0.09131810192071912
aF3.989752305575331
aI4
aF1.7100000000000004
aI13
aa(lp124
S'7'
p125
ag28
aS'41'
p126
aF0.13788874436557572
aF0.00043086659598847
aF0.5009394189196452
aF1.0475938435819039
aF72.46679974469717
aF0.2172094828779052
aF0.99999142496068
aF0.6194327399031175
aF-0.0005793423218589411
aF0.0003451181495597856
aF0.4413583215063023
aF0.07470914726362915
aF0.13788874436557572
aF0.00043086659598847
aF72.46679974469717
aF0.2172094828779052
aF25.04712214241414
aF0.10845202952293875
aI0
aF12.441606149910656
aI13
aa(lp127
g125
ag28
aS'281'
p128
aF0.13373171548011437
aF1.0830858348373455e-08
aF0.9988876066407935
aF1.147219393573435
aF80.69555558868512
aF9.343298032149505e-06
aF0.9999999999999563
aF0.0007409987021845255
aF-0.000987548390684363
aF1.6781295135042755e-08
aF0.3888667484202085
aF1.9194921641318974e-06
aF0.13373171548011437
aF1.0830858348373455e-08
aF80.69555558868512
aF9.343298032149505e-06
aF27.050417092008573
aF3.822191557416419e-06
aI0
aF27.808302973599314
aI13
aa(lp129
g125
ag28
aS'872'
p130
aF0.13424734535250113
aF0.0003317616769664221
aF1.000027091598254
aF0.16858041603084128
aF80.03925852125691
aF0.2211696264048797
aF0.9913623033260701
aF0.7530711486152173
aF-0.0007575414972128719
aF0.00030912653851489235
aF0.3280672475213103
aF0.047107857471995945
aF0.13424734535250113
aF0.0003317616769664221
aF80.03925852125691
aF0.2211696264048797
aF26.933866146373756
aF0.099847347013016
aI0
aF16.823695067462772
aI13
aa(lp131
g125
ag28
aS'1783'
p132
aF0.1327702949586869
aF0.00024128513789401467
aF1.000000009332354
aF0.03148295831708875
aF82.01170454465671
aF0.2246960154785711
aF0.009654731051932153
aF0.9570642248183155
aF-0.0009032296509144399
aF0.00029575545908801264
aF0.30000000000388405
aF0.5165431206552543
aF0.1327702949586869
aF0.00024128513789401467
aF82.01170454465671
aF0.2246960154785711
aF27.29396892077235
aF0.08973513402748821
aI0
aF21.28134676622563
aI13
aa(lp133
g125
ag28
aS'2063'
p134
aF0.1331226496779398
aF2.048592696213974e-06
aF1.0007082739448454
aF0.7884560630630406
aF80.85262241816604
aF0.0018542105673020615
aF0.9999999999766496
aF0.696010437011658
aF-0.0005820937367286914
aF3.260158764236474e-06
aF0.30000000000000876
aF3.6050072043380954e-06
aF0.1331226496779398
aF2.048592696213974e-06
aF80.85262241816604
aF0.0018542105673020615
aF26.979630534236062
aF0.0007451197244480443
aI0
aF46.20522883713556
aI13
aa(lp135
g125
ag28
aS'sum'
p136
aF5.0638159458417376e-06
aF1.1304267133467418
aF0.528593279075672
aF0.011608771986351294
aF0.43900077959691575
aF1.1394664887477517
aF0.99
aF0.27416408529958514
aF5.553808216903348
aF0.5129102485590663
aF0.3
aF0.030668302489553663
aF5.0638159458417376e-06
aF1.1304267133467418
aF0.43900077959691575
aF1.1394664887477517
aF5.57228265132219e-06
aF1.2439348568684854
aI0
aF1.7100000000000004
aI13
aa(lp137
S'8'
p138
ag42
aS'41'
p139
aF0.136056472343991
aF0.00032541392541516435
aF0.6854148976867483
aF0.40571192527455424
aF72.6708900627964
aF0.22978383042773487
aF0.9891764285783174
aF0.04629429859261802
aF-0.00019907220105160606
aF0.00033543287248847826
aF0.30000000043584085
aF0.1824926449594469
aF0.136056472343991
aF0.00032541392541516435
aF72.6708900627964
aF0.22978383042773487
aF24.783898397765714
aF0.09825998280783452
aI0
aF17.759662107389175
aI13
aa(lp140
g138
ag42
aS'281'
p141
aF0.1253289647973679
aF0.0005795357446598325
aF1.9999999918181484
aF1.4074699662574754
aF81.84598096766074
aF0.3476063671735261
aF0.0032292662458099364
aF0.00908260960514562
aF0.0003081056025881904
aF0.00029316069388298676
aF0.3144904724793963
aF0.549994926131282
aF0.1253289647973679
aF0.0005795357446598325
aF81.84598096766074
aF0.3476063671735261
aF25.712170836293133
aF0.16143504006647247
aI0
aF28.697842769197088
aI13
aa(lp142
g138
ag42
aS'872'
p143
aF0.12695935053922042
aF5.488478538421452e-08
aF1.000833561078519
aF0.9695791902757248
aF80.22198841421489
aF5.246095388855565e-05
aF0.999999999973658
aF0.018266087019459643
aF0.0005790920670059399
aF8.778127654981666e-08
aF0.30000000000002
aF3.56600421413944e-09
aF0.12695935053922042
aF5.488478538421452e-08
aF80.22198841421489
aF5.246095388855565e-05
aF25.52983739348227
aF2.0013375723066466e-05
aI0
aF31.327684232141365
aI13
aa(lp144
g138
ag42
aS'1783'
p145
aF0.12466923877926223
aF2.7811209263503725e-08
aF1.00072060429193
aF0.8887515766822907
aF82.44371425371459
aF2.7408837269149444e-05
aF0.9999999999961278
aF0.009494291288835888
aF0.00043618235626066145
aF4.4053711712937907e-08
aF0.40632261226277183
aF4.947898580492938e-06
aF0.12466923877926223
aF2.7811209263503725e-08
aF82.44371425371459
aF2.7408837269149444e-05
aF25.76361444518553
aF1.0314816124694504e-05
aI0
aF31.979395461763943
aI13
aa(lp146
g138
ag42
aS'2063'
p147
aF0.12594549003544864
aF0.00027485234423061755
aF1.0000001304586472
aF0.029352640905089045
aF81.20845699461991
aF0.2100320997145957
aF0.04969092232736383
aF0.5074755360711987
aF0.0004565076184958382
aF0.0002780083572112338
aF0.42505620104997227
aF0.04049380998563204
aF0.12594549003544864
aF0.00027485234423061755
aF81.20845699461991
aF0.2100320997145957
aF25.63739020321028
aF0.0867574849433909
aI0
aF18.232706575845164
aI13
aa(lp148
g138
ag42
aS'sum'
p149
aF-0.0032152002058328595
aF0.512690146365426
aF1.1566266615223177
aF0.39101657853607424
aF3.309106154083069
aF1.4922133417994614
aF0.6311733648281757
aF0.2878431144970183
aF-0.02286798108481896
aF0.5128705461484724
aF0.3
aF0.02531942337832631
aF-0.0032152002058328595
aF0.512690146365426
aF3.309106154083069
aF1.4922133417994614
aF-0.026669118091531458
aF4.252627474576625
aI0
aF1.7100000000009095
aI13
aa(lp150
S'9'
p151
ag28
aS'41'
p152
aF0.1380559494482909
aF0.0003548675341705129
aF1.0000022668243704
aF0.033310798539436026
aF73.73689027459179
aF0.24043073319134578
aF0.021886754543842257
aF0.6415227838591242
aF-0.002135765019217914
aF0.0003884689607973831
aF0.39987448884103965
aF0.033847562755505906
aF0.1380559494482909
aF0.0003548675341705129
aF73.73689027459179
aF0.24043073319134578
aF25.517015609325366
aF0.10594682038938874
aI0
aF26.03715762553664
aI19
aa(lp153
g151
ag28
aS'281'
p154
aF0.13447552495654458
aF7.483123471693984e-08
aF1.0012188595976432
aF0.8892459108998471
aF82.49703526057488
aF6.776912058370499e-05
aF0.9999999999830673
aF0.010429038566236781
aF-0.0014462988041901203
aF1.1869914347722722e-07
aF0.32271761022734796
aF9.073365898587538e-06
aF0.13447552495654458
aF7.483123471693984e-08
aF82.49703526057488
aF6.776912058370499e-05
aF27.808113276089184
aF2.759140048521214e-05
aI0
aF42.78857805136989
aI19
aa(lp155
g151
ag28
aS'872'
p156
aF0.13454003399684406
aF0.0003191371876401105
aF1.000000345488575
aF0.018160934205731116
aF81.70499821654329
aF0.26068079972169045
aF2.1218893458962995e-05
aF0.7050511519038754
aF-0.001983418815342966
aF0.00036894707771195883
aF0.36085249332710806
aF0.03318186096432321
aF0.13454003399684406
aF0.0003191371876401105
aF81.70499821654329
aF0.26068079972169045
aF27.55434502130133
aF0.10954729725468629
aI0
aF37.50612147014139
aI19
aa(lp157
g151
ag28
aS'1783'
p158
aF0.13345970271249097
aF0.000315722543422195
aF1.000009509895695
aF0.04341038959145721
aF83.51534840747604
aF0.264307951270645
aF0.9955562614490339
aF0.7419883783875477
aF-0.0011866551687432971
aF0.00036272109230426366
aF0.3233988771588493
aF0.029219533219828314
aF0.13345970271249097
aF0.000315722543422195
aF83.51534840747604
aF0.264307951270645
aF27.93871223470309
aF0.11039249048169034
aI0
aF32.67950192909343
aI19
aa(lp159
g151
ag28
aS'2063'
p160
aF0.1338212113919455
aF5.8492469922751756e-08
aF1.0020297605190294
aF0.996131544294794
aF82.53024767433249
aF5.364026126386534e-05
aF0.9999999999958349
aF0.0031206500041778273
aF-0.0015784336423949144
aF9.270170933555435e-08
aF0.32237497361479933
aF6.736620699332452e-06
aF0.1338212113919455
aF5.8492469922751756e-08
aF82.53024767433249
aF5.364026126386534e-05
aF27.683948939037556
aF2.168347847375745e-05
aI0
aF43.83439294743753
aI19
aa(lp161
g151
ag28
aS'sum'
p162
aF2.4251495604954597e-06
aF0.002628053469286694
aF0.5269802303557631
aF0.00861646649563226
aF1.1
aF0.9873125120721375
aF0.99
aF0.2601349124837729
aF0.0
aF0.48666426339228774
aF0.3
aF0.022311344804100724
aF2.4251495604954597e-06
aF0.002628053469286694
aF1.1
aF0.9873125120721375
aF6.68684330440155e-06
aF0.007246310932223497
aI0
aF2.2500000000000004
aI19
aa.