(dp0
S'Scan_20'
p1
(lp2
(lp3
I20
aVB2X5
p4
aS'1'
p5
a(lp6
(dp7
S'265'
p8
cnumpy.core.multiarray
scalar
p9
(cnumpy
dtype
p10
(S'f8'
p11
I0
I1
tp12
Rp13
(I3
S'<'
p14
NNNI-1
I-1
I0
tp15
bS'\x8a<1\xd4\x86\x95\xcb?'
p16
tp17
Rp18
sa(dp19
g8
g9
(g13
S'\x05\x82\xc9\x8f\xf1\xb9S?'
p20
tp21
Rp22
saaa(lp23
I20
ag4
aS'2'
p24
a(lp25
(dp26
g8
g9
(g13
S'\xcdL\xa4\x10\x1f\xbd\xd4?'
p27
tp28
Rp29
sa(dp30
g8
g9
(g13
S"\xe3'\x80\xba\xba\xf5W?"
p31
tp32
Rp33
saaa(lp34
I20
ag4
aS'3'
p35
a(lp36
(dp37
g8
g9
(g13
S'\x02s(W\r\xef\xc9?'
p38
tp39
Rp40
sa(dp41
g8
g9
(g13
S"\x0cC+\xb9\xe0'S?"
p42
tp43
Rp44
saaasS'Scan_18'
p45
(lp46
(lp47
I18
aVB2X3
p48
ag5
a(lp49
(dp50
g8
g9
(g13
S'B\xca\xb3*\xe5\\\xcb?'
p51
tp52
Rp53
sa(dp54
g8
g9
(g13
S'M\x9b\x9c\xd4\x8e\xadS?'
p55
tp56
Rp57
saaa(lp58
I18
ag48
ag24
a(lp59
(dp60
g8
g9
(g13
S'.\x06\x93\xdfp\xaa\xd4?'
p61
tp62
Rp63
sa(dp64
g8
g9
(g13
S'_?\xabC\xbb\rX?'
p65
tp66
Rp67
saaa(lp68
I18
ag48
ag35
a(lp69
(dp70
g8
g9
(g13
S'\x0eZ\xa5\xecd\xc3\xca?'
p71
tp72
Rp73
sa(dp74
g8
g9
(g13
S'ym^\x01A>S?'
p75
tp76
Rp77
saaasS'Scan_19'
p78
(lp79
(lp80
I19
aVB2X4
p81
ag5
a(lp82
(dp83
g8
g9
(g13
S'\xf0\x95\xeaM\x17 \xcb?'
p84
tp85
Rp86
sa(dp87
g8
g9
(g13
S'\xe3\x8b\xb7r\xa7\x15U?'
p88
tp89
Rp90
saaa(lp91
I19
ag81
ag24
a(lp92
(dp93
g8
g9
(g13
S'\x8b\x1ds\xbfu\xda\xd4?'
p94
tp95
Rp96
sa(dp97
g8
g9
(g13
S'\x18<"\xaa5WX?'
p98
tp99
Rp100
saaa(lp101
I19
ag81
ag35
a(lp102
(dp103
g8
g9
(g13
S'TMbl\xb8\xd5\xca?'
p104
tp105
Rp106
sa(dp107
g8
g9
(g13
S'\xe3\xbc\xa7)2QS?'
p108
tp109
Rp110
saaasS'Scan_16'
p111
(lp112
(lp113
I16
aVB2X1
p114
ag5
a(lp115
(dp116
g8
g9
(g13
S'\xfe\xbf\r\xae\x9e\xbd\xca?'
p117
tp118
Rp119
sa(dp120
g8
g9
(g13
S'\x92\xbf-\xa4\xaf\xb3S?'
p121
tp122
Rp123
saaa(lp124
I16
ag114
ag24
a(lp125
(dp126
g8
g9
(g13
S'\xa4y\xe5X\x0b\xe0\xd4?'
p127
tp128
Rp129
sa(dp130
g8
g9
(g13
S'\x19\xb1\x03\xd4\xca\x0fX?'
p131
tp132
Rp133
saaa(lp134
I16
ag114
ag35
a(lp135
(dp136
g8
g9
(g13
S'\x8c\xe3\xbd\xb2\xa9\xcf\xca?'
p137
tp138
Rp139
sa(dp140
g8
g9
(g13
S'j\x13D\xf0\xf4JS?'
p141
tp142
Rp143
saaasS'Scan_17'
p144
(lp145
(lp146
I17
aVB2X2
p147
ag5
a(lp148
(dp149
g8
g9
(g13
S'\x10T\xc0\x06Dw\xcb?'
p150
tp151
Rp152
sa(dp153
g8
g9
(g13
S'\xa1/%\r@\x7fS?'
p154
tp155
Rp156
saaa(lp157
I17
ag147
ag24
a(lp158
(dp159
g8
g9
(g13
S'\xa8\xb9\xf8\xe1\x88\xbb\xd4?'
p160
tp161
Rp162
sa(dp163
g8
g9
(g13
S'\xe5\x10\xa7\x19D\tX?'
p164
tp165
Rp166
saaa(lp167
I17
ag147
ag35
a(lp168
(dp169
g8
g9
(g13
S'\xc3\x1d\x11\xff\xb0\xf4\xca?'
p170
tp171
Rp172
sa(dp173
g8
g9
(g13
S'G\xd2~\xb8\xeb{S?'
p174
tp175
Rp176
saaasS'Scan_14'
p177
(lp178
(lp179
I14
aVB2Y4
p180
ag5
a(lp181
(dp182
g8
g9
(g13
S'\\&\r*\x94*\xc5?'
p183
tp184
Rp185
sa(dp186
g8
g9
(g13
S'\xb5R5\xe7\x9f\x0eQ?'
p187
tp188
Rp189
saaa(lp190
I14
ag180
ag24
a(lp191
(dp192
g8
g9
(g13
S'\xdc\xbb9\xd9Q\xd9\xd4?'
p193
tp194
Rp195
sa(dp196
g8
g9
(g13
S'\xc0\x90\xd6\xf8\x0c\x11X?'
p197
tp198
Rp199
saaa(lp200
I14
ag180
ag35
a(lp201
(dp202
g8
g9
(g13
S'l\xb8f\x87\xad\x04\xc5?'
p203
tp204
Rp205
sa(dp206
g8
g9
(g13
S'{\x13]G\xf2\xdbP?'
p207
tp208
Rp209
saaasS'Scan_15'
p210
(lp211
(lp212
I15
aVB2Y5
p213
ag5
a(lp214
(dp215
g8
g9
(g13
S'Q\xaej\xaai=\xc4?'
p216
tp217
Rp218
sa(dp219
g8
g9
(g13
S'I\xe1\x11\xc1e\xaeP?'
p220
tp221
Rp222
saaa(lp223
I15
ag213
ag24
a(lp224
(dp225
g8
g9
(g13
S'ai\xf0\xd7\x90\xca\xd4?'
p226
tp227
Rp228
sa(dp229
g8
g9
(g13
S'\xd3\x1d\x9e\x89\x93\xfeW?'
p230
tp231
Rp232
saaa(lp233
I15
ag213
ag35
a(lp234
(dp235
g8
g9
(g13
S'\xe7J"N\xaeL\xc5?'
p236
tp237
Rp238
sa(dp239
g8
g9
(g13
S"\xc1\x13'h\x0f$Q?"
p240
tp241
Rp242
saaasS'Scan_12'
p243
(lp244
(lp245
I12
aVB2Y2
p246
ag5
a(lp247
(dp248
g8
g9
(g13
S'b\x14\x04g\x02\xd0\xc5?'
p249
tp250
Rp251
sa(dp252
g8
g9
(g13
S'\xfc\x15v\xfb\xfdMQ?'
p253
tp254
Rp255
saaa(lp256
I12
ag246
ag24
a(lp257
(dp258
g8
g9
(g13
S'\x93\xb9\xc6\x015\xcc\xd4?'
p259
tp260
Rp261
sa(dp262
g8
g9
(g13
S'<\xea\x0c\xfc\x85\x16X?'
p263
tp264
Rp265
saaa(lp266
I12
ag246
ag35
a(lp267
(dp268
g8
g9
(g13
S'\x1e\xcd\x08\\po\xc4?'
p269
tp270
Rp271
sa(dp272
g8
g9
(g13
S'P\xa4M\xd2\xb0\xfbP?'
p273
tp274
Rp275
saaasS'Scan_13'
p276
(lp277
(lp278
I13
aVB2Y3
p279
ag5
a(lp280
(dp281
g8
g9
(g13
S'\x9e\x1d\xc2~\x85\x9b\xc5?'
p282
tp283
Rp284
sa(dp285
g8
g9
(g13
S'\xb8hF\x8eJuQ?'
p286
tp287
Rp288
saaa(lp289
I13
ag279
ag24
a(lp290
(dp291
g8
g9
(g13
S'\xa3~%{W\xbd\xd4?'
p292
tp293
Rp294
sa(dp295
g8
g9
(g13
S'w\x1b-\xcc\xaeLX?'
p296
tp297
Rp298
saaa(lp299
I13
ag279
ag35
a(lp300
(dp301
g8
g9
(g13
S'\x83b\xe3w\xaaw\xc4?'
p302
tp303
Rp304
sa(dp305
g8
g9
(g13
S'\x00\xf3o\xd5\x80\xf8P?'
p306
tp307
Rp308
saaasS'Scan_10'
p309
(lp310
(lp311
I10
aVB1X5
p312
ag5
a(lp313
(dp314
g8
g9
(g13
S'\x8a\xf7\xe6B\rV\xcb?'
p315
tp316
Rp317
sa(dp318
g8
g9
(g13
S'\xe3],\xdc[zS?'
p319
tp320
Rp321
saaa(lp322
I10
ag312
ag24
a(lp323
(dp324
g8
g9
(g13
S'\x94A?y\xf0\xb2\xd4?'
p325
tp326
Rp327
sa(dp328
g8
g9
(g13
S'\xe8bA\x91\xf72X?'
p329
tp330
Rp331
saaa(lp332
I10
ag312
ag35
a(lp333
(dp334
g8
g9
(g13
S'm\xac2\x82\x9b\x00\xcb?'
p335
tp336
Rp337
sa(dp338
g8
g9
(g13
S'R\xbf\x02x\xc3\x98S?'
p339
tp340
Rp341
saaasS'Scan_11'
p342
(lp343
(lp344
I11
aVB2Y1
p345
ag5
a(lp346
(dp347
g8
g9
(g13
S'\xeb\x98s\xa8%\xa7\xc5?'
p348
tp349
Rp350
sa(dp351
g8
g9
(g13
S'\xf0F\xee\xa7F@Q?'
p352
tp353
Rp354
saaa(lp355
I11
ag345
ag24
a(lp356
(dp357
g8
g9
(g13
S'\xdbl\xa8(;\xcd\xd4?'
p358
tp359
Rp360
sa(dp361
g8
g9
(g13
S'q\xe6h\xe4\xb7GX?'
p362
tp363
Rp364
saaa(lp365
I11
ag345
ag35
a(lp366
(dp367
g8
g9
(g13
S'\xd4\xd3=\\_0\xc4?'
p368
tp369
Rp370
sa(dp371
g8
g9
(g13
S'\xd6\x18 \xc4L\xd8P?'
p372
tp373
Rp374
saaasS'Scan_4'
p375
(lp376
(lp377
I4
aVB1Y4
p378
ag5
a(lp379
(dp380
g8
g9
(g13
S'O\xb1\xae@J\x92\xc5?'
p381
tp382
Rp383
sa(dp384
g8
g9
(g13
S'b\xb0\xd2\x8dE@Q?'
p385
tp386
Rp387
saaa(lp388
I4
ag378
ag24
a(lp389
(dp390
g8
g9
(g13
S'\xf9;:\xae\xb2\xc2\xd4?'
p391
tp392
Rp393
sa(dp394
g8
g9
(g13
S'Q\xdd\x8b\x18$\xc3W?'
p395
tp396
Rp397
saaa(lp398
I4
ag378
ag35
a(lp399
(dp400
g8
g9
(g13
S'\xbbh\xa6J\n\xbb\xc3?'
p401
tp402
Rp403
sa(dp404
g8
g9
(g13
S'y{\x84G\x93\x86P?'
p405
tp406
Rp407
saaasS'Scan_5'
p408
(lp409
(lp410
I5
aVB1Y5
p411
ag5
a(lp412
(dp413
g8
g9
(g13
S"\x86M\x91'=\x11\xc6?"
p414
tp415
Rp416
sa(dp417
g8
g9
(g13
S'\xafd\xe0@\x87bQ?'
p418
tp419
Rp420
saaa(lp421
I5
ag411
ag24
a(lp422
(dp423
g8
g9
(g13
S'\x14\xdf?]V\xdd\xd4?'
p424
tp425
Rp426
sa(dp427
g8
g9
(g13
S'U\xcb\xf0@\xae\x07X?'
p428
tp429
Rp430
saaa(lp431
I5
ag411
ag35
a(lp432
(dp433
g8
g9
(g13
S'\xa2\xa8\xads\xb3p\xc3?'
p434
tp435
Rp436
sa(dp437
g8
g9
(g13
S'\x8e0\x15\xc5o\x94P?'
p438
tp439
Rp440
saaasS'Scan_6'
p441
(lp442
(lp443
I6
aVB1X1
p444
ag5
a(lp445
(dp446
g8
g9
(g13
S'\xd9\xae\x9e(\x9d\xd9\xcb?'
p447
tp448
Rp449
sa(dp450
g8
g9
(g13
S'\xa4"\x05\xe6\x87\xa8S?'
p451
tp452
Rp453
saaa(lp454
I6
ag444
ag24
a(lp455
(dp456
g8
g9
(g13
S'\xbbFV\xb4\xb2\xae\xd4?'
p457
tp458
Rp459
sa(dp460
g8
g9
(g13
S't\n\\\x92\x92\xacW?'
p461
tp462
Rp463
saaa(lp464
I6
ag444
ag35
a(lp465
(dp466
g8
g9
(g13
S'\x84\xc3\x9a\x1bz\xec\xca?'
p467
tp468
Rp469
sa(dp470
g8
g9
(g13
S'\xc9-6b\t\x8aS?'
p471
tp472
Rp473
saaasS'Scan_7'
p474
(lp475
(lp476
I7
aVB1X2
p477
ag5
a(lp478
(dp479
g8
g9
(g13
S'\x06\xf39\xc5\xa0\xb6\xcb?'
p480
tp481
Rp482
sa(dp483
g8
g9
(g13
S'-\x9a\x8e\xc2\xf3\x91S?'
p484
tp485
Rp486
saaa(lp487
I7
ag477
ag24
a(lp488
(dp489
g8
g9
(g13
S'\xe9%\r"B\xef\xd4?'
p490
tp491
Rp492
sa(dp493
g8
g9
(g13
S'\x81\x81\xc8S\\\xaeX?'
p494
tp495
Rp496
saaa(lp497
I7
ag477
ag35
a(lp498
(dp499
g8
g9
(g13
S's&\xe1\x13Z\x19\xcb?'
p500
tp501
Rp502
sa(dp503
g8
g9
(g13
S'nm\xc9\xcfVYS?'
p504
tp505
Rp506
saaasS'Scan_1'
p507
(lp508
(lp509
I1
aVB1Y1
p510
ag5
a(lp511
(dp512
g8
g9
(g13
S'o\x87\xb8\xd3\xc3k\xc4?'
p513
tp514
Rp515
sa(dp516
g8
g9
(g13
S'\xd9B\xf4/\x9d\xcbP?'
p517
tp518
Rp519
saaa(lp520
I1
ag510
ag24
a(lp521
(dp522
g8
g9
(g13
S'\xe2\x1a\x0b\x9bE\xdc\xd4?'
p523
tp524
Rp525
sa(dp526
g8
g9
(g13
S'\x87i2dj\tX?'
p527
tp528
Rp529
saaa(lp530
I1
ag510
ag35
a(lp531
(dp532
g8
g9
(g13
S'z\x84\xd0\x16n`\xc5?'
p533
tp534
Rp535
sa(dp536
g8
g9
(g13
S'\x1aE\x8c@IqQ?'
p537
tp538
Rp539
saaasS'Scan_2'
p540
(lp541
(lp542
I2
aVB1Y2
p543
ag5
a(lp544
(dp545
g8
g9
(g13
S'\x1a+M\xa6\xab!\xc5?'
p546
tp547
Rp548
sa(dp549
g8
g9
(g13
S'\x01\x88\xadw\xc1\rQ?'
p550
tp551
Rp552
saaa(lp553
I2
ag543
ag24
a(lp554
(dp555
g8
g9
(g13
S'\n\xf5\x96p\x1c\xee\xd4?'
p556
tp557
Rp558
sa(dp559
g8
g9
(g13
S'\x98\xe5\xf1\xd7\xdb\xa3X?'
p560
tp561
Rp562
saaa(lp563
I2
ag543
ag35
a(lp564
(dp565
g8
g9
(g13
S'g\x08Mu\x86\xd0\xc4?'
p566
tp567
Rp568
sa(dp569
g8
g9
(g13
S'\xbc\x08\xb6\xde\xb3\xc8P?'
p570
tp571
Rp572
saaasS'Scan_3'
p573
(lp574
(lp575
I3
aVB1Y3
p576
ag5
a(lp577
(dp578
g8
g9
(g13
S'Y\xe2q\x97\xe4]\xc5?'
p579
tp580
Rp581
sa(dp582
g8
g9
(g13
S'\xfclUl\xc9\x17Q?'
p583
tp584
Rp585
saaa(lp586
I3
ag576
ag24
a(lp587
(dp588
g8
g9
(g13
S'[\x0b\xd1\x99\xd1\xd0\xd4?'
p589
tp590
Rp591
sa(dp592
g8
g9
(g13
S'iF\x97(\xa7\x92X?'
p593
tp594
Rp595
saaa(lp596
I3
ag576
ag35
a(lp597
(dp598
g8
g9
(g13
S'Q\xc8\xa2\xff\x05\xee\xc3?'
p599
tp600
Rp601
sa(dp602
g8
g9
(g13
S'nB\xd3[E\x94P?'
p603
tp604
Rp605
saaasS'Scan_8'
p606
(lp607
(lp608
I8
aVB1X3
p609
ag5
a(lp610
(dp611
g8
g9
(g13
S'4o\xb3\xa2]\xf0\xcb?'
p612
tp613
Rp614
sa(dp615
g8
g9
(g13
S'\xa0\x83\xdbC\x18\xebS?'
p616
tp617
Rp618
saaa(lp619
I8
ag609
ag24
a(lp620
(dp621
g8
g9
(g13
S'\x0b>\xa8\xd7#\xac\xd4?'
p622
tp623
Rp624
sa(dp625
g8
g9
(g13
S'`\x18\xd9\xdcS\x93X?'
p626
tp627
Rp628
saaa(lp629
I8
ag609
ag35
a(lp630
(dp631
g8
g9
(g13
S'\xa0ejk\xa1A\xca?'
p632
tp633
Rp634
sa(dp635
g8
g9
(g13
S'\x1a\xf9uP\xe2\rS?'
p636
tp637
Rp638
saaasS'Scan_9'
p639
(lp640
(lp641
I9
aVB1X4
p642
ag5
a(lp643
(dp644
g8
g9
(g13
S'vr}\x93\xcc\xc0\xcb?'
p645
tp646
Rp647
sa(dp648
g8
g9
(g13
S'\x0bu\xb8\xd1j\xb5S?'
p649
tp650
Rp651
saaa(lp652
I9
ag642
ag24
a(lp653
(dp654
g8
g9
(g13
S'\xd8+\xb6\x07\x91\xc0\xd4?'
p655
tp656
Rp657
sa(dp658
g8
g9
(g13
S'PG\x95\xcd,\xbeW?'
p659
tp660
Rp661
saaa(lp662
I9
ag642
ag35
a(lp663
(dp664
g8
g9
(g13
S'\xac(\x14\x15\xd5!\xcb?'
p665
tp666
Rp667
sa(dp668
g8
g9
(g13
S'K\x10g\x19\x95nS?'
p669
tp670
Rp671
saaas.