(dp0
S'OrbitDrifts_X'
p1
(lp2
(lp3
F0.98796
aF1.78058
aF4.66201
aa(lp4
F3.96183
aF6.87134
aF8.72848
aa(lp5
F10.1825
aF8.67955
aF9.28062
aa(lp6
F8.34639
aF7.01935
aF8.26013
aa(lp7
F1.9558
aF1.84077
aF5.3691
aa(lp8
F5.97902
aF7.26928
aF5.66303
aa(lp9
F-0.341819
aF2.45052
aF-0.134038
aa(lp10
F-0.175298
aF-1.18174
aF-2.3333
aa(lp11
F-0.229071
aF-3.93052
aF-6.30759
aa(lp12
F-7.1948
aF-14.1317
aF-18.2242
aa(lp13
F-17.8188
aF-20.3214
aF-20.3214
aa(lp14
F-20.1377
aF-14.3992
aF-14.3992
aa(lp15
F2.49926
aF-0.175179
aF-0.175179
aa(lp16
F2.82756
aF0.656675
aF0.656675
aa(lp17
F0.401087
aF1.1407
aF-2.11837
aa(lp18
F-1.6677
aF-5.20704
aF-3.05889
aa(lp19
F-3.32689
aF-2.95089
aF-2.63707
aa(lp20
F-1.14714
aF-3.87372
aF-3.27181
aa(lp21
F-0.585001
aF-5.30711
aF-3.12313
aa(lp22
F-3.31211
aF3.31272
aF7.47349
aasS'TimeWindows'
p23
(lp24
(lp25
I1501228833
aI1501229373
aI1501229918
aa(lp26
I1501230048
aI1501230603
aI1501231158
aa(lp27
I1501231398
aI1501231953
aI1501232508
aa(lp28
I1501232708
aI1501233263
aI1501233808
aa(lp29
I1501235319
aI1501235944
aI1501236609
aa(lp30
I1501236719
aI1501237344
aI1501237929
aa(lp31
I1501238619
aI1501239214
aI1501239879
aa(lp32
I1501239964
aI1501240574
aI1501241159
aa(lp33
I1501245549
aI1501246104
aI1501246674
aa(lp34
I1501246824
aI1501247384
aI1501247944
aa(lp35
I1501248314
aI1501249580
aI1501249580
aa(lp36
I1501249665
aI1501250930
aI1501250930
aa(lp37
I1501261104
aI1501262369
aI1501262369
aa(lp38
I1501262504
aI1501263799
aI1501263799
aa(lp39
I1501264129
aI1501264729
aI1501265320
aa(lp40
I1501265405
aI1501266010
aI1501266620
aa(lp41
I1501266775
aI1501267395
aI1501268010
aa(lp42
I1501268130
aI1501268730
aI1501269325
aa(lp43
I1501269775
aI1501270335
aI1501270880
aa(lp44
I1501270935
aI1501271475
aI1501272014
aasS'Names'
p45
(lp46
VX1
p47
aVY1
p48
aVY2
p49
aVX2
p50
aVBIX1
p51
aVBIY1
p52
aVBIX2
p53
aVBIY2
p54
aVX3
p55
aVY3
p56
aVX4
p57
aVY4
p58
aVL1X
p59
aVL1Y
p60
aVNBIY1
p61
aVNBIX1
p62
aVNBIY2
p63
aVNBIX2
p64
aVX5
p65
aVY5
p66
asS'OrbitDrifts_Y'
p67
(lp68
(lp69
F0.630236
aF0.631679
aF-0.0332239
aa(lp70
F0.568959
aF-0.939554
aF-0.00566378
aa(lp71
F0.414234
aF-1.78804
aF-0.656858
aa(lp72
F0.0487904
aF1.02914
aF-0.335276
aa(lp73
F-0.5479
aF-0.133726
aF1.25268
aa(lp74
F4.16632
aF0.091254
aF1.02872
aa(lp75
F-0.657085
aF-0.0679998
aF-0.44608
aa(lp76
F-1.45897
aF0.226913
aF0.168173
aa(lp77
F-0.156701
aF-2.53972
aF-3.61268
aa(lp78
F-3.70171
aF-5.19778
aF-4.01041
aa(lp79
F-4.3554
aF-2.9379
aF-2.9379
aa(lp80
F-2.63601
aF-1.30985
aF-1.30985
aa(lp81
F0.339168
aF-1.66826
aF-1.66826
aa(lp82
F-0.678884
aF3.25367
aF3.25367
aa(lp83
F0.493904
aF-0.646986
aF-1.96014
aa(lp84
F-1.16051
aF-0.115149
aF1.8126
aa(lp85
F2.68906
aF3.37876
aF0.897625
aa(lp86
F1.08821
aF0.457083
aF1.22675
aa(lp87
F0.213412
aF-0.395569
aF-0.81226
aa(lp88
F0.11328
aF-1.34372
aF1.22612
aas.