(dp0
S'OrbitDrifts_X'
p1
(lp2
(lp3
F-0.198575
aF-1.27679
aF0.109275
aa(lp4
F2.28943
aF0.798125
aF1.46415
aa(lp5
F2.19957
aF2.46264
aF2.11645
aa(lp6
F5.43085
aF0.83795
aF3.58664
aa(lp7
F3.5238
aF1.19487
aF1.70435
aa(lp8
F1.25165
aF0.251185
aF-0.824
aa(lp9
F-0.761321
aF-3.28654
aF-1.26514
aa(lp10
F-1.38421
aF-4.60604
aF2.65475
aa(lp11
F2.5147
aF3.98299
aF3.98299
aa(lp12
F2.58759
aF-1.66211
aF-1.66211
aa(lp13
F-2.19257
aF-6.77
aF-7.221
aa(lp14
F-2.52982
aF-1.24125
aF-1.65921
aasS'TimeWindows'
p15
(lp16
(lp17
I1464336209
aI1464336778
aI1464337345
aa(lp18
I1464337442
aI1464338015
aI1464338588
aa(lp19
I1464338691
aI1464339263
aI1464339836
aa(lp20
I1464339871
aI1464340440
aI1464341007
aa(lp21
I1464341137
aI1464341739
aI1464342562
aa(lp22
I1464342582
aI1464343168
aI1464343871
aa(lp23
I1464344327
aI1464344920
aI1464345526
aa(lp24
I1464345546
aI1464346148
aI1464347058
aa(lp25
I1464347089
aI1464348264
aI1464348264
aa(lp26
I1464348550
aI1464349756
aI1464349756
aa(lp27
I1464350794
aI1464351360
aI1464351928
aa(lp28
I1464352063
aI1464352637
aI1464353209
aasS'Names'
p29
(lp30
VX1
p31
aVY1
p32
aVY2
p33
aVX2
p34
aVI1X
p35
aVI1Y
p36
aVI2X
p37
aVI2Y
p38
aVL1X
p39
aVL1Y
p40
aVX3
p41
aVY3
p42
asS'OrbitDrifts_Y'
p43
(lp44
(lp45
F-0.1015
aF0.236643
aF0.327225
aa(lp46
F1.38674
aF0.3635
aF2.71658
aa(lp47
F2.82524
aF1.0879
aF3.1024
aa(lp48
F3.86128
aF3.15795
aF4.06212
aa(lp49
F4.11822
aF2.91241
aF4.92292
aa(lp50
F4.5795
aF4.12731
aF1.54334
aa(lp51
F2.21552
aF1.7395
aF2.68889
aa(lp52
F2.51682
aF2.6605
aF2.75768
aa(lp53
F2.68545
aF3.30812
aF3.30812
aa(lp54
F0.64972
aF2.25268
aF2.25268
aa(lp55
F-0.457905
aF-0.310643
aF0.708625
aa(lp56
F1.11228
aF0.5739
aF3.30561
aas.