(lp0
(lp1
S'XscanNumber_YscanNumber'
p2
aS'Type'
p3
aS'BCID'
p4
aS'xsec'
p5
aS'xsecErr'
p6
aS'normChange'
p7
aS'normChangeErr'
p8
aa(lp9
S'1_2'
p10
aS'XY'
p11
aS'sum'
p12
aF240.62230455751452
aF672.5727325071036
aF-999.0
aF-999.0
aa(lp13
S'1_2'
p14
ag11
aS'1783'
p15
aF7441811.215732049
aF57418.845594989216
aF-999.0
aF-999.0
aa(lp16
S'1_2'
p17
ag11
aS'872'
p18
aF7489583.640265214
aF60132.333524015536
aF-999.0
aF-999.0
aa(lp19
S'1_2'
p20
ag11
aS'41'
p21
aF7464997.340589106
aF53887.86287503876
aF-999.0
aF-999.0
aa(lp22
S'1_2'
p23
ag11
aS'281'
p24
aF7497030.202476055
aF55303.777729020716
aF-999.0
aF-999.0
aa(lp25
S'1_2'
p26
ag11
aS'2063'
p27
aF7393135.595303296
aF58099.523092491676
aF-999.0
aF-999.0
aa(lp28
S'4_3'
p29
ag11
aS'sum'
p30
aF240.62230455751452
aF672.5727325071036
aF-999.0
aF-999.0
aa(lp31
S'4_3'
p32
ag11
aS'1783'
p33
aF7459099.781863109
aF78101.28006308284
aF-999.0
aF-999.0
aa(lp34
S'4_3'
p35
ag11
aS'872'
p36
aF7417769.856309102
aF62963.6350091365
aF-999.0
aF-999.0
aa(lp37
S'4_3'
p38
ag11
aS'41'
p39
aF7483098.538428535
aF62676.4143624829
aF-999.0
aF-999.0
aa(lp40
S'4_3'
p41
ag11
aS'281'
p42
aF7570796.395835602
aF61869.425011959975
aF-999.0
aF-999.0
aa(lp43
S'4_3'
p44
ag11
aS'2063'
p45
aF7458331.434548742
aF60008.5337297606
aF-999.0
aF-999.0
aa(lp46
S'5_6'
p47
ag11
aS'sum'
p48
aF0.0019617352351749087
aF5.243063509466576e-09
aF-999.0
aF-999.0
aa(lp49
S'5_6'
p50
ag11
aS'1783'
p51
aF7401325.37765419
aF51227.06433890389
aF-999.0
aF-999.0
aa(lp52
S'5_6'
p53
ag11
aS'872'
p54
aF7490447.44372107
aF48864.609918270646
aF-999.0
aF-999.0
aa(lp55
S'5_6'
p56
ag11
aS'41'
p57
aF7391304.328033257
aF50603.84198878382
aF-999.0
aF-999.0
aa(lp58
S'5_6'
p59
ag11
aS'281'
p60
aF7671777.17197831
aF67931.00161641491
aF-999.0
aF-999.0
aa(lp61
S'5_6'
p62
ag11
aS'2063'
p63
aF7411306.519516683
aF50188.767299370644
aF-999.0
aF-999.0
aa(lp64
S'7_8'
p65
ag11
aS'sum'
p66
aF0.0019617352351749087
aF5.243063509466576e-09
aF-999.0
aF-999.0
aa(lp67
S'7_8'
p68
ag11
aS'1783'
p69
aF7418543.130058561
aF52285.379889594406
aF-999.0
aF-999.0
aa(lp70
S'7_8'
p71
ag11
aS'872'
p72
aF7485776.0632283185
aF54034.18966351327
aF-999.0
aF-999.0
aa(lp73
S'7_8'
p74
ag11
aS'41'
p75
aF7417603.062047039
aF55329.55891826286
aF-999.0
aF-999.0
aa(lp76
S'7_8'
p77
ag11
aS'281'
p78
aF7328501.145051498
aF50549.127275549974
aF-999.0
aF-999.0
aa(lp79
S'7_8'
p80
ag11
aS'2063'
p81
aF7347753.19050274
aF51319.86466131398
aF-999.0
aF-999.0
aa(lp82
S'9_10'
p83
ag11
aS'sum'
p84
aF240.62230455751452
aF672.5727325071036
aF-999.0
aF-999.0
aa(lp85
S'9_10'
p86
ag11
aS'1783'
p87
aF7501603.835371479
aF80517.11127971801
aF-999.0
aF-999.0
aa(lp88
S'9_10'
p89
ag11
aS'872'
p90
aF7433304.651680276
aF57155.272359709306
aF-999.0
aF-999.0
aa(lp91
S'9_10'
p92
ag11
aS'41'
p93
aF7427328.223262626
aF65623.99152625212
aF-999.0
aF-999.0
aa(lp94
S'9_10'
p95
ag11
aS'281'
p96
aF7491676.126838553
aF56645.387780494006
aF-999.0
aF-999.0
aa(lp97
S'9_10'
p98
ag11
aS'2063'
p99
aF7590134.26080036
aF57375.74090200145
aF-999.0
aF-999.0
aa(lp100
S'11_12'
p101
ag11
aS'sum'
p102
aF240.62230455751452
aF672.5727325071036
aF-999.0
aF-999.0
aa(lp103
S'11_12'
p104
ag11
aS'1783'
p105
aF7596563.430002169
aF58380.69288007986
aF-999.0
aF-999.0
aa(lp106
S'11_12'
p107
ag11
aS'872'
p108
aF7584870.908937812
aF57461.33445127337
aF-999.0
aF-999.0
aa(lp109
S'11_12'
p110
ag11
aS'41'
p111
aF7558485.854051068
aF55116.66366766386
aF-999.0
aF-999.0
aa(lp112
S'11_12'
p113
ag11
aS'281'
p114
aF7615970.866522985
aF55639.34980837186
aF-999.0
aF-999.0
aa(lp115
S'11_12'
p116
ag11
aS'2063'
p117
aF7609647.487608942
aF74758.12885134996
aF-999.0
aF-999.0
aa.