(dp0
S'OrbitDrifts_X'
p1
(lp2
(lp3
F0.89919
aF1.69181
aF5.00972
aa(lp4
F3.94982
aF6.78257
aF8.20578
aa(lp5
F10.1704
aF8.59078
aF9.13454
aa(lp6
F8.26693
aF6.93058
aF8.11543
aa(lp7
F-17.4996
aF-18.2756
aF-14.9833
aa(lp8
F-14.1175
aF-12.8471
aF-14.4946
aa(lp9
F-0.818054
aF2.27858
aF-0.233172
aa(lp10
F-0.347239
aF-1.35368
aF-2.03117
aa(lp11
F-0.459632
aF-4.00537
aF-6.1364
aa(lp12
F-8.36477
aF-14.2065
aF-18.6731
aa(lp13
F-18.3767
aF-20.4465
aF-20.4465
aa(lp14
F-20.3314
aF-14.5006
aF-14.5006
aa(lp15
F4.45677
aF2.04544
aF2.04544
aa(lp16
F5.25198
aF2.80574
aF2.80574
aa(lp17
F-0.22718
aF0.701374
aF-2.71551
aa(lp18
F-1.83292
aF-5.64637
aF-3.36441
aa(lp19
F-3.73198
aF-3.39022
aF-3.16023
aa(lp20
F-1.47959
aF-4.31305
aF-3.06258
aa(lp21
F-0.490358
aF-5.46128
aF-2.98805
aa(lp22
F-3.46628
aF3.15855
aF7.31932
aasS'TimeWindows'
p23
(lp24
(lp25
I1501228833
aI1501229373
aI1501229903
aa(lp26
I1501230058
aI1501230603
aI1501231143
aa(lp27
I1501231413
aI1501231953
aI1501232498
aa(lp28
I1501232723
aI1501233263
aI1501233793
aa(lp29
I1501235334
aI1501235944
aI1501236594
aa(lp30
I1501236724
aI1501237344
aI1501237914
aa(lp31
I1501238634
aI1501239214
aI1501239864
aa(lp32
I1501239964
aI1501240574
aI1501241144
aa(lp33
I1501245564
aI1501246104
aI1501246659
aa(lp34
I1501246839
aI1501247384
aI1501247924
aa(lp35
I1501248334
aI1501249565
aI1501249565
aa(lp36
I1501249675
aI1501250915
aI1501250915
aa(lp37
I1501261119
aI1501262354
aI1501262354
aa(lp38
I1501262519
aI1501263784
aI1501263784
aa(lp39
I1501264144
aI1501264729
aI1501265305
aa(lp40
I1501265415
aI1501266010
aI1501266605
aa(lp41
I1501266790
aI1501267395
aI1501267995
aa(lp42
I1501268145
aI1501268730
aI1501269305
aa(lp43
I1501269790
aI1501270335
aI1501270865
aa(lp44
I1501270935
aI1501271475
aI1501272014
aasS'Names'
p45
(lp46
VX1
p47
aVY1
p48
aVY2
p49
aVX2
p50
aVBIX1
p51
aVBIY1
p52
aVBIX2
p53
aVBIY2
p54
aVX3
p55
aVY3
p56
aVX4
p57
aVY4
p58
aVL1X
p59
aVL1Y
p60
aVNBIY1
p61
aVNBIX1
p62
aVNBIY2
p63
aVNBIX2
p64
aVX5
p65
aVY5
p66
asS'OrbitDrifts_Y'
p67
(lp68
(lp69
F0.868256
aF0.869699
aF0.177321
aa(lp70
F0.888969
aF-0.701534
aF-0.0108973
aa(lp71
F0.590756
aF-1.55002
aF-0.490914
aa(lp72
F0.39803
aF1.26716
aF0.0242109
aa(lp73
F-11.5848
aF-11.0687
aF-9.82021
aa(lp74
F-6.10704
aF-10.8438
aF-10.3783
aa(lp75
F0.069236
aF0.744732
aF0.549791
aa(lp76
F-0.646242
aF1.03965
aF1.29288
aa(lp77
F0.000637733
aF-2.45666
aF-3.75026
aa(lp78
F-3.8846
aF-5.11472
aF-3.7608
aa(lp79
F-4.06668
aF-2.77548
aF-2.77548
aa(lp80
F-2.39259
aF-1.21829
aF-1.21829
aa(lp81
F-1.30749
aF-3.27792
aF-3.27792
aa(lp82
F-1.99015
aF1.57425
aF1.57425
aa(lp83
F0.941318
aF-0.267694
aF-1.78168
aa(lp84
F-0.788753
aF0.264143
aF1.89708
aa(lp85
F3.54884
aF3.75805
aF1.25204
aa(lp86
F1.45129
aF0.836375
aF1.73446
aa(lp87
F0.451237
aF-0.314629
aF-0.858588
aa(lp88
F0.19422
aF-1.26278
aF1.30706
aas.