(lp0
(lp1
S'Scan'
p2
aS'Type'
p3
aS'BCID'
p4
aS'sigma'
p5
aS'sigmaErr'
p6
aS'sigmaRatio'
p7
aS'sigmaRatio_Err'
p8
aS'Amp'
p9
aS'AmpErr'
p10
aS'Frac'
p11
aS'FracErr'
p12
aS'Mean'
p13
aS'MeanErr'
p14
aS'Const'
p15
aS'ConstErr'
p16
aS'CapSigma'
p17
aS'CapSigmaErr'
p18
aS'peak'
p19
aS'peakErr'
p20
aS'area'
p21
aS'areaErr'
p22
aS'fitStatus'
p23
aS'chi2'
p24
aS'ndof'
p25
aa(lp26
S'1'
p27
aS'X'
p28
aS'41'
p29
aF0.13861109823635837
aF0.0003542335811371825
aF1.0000022632642758
aF0.04432378417595717
aF69.78828859729894
aF0.23141885680717422
aF0.9948248906112842
aF0.7442670502558691
aF0.0002555842778070291
aF0.0003982809360186093
aF0.34884841757765006
aF0.027040949302111872
aF0.13861109823635837
aF0.0003542335811371825
aF69.78828859729894
aF0.23141885680717422
aF24.247696475725046
aF0.10151360433223061
aI0
aF35.78424678486622
aI19
aa(lp30
g27
ag28
aS'281'
p31
aF0.1332425953015427
aF0.0003268883821352714
aF1.0000090638159074
aF0.015324612899932366
aF78.80272791955628
aF0.25271062822972823
aF0.43958456147397307
aF0.7787044321759635
aF0.0001740152690166216
aF0.0003719608085890864
aF0.34172096582090805
aF0.027366305299319105
aF0.1332425953015427
aF0.0003268883821352714
aF78.80272791955628
aF0.25271062822972823
aF26.319296050239625
aF0.10626901965198185
aI0
aF29.58444833640393
aI19
aa(lp32
g27
ag28
aS'872'
p33
aF0.134528586102732
aF0.0003419869078169626
aF1.000003653936592
aF0.03951450118916522
aF77.37032276851565
aF0.2550949199174255
aF0.9952952063054488
aF0.7428249100646338
aF0.0013939444013915862
aF0.0003879510295161071
aF0.3567307440022217
aF0.030919829611194716
aF0.134528586102732
aF0.0003419869078169626
aF77.37032276851565
aF0.2550949199174255
aF26.090290850814128
aF0.10862141133196773
aI0
aF28.42435180984904
aI19
aa(lp34
g27
ag28
aS'1783'
p35
aF0.13170671210656013
aF0.0003324917843001899
aF1.0000170921163476
aF0.043742838691877395
aF79.90486303592128
aF0.25662951558766167
aF0.9958609968104795
aF0.7409754790603218
aF0.0010480992235651122
aF0.00036621382353468505
aF0.44113729491971665
aF0.03397385087719604
aF0.13170671210656013
aF0.0003324917843001899
aF79.90486303592128
aF0.25662951558766167
aF26.379772986699976
aF0.10776378694998176
aI0
aF31.852722648461953
aI19
aa(lp36
g27
ag28
aS'2063'
p37
aF0.13233820414711978
aF0.0003000198130842821
aF1.000011108104537
aF0.0446901743309126
aF79.2155242269253
aF0.23716567978885195
aF0.995855902689775
aF0.7409927546355193
aF0.0010928162230154257
aF0.00034017720116359516
aF0.34099356386128193
aF0.02621238449469601
aF0.13233820414711978
aF0.0003000198130842821
aF79.2155242269253
aF0.23716567978885195
aF26.27758633708934
aF0.09868349314702946
aI0
aF28.015885265834207
aI19
aa(lp38
g27
ag28
aS'sum'
p39
aF-3.319468423869625e-05
aF0.001461578490692616
aF0.5278420463594762
aF0.028921698320677598
aF0.24514591331330993
aF1.2264605054982132
aF0.9900000000054819
aF0.2601349124799807
aF0.00038450278942532665
aF0.48666426339228774
aF0.3
aF0.022311344804016014
aF-3.319468423869625e-05
aF0.001461578490692616
aF0.24514591331330993
aF1.2264605054982132
aF-2.0397790819899523e-05
aF0.0009039040239386969
aI0
aF2.2500000000000004
aI19
aa(lp40
S'10'
p41
aS'Y'
p42
aS'41'
p43
aF0.1324889525830626
aF0.00033364479318048637
aF1.0000064786503713
aF0.01847083803606875
aF73.82130038592899
aF0.24633865528339527
aF0.3680725549162835
aF0.5147305174569805
aF-0.00018509275717083225
aF0.0003756665113208914
aF0.3907428705605532
aF0.028591174769794198
aF0.1324889525830626
aF0.00033364479318048637
aF73.82130038592899
aF0.24633865528339527
aF24.516094801006812
aF0.10249090961050529
aI0
aF33.982712386825185
aI19
aa(lp44
S'10'
p45
ag42
aS'281'
p46
aF0.12253132286273853
aF0.00032803307761857805
aF0.5000000001142167
aF1.0506851284970484
aF82.61811063748476
aF0.3017411555452725
aF0.995811876563346
aF0.004652581855189575
aF-0.0003086976794242067
aF0.0003412655907479132
aF0.36072688421218113
aF0.06112314970174365
aF0.12253132286273853
aF0.00032803307761857805
aF82.61811063748476
aF0.3017411555452725
aF25.375366026996677
aF0.11490843237159888
aI0
aF15.686825461403815
aI19
aa(lp47
S'10'
p48
ag42
aS'872'
p49
aF0.12374816201757574
aF0.0002888111980682689
aF0.9999987691893305
aF0.014705879356117557
aF81.9721670083923
aF0.27127563342452277
aF0.9604732308453947
aF0.5082468218142652
aF0.0003599205146124341
aF0.00035172803409300857
aF0.3283017247862123
aF0.025102724792129327
aF0.12374816201757574
aF0.0002888111980682689
aF81.9721670083923
aF0.27127563342452277
aF25.426999097912304
aF0.10296771799684895
aI0
aF22.74773843150851
aI19
aa(lp50
S'10'
p51
ag42
aS'1783'
p52
aF0.12151253404581626
aF0.00029565037765945926
aF1.000010338700775
aF0.10183002168779204
aF83.59050912122609
aF0.27456947850037494
aF0.8328649528930759
aF0.8247449371428086
aF-0.0005736170588837167
aF0.00033967621793992394
aF0.40846263764800755
aF0.02996063668274493
aF0.12151253404581626
aF0.00029565037765945926
aF83.59050912122609
aF0.27456947850037494
aF25.46056180177092
aF0.10407466074864502
aI0
aF24.018828709561955
aI19
aa(lp53
S'10'
p54
ag42
aS'2063'
p55
aF0.12239733098170048
aF4.0883551170650846e-07
aF0.99707872057501
aF0.7869637112632932
aF82.41612769770336
aF0.0004150346515885417
aF0.9999999999991448
aF0.12175564025456637
aF-0.0005485565718583199
aF6.495300244378383e-07
aF0.38006088458872167
aF5.1621192102002667e-05
aF0.12239733098170048
aF4.0883551170650846e-07
aF82.41612769770336
aF0.0004150346515885417
aF25.28564796364879
aF0.00015279910721716116
aI0
aF40.91185545568724
aI19
aa(lp56
S'10'
p57
ag42
aS'sum'
p58
aF-0.000135970540016944
aF0.0013391458362405912
aF0.519914584003579
aF0.008624427886528719
aF1.1
aF0.9873125120721375
aF0.99
aF0.2601349124837729
aF-0.001012625423890937
aF0.48666426339228774
aF0.3
aF0.02231134480405403
aF-0.000135970540016944
aF0.0013391458362405912
aF1.1
aF0.9873125120721375
aF-0.0003749103601356495
aF0.003707716587231752
aI0
aF2.2500000000000004
aI19
aa(lp59
S'2'
p60
ag42
aS'41'
p61
aF0.13777462445325628
aF0.0005922502472624851
aF1.390674659713701
aF0.5890068732144396
aF70.82935053105791
aF0.3347134492981212
aF0.938240233172446
aF0.1415696701368353
aF0.001708568180533886
aF0.0003962232389636567
aF0.3842712413535724
aF0.041461758627886675
aF0.13777462445325628
aF0.0005922502472624851
aF70.82935053105791
aF0.3347134492981212
aF24.46089985715514
aF0.15626346621620252
aI0
aF10.838634764415442
aI19
aa(lp62
g60
ag42
aS'281'
p63
aF0.12793767593520836
aF0.0004927093181179697
aF0.6306688459085563
aF0.35537509075411156
aF79.46217355568145
aF0.2906657526323073
aF0.9885598650656147
aF0.030878706972649272
aF0.0006057405158795332
aF0.0003499726971531965
aF0.3297815554769482
aF0.07237599159528318
aF0.12793767593520836
aF0.0004927093181179697
aF79.46217355568145
aF0.2906657526323073
aF25.482898927745605
aF0.13535189827996022
aI0
aF21.777016427415163
aI19
aa(lp64
g60
ag42
aS'872'
p65
aF0.13027422899129737
aF0.0003335326338721709
aF1.0000025717224237
aF0.038131623033487716
aF77.51677180684494
aF0.2624166991367147
aF0.9993059448189312
aF0.7271000859776817
aF0.000997671206560651
aF0.00037735353824384574
aF0.3354139693645552
aF0.0277236302442308
aF0.13027422899129737
aF0.0003335326338721709
aF77.51677180684494
aF0.2624166991367147
aF25.313029420871572
aF0.10743878714660168
aI0
aF30.62177178709665
aI19
aa(lp66
g60
ag42
aS'1783'
p67
aF0.12681905410160588
aF0.00031261880856364445
aF1.0000150375422179
aF0.028686354184566665
aF80.2423312341778
aF0.26445895044991374
aF0.9900008140693669
aF0.7559328936660255
aF0.0005299251756250881
aF0.00035555516213775035
aF0.38767590380906164
aF0.03012198984613082
aF0.12681905410160588
aF0.00031261880856364445
aF80.2423312341778
aF0.26445895044991374
aF25.50809238816801
aF0.10498245566622348
aI0
aF32.630072643450376
aI19
aa(lp68
g60
ag42
aS'2063'
p69
aF0.12809666612779247
aF3.047941956625386e-08
aF1.0003519397367875
aF0.9833374703257403
aF79.72857948659282
aF2.882699222084284e-05
aF0.9999999999999348
aF0.055332296704442396
aF0.0010335484220195396
aF4.8646549257868524e-08
aF0.3000000000000168
aF2.78425033028995e-10
aF0.12809666612779247
aF3.047941956625386e-08
aF79.72857948659282
aF2.882699222084284e-05
aF25.600107406666755
aF1.1080571421820122e-05
aI0
aF41.55975688849684
aI19
aa(lp70
g60
ag42
aS'sum'
p71
aF-4.2468501769958516e-07
aF0.0008619601349512978
aF0.534238224702293
aF0.39183849899511614
aF0.22000148096334093
aF1.291417632545914
aF8.199275498371739e-05
aF0.24312592328792923
aF-0.00033222827732239373
aF0.48666426339228774
aF0.3
aF0.02231134480486529
aF-4.2468501769958516e-07
aF0.0008619601349512978
aF0.22000148096334093
aF1.291417632545914
aF-2.3419762062531153e-07
aF0.0004753401898688532
aI0
aF2.2500000000000004
aI19
aa(lp72
S'3'
p73
ag42
aS'41'
p74
aF0.1375875375564698
aF0.0003556559914301641
aF1.000008776621882
aF0.02125665601840987
aF70.80286205404633
aF0.23481445932323197
aF0.9475067274643931
aF0.502638652858373
aF0.0007289239339491842
aF0.0003908371231667792
aF0.4080166841373477
aF0.03159824265901595
aF0.1375875375564698
aF0.0003556559914301641
aF70.80286205404633
aF0.23481445932323197
aF24.418548548336982
aF0.10267644434810812
aI0
aF28.98278542363049
aI19
aa(lp75
g73
ag42
aS'281'
p76
aF0.1275864631024785
aF0.00030185950528552444
aF1.000019789384121
aF0.042223271636397164
aF79.79748594866294
aF0.2542596079560653
aF0.9964053924635338
aF0.7390545596064726
aF0.0011844073155574172
aF0.00034566358992600975
aF0.3328903086792186
aF0.024731277302134008
aF0.1275864631024785
aF0.00030185950528552444
aF79.79748594866294
aF0.2542596079560653
aF25.520180479278846
aF0.10128059249470071
aI0
aF21.437526995207474
aI19
aa(lp77
g73
ag42
aS'872'
p78
aF0.12928493517375372
aF0.00031297575890989375
aF0.999978077808318
aF0.018727206042381428
aF77.73651360790727
aF0.25655019272699064
aF0.5041031082593517
aF0.5669810870196341
aF0.0009299135901621125
aF0.0003630547711662335
aF0.3409292689787483
aF0.02657764188340528
aF0.12928493517375372
aF0.00031297575890989375
aF77.73651360790727
aF0.25655019272699064
aF25.192015527456793
aF0.10310907458935331
aI0
aF21.48932883916407
aI19
aa(lp79
g73
ag42
aS'1783'
p80
aF0.12592549761040997
aF0.0003062501146493453
aF1.0005631732530798
aF0.06199970149456657
aF80.7792945411862
aF0.26547724652748883
aF0.9965221962027493
aF0.7386214220997877
aF0.0015671162848824977
aF0.0003509229000447772
aF0.3876839522901666
aF0.030011411501996155
aF0.12592549761040997
aF0.0003062501146493453
aF80.7792945411862
aF0.26547724652748883
aF25.497856109613334
aF0.10424651721411912
aI0
aF13.15836104130211
aI19
aa(lp81
g73
ag42
aS'2063'
p82
aF0.12824363075959633
aF0.00026279907813601424
aF1.0000008987813147
aF0.013290996905810704
aF79.35154737084144
aF0.23658777129231368
aF0.9814133593427288
aF0.5573932215941353
aF0.0005749448557346562
aF0.00032448047702905415
aF0.3000000000058282
aF0.014257274735930026
aF0.12824363075959633
aF0.00026279907813601424
aF79.35154737084144
aF0.23658777129231368
aF25.50827786663512
aF0.09228470236584696
aI0
aF26.691898776722603
aI19
aa(lp83
g73
ag42
aS'sum'
p84
aF6.805789621923193e-05
aF1874.898263045191
aF0.5269802303557631
aF0.008465864296813558
aF1.1
aF0.9873125120721375
aF0.99
aF0.2601349124837729
aF-0.0009248802661561278
aF0.48666426339228774
aF0.3
aF0.02231134480468343
aF6.805789621923193e-05
aF1874.898263045191
aF1.1
aF0.9873125120721375
aF0.00018765543167253193
aF5169.640298026193
aI0
aF2.2500000000000004
aI19
aa(lp85
S'4'
p86
ag28
aS'41'
p87
aF0.13760442869727507
aF0.00036314092727497563
aF1.0000095261749664
aF0.017150696867947346
aF71.09733136536813
aF0.23958368264594299
aF0.6089961211678261
aF0.5874499691792897
aF0.0012846295105029997
aF0.0003976699994468403
aF0.41384945195787626
aF0.033573687389717055
aF0.13760442869727507
aF0.00036314092727497563
aF71.09733136536813
aF0.23958368264594299
aF24.52311561108027
aF0.10496343842273159
aI0
aF16.613235544348026
aI19
aa(lp88
g86
ag28
aS'281'
p89
aF0.13206595101775284
aF0.00032373962780993216
aF1.000004214415487
aF0.017916975453255213
aF80.2276366885352
aF0.2519178012263197
aF0.08432181552364454
aF0.5166628318831878
aF0.00047488448375461917
aF0.00035707273561984417
aF0.4221446852799088
aF0.03451946481276705
aF0.13206595101775284
aF0.00032373962780993216
aF80.2276366885352
aF0.2519178012263197
aF26.558576660555204
aF0.10579833084799876
aI0
aF23.842243086705473
aI19
aa(lp90
g86
ag28
aS'872'
p91
aF0.1336321507441756
aF0.00032407895275122643
aF1.0000104022963354
aF0.043499028794925954
aF78.60776709013552
aF0.2536200549921901
aF0.995541509810427
aF0.742036388516637
aF0.0015394050957330816
aF0.0003734892666753647
aF0.3438205010924749
aF0.03013407324716505
aF0.1336321507441756
aF0.00032407895275122643
aF78.60776709013552
aF0.2536200549921901
aF26.330939330075353
aF0.10627735997260862
aI0
aF30.12362216202247
aI19
aa(lp92
g86
ag28
aS'1783'
p93
aF0.13109936519216733
aF0.0003184281230770377
aF1.0000846911262606
aF0.07234302507338125
aF81.34806991101296
aF0.2614616947459609
aF0.9958132221965097
aF0.7411370236300507
aF0.0012150880015872462
aF0.00035751982774074616
aF0.40325961802963933
aF0.03259078197929283
aF0.13109936519216733
aF0.0003184281230770377
aF81.34806991101296
aF0.2614616947459609
aF26.732389242400156
aF0.10769568488381742
aI0
aF25.03986985427832
aI19
aa(lp94
g86
ag28
aS'2063'
p95
aF0.13171811701571404
aF0.00026676038126353485
aF1.0000124503992718
aF0.04420011291281689
aF79.98511110911255
aF0.23555793041310125
aF0.9961132482218193
aF0.7401044124835148
aF0.0006679903158669149
aF0.00032563937995415816
aF0.3000000000043249
aF0.0636335060582687
aF0.13171811701571404
aF0.00026676038126353485
aF79.98511110911255
aF0.23555793041310125
aF26.40855267078666
aF0.09438883756798427
aI0
aF23.425902874882535
aI19
aa(lp96
g86
ag28
aS'sum'
p97
aF-3.1383928348131943e-05
aF0.0012164404923621518
aF0.519914584003579
aF0.008624427886528719
aF1.1
aF0.9873125120721375
aF0.99
aF0.2601349124837729
aF0.0
aF0.48666426339228774
aF0.3
aF0.02231134480473377
aF-3.1383928348131943e-05
aF0.0012164404923621518
aF1.1
aF0.9873125120721375
aF-8.653462638306301e-05
aF0.003354979716346565
aI0
aF2.2500000000000004
aI19
aa(lp98
S'5'
p99
ag28
aS'41'
p100
aF0.1382426751104289
aF0.0005116598965643908
aF0.5421368130012119
aF0.8095903239601717
aF71.2720518624592
aF0.23060038025931107
aF0.9832582002819463
aF0.025171603043028068
aF-0.0013394634147829848
aF0.0003386795829642208
aF0.3000000000003836
aF0.7399388122204231
aF0.1382426751104289
aF0.0005116598965643908
aF71.2720518624592
aF0.23060038025931107
aF24.6974050987056
aF0.12141255918356157
aI0
aF19.167224753443378
aI13
aa(lp101
g99
ag28
aS'281'
p102
aF0.13288576229919002
aF0.0003199879174498902
aF1.0000003954347738
aF0.028615973541615602
aF80.35032570810486
aF0.21505975812723932
aF0.4040368631605019
aF0.6383223448527768
aF-0.000683417609030852
aF0.0003054978342816651
aF0.36294983353438803
aF0.046347867302043044
aF0.13288576229919002
aF0.0003199879174498902
aF80.35032570810486
aF0.21505975812723932
aF26.764308540989067
aF0.0963597654605071
aI0
aF19.375177534164234
aI13
aa(lp103
g99
ag28
aS'872'
p104
aF0.13457408206734434
aF3.2211021792607865e-07
aF1.000705015740766
aF0.8988191457076284
aF78.71466074909183
aF0.0002790614423489046
aF6.279132769293483e-11
aF0.8186129015631324
aF-0.0005641420570857579
aF5.102262476664923e-07
aF0.30000000000016835
aF4.965875340101622e-07
aF0.13457408206734434
aF3.2211021792607865e-07
aF78.71466074909183
aF0.0002790614423489046
aF26.552596041944646
aF0.00011358100793667237
aI0
aF52.49274395327386
aI13
aa(lp105
g99
ag28
aS'1783'
p106
aF0.13139777298097635
aF5.286241386740161e-06
aF1.0000069638230737
aF1.0724180638730958
aF81.24215437758271
aF0.004838099267509222
aF0.9999877357531527
aF0.6419328659781911
aF-0.0010570998162016257
aF8.324422818521042e-06
aF0.41552833567042524
aF0.0009506027067935352
aF0.13139777298097635
aF5.286241386740161e-06
aF81.24215437758271
aF0.004838099267509222
aF26.75835247808121
aF0.0019230509920745013
aI0
aF29.98224780417366
aI13
aa(lp107
g99
ag28
aS'2063'
p108
aF0.13197611897854078
aF0.0002198361278487731
aF0.9999999982945645
aF0.04948559859576257
aF80.48425680053651
aF0.20037241791050064
aF0.08616292108253054
aF0.5360711737894435
aF-0.0007144742102746475
aF0.0002831104509104325
aF0.3000000000000008
aF0.007857796239099962
aF0.13197611897854078
aF0.0002198361278487731
aF80.48425680053651
aF0.20037241791050064
aF26.62540516066316
aF0.0797548875610204
aI0
aF62.71356836542392
aI13
aa(lp109
g99
ag28
aS'sum'
p110
aF0.012764504136577287
aF0.6315285806181736
aF0.5194225446258811
aF0.011408124114365656
aF0.4325252296656591
aF1.1431477597867472
aF0.99
aF0.27416408529958514
aF3.084019623483837
aF0.5129102485590663
aF0.3
aF0.030668302498587985
aF0.012764504136577287
aF0.6315285806181736
aF0.4325252296656591
aF1.1431477597867472
aF0.013839019714044628
aF0.6856668822347849
aI4
aF1.7100000000000004
aI13
aa(lp111
S'6'
p112
ag42
aS'41'
p113
aF0.13577438529855657
aF0.0003364115061183157
aF0.9996418372098951
aF0.37861340085749756
aF71.8454741919237
aF0.20421574694819355
aF0.9971534890895496
aF0.7240490675661323
aF-0.0010608263072679341
aF0.0003275182752593753
aF0.4162982150632487
aF0.045768768195820875
aF0.13577438529855657
aF0.0003364115061183157
aF71.8454741919237
aF0.20421574694819355
aF24.45159506552196
aF0.09220076178089544
aI0
aF18.018741714501058
aI13
aa(lp114
g112
ag42
aS'281'
p115
aF0.12488526723452954
aF0.00029410866752946287
aF0.9999964944088973
aF0.06286917597728592
aF80.63533135776811
aF0.22765769017576076
aF0.9900000014888417
aF0.7559345271428538
aF-0.0014234630407001525
aF0.0003012830024376462
aF0.4923959511501165
aF0.043534585501218664
aF0.12488526723452954
aF0.00029410866752946287
aF80.63533135776811
aF0.22765769017576076
aF25.242160081470136
aF0.09280465007053779
aI0
aF14.958199537251595
aI13
aa(lp116
g112
ag42
aS'872'
p117
aF0.12683703220484188
aF0.0003147920631731165
aF0.9999999662806469
aF0.21499800295213822
aF78.88033135877191
aF0.23074216835563277
aF0.015829365337729773
aF0.7659774905616273
aF-0.0016221810332101574
aF0.00032001282955812006
aF0.4147718293070313
aF0.044573676429222
aF0.12683703220484188
aF0.0003147920631731165
aF78.88033135877191
aF0.23074216835563277
aF25.07868335944174
aF0.0962072085734588
aI0
aF16.302635643554737
aI13
aa(lp118
g112
ag42
aS'1783'
p119
aF0.12457625657389579
aF0.00029780322224363357
aF1.0000023516195866
aF0.05329007319001755
aF81.51903393938719
aF0.23156774443467043
aF0.9900000017278712
aF0.7559345266623598
aF-0.0012488525795463314
aF0.0003031803771304984
aF0.3938102257774284
aF0.04300037140492255
aF0.12457625657389579
aF0.00029780322224363357
aF81.51903393938719
aF0.23156774443467043
aF25.455652575782352
aF0.0945086236039543
aI0
aF18.580934638605633
aI13
aa(lp120
g112
ag42
aS'2063'
p121
aF0.12617329619425907
aF0.0002748552134947837
aF0.9999999171950044
aF0.05039899816478538
aF80.56063467308728
aF0.20830797014658486
aF0.9900000000523053
aF0.755934530030565
aF-0.0020018321898702175
aF0.0002853946998388684
aF0.3386731126352275
aF0.02742146798009465
aF0.12617329619425907
aF0.0002748552134947837
aF80.56063467308728
aF0.20830797014658486
aF25.478875816263155
aF0.08614496865805861
aI0
aF20.14691536667447
aI13
aa(lp122
g112
ag42
aS'sum'
p123
aF0.08544154842370606
aF3.72592283149642
aF0.5193250460736242
aF0.011429777880288821
aF0.4263809878716375
aF1.1466839709690926
aF0.99
aF0.27416408529958514
aF-2.1373041404164366
aF8013488.247302021
aF0.3
aF0.030668302499021003
aF0.08544154842370606
aF3.72592283149642
aF0.4263809878716375
aF1.1466839709690926
aF0.09131810192071912
aF3.989752305575331
aI4
aF1.7100000000000004
aI13
aa(lp124
S'7'
p125
ag28
aS'41'
p126
aF0.13699451453372935
aF0.0006022352952964471
aF0.8913153173129151
aF0.33499462046722756
aF72.46684355177206
aF0.29134559116221936
aF0.27281219006305596
aF0.5636096764475871
aF-0.0005624012602603702
aF0.00034439446202108733
aF0.4177365787773878
aF0.1309305186132095
aF0.13699451453372935
aF0.0006022352952964471
aF72.46684355177206
aF0.29134559116221936
aF24.88470272485833
aF0.14824453792889689
aI0
aF12.342408491122937
aI13
aa(lp127
g125
ag28
aS'281'
p128
aF0.13278036284899536
aF0.0003246890925620072
aF1.0000024692381924
aF0.06181979039457919
aF80.50315677018716
aF0.21695142129458134
aF0.4368795850066552
aF0.7716044695831435
aF-0.0009675564697906142
aF0.0003126687003309665
aF0.426874168501743
aF0.050391027210408085
aF0.13278036284899536
aF0.0003246890925620072
aF80.50315677018716
aF0.21695142129458134
aF26.793947123576476
aF0.09750293742783758
aI0
aF22.473460882646858
aI13
aa(lp129
g125
ag28
aS'872'
p130
aF0.1333432418216048
aF0.0003325296932743966
aF1.00006956446238
aF0.23415436858628186
aF79.85358661435706
aF0.22366526299448708
aF0.4373402603792111
aF0.7185505294051108
aF-0.0007316624314348022
aF0.00032047518356708
aF0.36362734115109896
aF0.048348911980388654
aF0.1333432418216048
aF0.0003325296932743966
aF79.85358661435706
aF0.22366526299448708
aF26.690417720393715
aF0.10009529920635973
aI0
aF15.307248283954321
aI13
aa(lp131
g125
ag28
aS'1783'
p132
aF0.13188971812714712
aF0.00030858257909109285
aF0.9999999910817425
aF0.04401566826924702
aF81.80952420258768
aF0.22177874664883035
aF3.532932500976971e-05
aF0.5147702298078096
aF-0.0008822663354390166
aF0.0003013369694478738
aF0.3304340652289088
aF0.04277025137030874
aF0.13188971812714712
aF0.00030858257909109285
aF81.80952420258768
aF0.22177874664883035
aF27.046105708169407
aF0.09685100126440789
aI0
aF14.778805089864543
aI13
aa(lp133
g125
ag28
aS'2063'
p134
aF0.13227106834037486
aF6.436329189383026e-06
aF0.9999978102078247
aF0.7811269012407078
aF80.63770705899098
aF0.0058034905124344505
aF0.9999182616161132
aF0.5940377417029539
aF-0.0005649860586086108
aF1.0199252883282799e-05
aF0.3072693944187243
aF0.0009961156697788909
aF0.13227106834037486
aF6.436329189383026e-06
aF80.63770705899098
aF0.0058034905124344505
aF26.735786566613857
aF0.002322704611648184
aI0
aF35.53500135634416
aI13
aa(lp135
g125
ag28
aS'sum'
p136
aF5.0638159458417376e-06
aF1.1304267133467418
aF0.528593279075672
aF0.011608771986351294
aF0.43900077959691575
aF1.1394664887477517
aF0.99
aF0.27416408529958514
aF5.553808216903348
aF0.5129102485590663
aF0.3
aF0.030668302489553663
aF5.0638159458417376e-06
aF1.1304267133467418
aF0.43900077959691575
aF1.1394664887477517
aF5.57228265132219e-06
aF1.2439348568684854
aI0
aF1.7100000000000004
aI13
aa(lp137
S'8'
p138
ag42
aS'41'
p139
aF0.1352186350873827
aF0.000328940542544812
aF0.7853710976184738
aF0.2316263609401455
aF72.60858660575744
aF0.2347265799222953
aF0.9481353160473218
aF0.14367536292652544
aF-0.0002076308761419594
aF0.00033472142731642325
aF0.3000000004065022
aF0.1029592741605643
aF0.1352186350873827
aF0.000328940542544812
aF72.60858660575744
aF0.2347265799222953
aF24.610161566668776
aF0.09956809194118071
aI0
aF16.47685833574418
aI13
aa(lp140
g138
ag42
aS'281'
p141
aF0.12391613326428574
aF0.00040725691803230923
aF0.5000000037971826
aF1.376164580244374
aF81.87204138329987
aF0.3310623195175779
aF0.014572406691640227
aF0.010901248084036752
aF0.00030690093960576524
aF0.00029209801272747627
aF0.37860302264316226
aF0.04056537665348603
aF0.12391613326428574
aF0.00040725691803230923
aF81.87204138329987
aF0.3310623195175779
aF25.4304125911736
aF0.13251313937326642
aI0
aF28.74367439600176
aI13
aa(lp142
g138
ag42
aS'872'
p143
aF0.1262274121123853
aF0.0002944288412215171
aF1.0000002573899327
aF0.026703664763255586
aF80.03025224734503
aF0.2221947371322628
aF0.17170775352675732
aF0.5618324123765639
aF0.0005837606592973097
aF0.0002889098894099903
aF0.30879569719347094
aF0.0425032918999968
aF0.1262274121123853
aF0.0002944288412215171
aF80.03025224734503
aF0.2221947371322628
aF25.321987987131113
aF0.09182142465350548
aI0
aF23.80300611890445
aI13
aa(lp144
g138
ag42
aS'1783'
p145
aF0.12384466527218665
aF4.200513552333761e-06
aF0.9999999924713674
aF0.1750619822693958
aF82.2415578661919
aF0.004129431952705431
aF0.9951057106231989
aF0.5754550752243347
aF0.0004365179810744002
aF6.631831894637927e-06
aF0.4337210415146633
aF0.0007467622975480537
aF0.12384466527218665
aF4.200513552333761e-06
aF82.2415578661919
aF0.004129431952705431
aF25.530455671815343
aF0.0015469748317800984
aI0
aF26.141831756104494
aI13
aa(lp146
g138
ag42
aS'2063'
p147
aF0.12503076609013242
aF0.0002784867862199292
aF0.9999968742457558
aF0.033861587482240885
aF81.00003906572897
aF0.21045182699512566
aF0.6862786028373097
aF0.7854008315479367
aF0.0004457450224094748
aF0.00027627254163212087
aF0.4566309308940036
aF0.040586321867076475
aF0.12503076609013242
aF0.0002784867862199292
aF81.00003906572897
aF0.21045182699512566
aF25.385870175324683
aF0.08687590395709088
aI0
aF14.56817909531162
aI13
aa(lp148
g138
ag42
aS'sum'
p149
aF-0.0032152002058328595
aF0.512690146365426
aF1.1566266615223177
aF0.39101657853607424
aF3.309106154083069
aF1.4922133417994614
aF0.6311733648281757
aF0.2878431144970183
aF-0.02286798108481896
aF0.5128705461484724
aF0.3
aF0.02531942337832631
aF-0.0032152002058328595
aF0.512690146365426
aF3.309106154083069
aF1.4922133417994614
aF-0.026669118091531458
aF4.252627474576625
aI0
aF1.7100000000009095
aI13
aa(lp150
S'9'
p151
ag28
aS'41'
p152
aF0.13724005259852953
aF0.0003542443922072852
aF0.9999955441073458
aF0.03388068621275603
aF73.57624963460489
aF0.2395398841000258
aF0.612907218330741
aF0.6098123835821547
aF-0.0021155574654024636
aF0.0003872581315550603
aF0.41414291258958036
aF0.03367270056820393
aF0.13724005259852953
aF0.0003542443922072852
aF73.57624963460489
aF0.2395398841000258
aF25.310950646030978
aF0.10516078682861486
aI0
aF23.869311535561096
aI19
aa(lp153
g151
ag28
aS'281'
p154
aF0.13364519759748816
aF0.0003187642063402533
aF1.000007651798414
aF0.042075731084039614
aF82.29288945736496
aF0.2514808018807031
aF0.9956542379639782
aF0.7416671687665763
aF-0.0014352225864505375
aF0.0003556291841601866
aF0.3372923620435553
aF0.03195292150771753
aF0.13364519759748816
aF0.0003187642063402533
aF82.29288945736496
aF0.2514808018807031
aF27.568021773302856
aF0.10686875804904562
aI0
aF34.45796662148423
aI19
aa(lp155
g151
ag28
aS'872'
p156
aF0.13374950324918125
aF0.0003200315985033556
aF1.0000258298753408
aF0.05308334192827757
aF81.51208795845693
aF0.26018610268427267
aF0.9955183363118192
aF0.7421116248134183
aF-0.0019484493633952953
aF0.0003683547745226116
aF0.3732784762019544
aF0.03318737011765696
aF0.13374950324918125
aF0.0003200315985033556
aF81.51208795845693
aF0.26018610268427267
aF27.327765967239483
aF0.10901746775523022
aI0
aF30.91709221035487
aI19
aa(lp157
g151
ag28
aS'1783'
p158
aF0.13264546787506562
aF0.00031526147924379846
aF1.0000124168056699
aF0.04435343971865363
aF83.31220887730292
aF0.2615386593069644
aF0.9955951176547685
aF0.7418614803091153
aF-0.0011603236869322515
aF0.00035691568913914464
aF0.3351981504326077
aF0.029658731415241835
aF0.13264546787506562
aF0.00031526147924379846
aF83.31220887730292
aF0.2615386593069644
aF27.700716291878283
aF0.10907106182187673
aI0
aF27.814071341988473
aI19
aa(lp159
g151
ag28
aS'2063'
p160
aF0.13293451974440726
aF0.0002850685972180134
aF1.0000108705985058
aF0.04146142988438617
aF82.31597906761861
aF0.23669682478460885
aF0.9960464322063645
aF0.7403381900806527
aF-0.0015438796286790582
aF0.0003298021007404814
aF0.33562693494130363
aF0.027397758212065276
aF0.13293451974440726
aF0.0002850685972180134
aF82.31597906761861
aF0.23669682478460885
aF27.429118652536943
aF0.09838944109792512
aI0
aF35.1939391284443
aI19
aa(lp161
g151
ag28
aS'sum'
p162
aF2.4251495604954597e-06
aF0.002628053469286694
aF0.5269802303557631
aF0.00861646649563226
aF1.1
aF0.9873125120721375
aF0.99
aF0.2601349124837729
aF0.0
aF0.48666426339228774
aF0.3
aF0.022311344804100724
aF2.4251495604954597e-06
aF0.002628053469286694
aF1.1
aF0.9873125120721375
aF6.68684330440155e-06
aF0.007246310932223497
aI0
aF2.2500000000000004
aI19
aa.