(dp0
S'OrbitDrifts_X'
p1
(lp2
(lp3
F0.741689
aF1.17364
aF3.8362
aa(lp4
F4.29431
aF6.80297
aF8.47142
aa(lp5
F10.1248
aF8.86527
aF9.21633
aa(lp6
F8.08625
aF6.12591
aF7.65556
aa(lp7
F1.43916
aF1.51631
aF4.48153
aa(lp8
F6.18159
aF7.36805
aF5.09937
aa(lp9
F0.151838
aF2.10331
aF-0.318608
aa(lp10
F-1.42838
aF-2.55602
aF-4.53839
aa(lp11
F-1.09527
aF-4.57258
aF-5.88358
aa(lp12
F-4.50323
aF-9.99275
aF-13.2837
aa(lp13
F-14.2316
aF-15.9087
aF-15.9087
aa(lp14
F-15.524
aF-10.9671
aF-10.9671
aa(lp15
F1.855
aF-0.279408
aF-0.279408
aa(lp16
F2.53603
aF0.0643275
aF0.0643275
aa(lp17
F0.355208
aF0.969009
aF-1.77457
aa(lp18
F-2.41951
aF-4.88879
aF-3.32548
aa(lp19
F-3.03202
aF-2.34107
aF-1.90104
aa(lp20
F-1.52605
aF-3.77717
aF-3.17137
aa(lp21
F-0.853857
aF-5.05743
aF-2.69542
aa(lp22
F-1.46728
aF4.18457
aF7.64025
aasS'TimeWindows'
p23
(lp24
(lp25
I1501228893
aI1501229372
aI1501229838
aa(lp26
I1501230120
aI1501230602
aI1501231078
aa(lp27
I1501231473
aI1501231952
aI1501232420
aa(lp28
I1501232783
aI1501233262
aI1501233728
aa(lp29
I1501235405
aI1501235943
aI1501236452
aa(lp30
I1501236798
aI1501237343
aI1501237860
aa(lp31
I1501238672
aI1501239214
aI1501239728
aa(lp32
I1501240037
aI1501240574
aI1501241088
aa(lp33
I1501245624
aI1501246103
aI1501246582
aa(lp34
I1501246909
aI1501247386
aI1501247855
aa(lp35
I1501248472
aI1501249572
aI1501249417
aa(lp36
I1501249818
aI1501250922
aI1501250748
aa(lp37
I1501261173
aI1501262377
aI1501262298
aa(lp38
I1501262583
aI1501263805
aI1501263729
aa(lp39
I1501264205
aI1501264727
aI1501265243
aa(lp40
I1501265487
aI1501266011
aI1501266538
aa(lp41
I1501266859
aI1501267395
aI1501267925
aa(lp42
I1501268213
aI1501268729
aI1501269239
aa(lp43
I1501269855
aI1501270334
aI1501270800
aa(lp44
I1501270999
aI1501271476
aI1501271946
aasS'Names'
p45
(lp46
VX1
p47
aVY1
p48
aVY2
p49
aVX2
p50
aVBIX1
p51
aVBIY1
p52
aVBIX2
p53
aVBIY2
p54
aVX3
p55
aVY3
p56
aVX4
p57
aVY4
p58
aVL1X
p59
aVL1Y
p60
aVNBIY1
p61
aVNBIX1
p62
aVNBIY2
p63
aVNBIX2
p64
aVX5
p65
aVY5
p66
asS'OrbitDrifts_Y'
p67
(lp68
(lp69
F0.396416
aF0.212863
aF-0.23093
aa(lp70
F-0.0188728
aF-0.984658
aF-0.0404809
aa(lp71
F2.58629
aF0.0951492
aF1.80619
aa(lp72
F2.8224
aF3.55607
aF2.74213
aa(lp73
F-0.381685
aF-0.058113
aF0.816686
aa(lp74
F2.27186
aF0.278986
aF0.608461
aa(lp75
F-0.301124
aF-0.199078
aF-0.153063
aa(lp76
F-0.474684
aF0.447086
aF-0.274713
aa(lp77
F-0.562597
aF-2.61165
aF-3.38129
aa(lp78
F-3.84015
aF-5.22339
aF-4.19023
aa(lp79
F-4.03358
aF-3.03181
aF-3.03181
aa(lp80
F-2.30644
aF-1.226
aF-1.226
aa(lp81
F0.812367
aF-1.19673
aF-1.19673
aa(lp82
F-0.150575
aF3.85061
aF3.85061
aa(lp83
F0.131458
aF-0.889352
aF-1.91001
aa(lp84
F-1.54444
aF-0.696445
aF0.90273
aa(lp85
F1.75705
aF2.32865
aF0.486279
aa(lp86
F0.0611396
aF-0.431537
aF-0.023646
aa(lp87
F-0.00156549
aF-0.594689
aF-0.977625
aa(lp88
F-0.738774
aF-1.90674
aF0.212701
aas.