(dp0
S'Angle'
p1
S'0.0'
p2
sS'Scan_4'
p3
(lp4
(lp5
I4
aVX2
p6
aI1
acnumpy.core.multiarray
scalar
p7
(cnumpy
dtype
p8
(S'f8'
p9
I0
I1
tp10
Rp11
(I3
S'<'
p12
NNNI-1
I-1
I0
tp13
bS'\x00\x00\xc0\xa3\xbf^\xd6A'
p14
tp15
Rp16
ag7
(g11
S'\x00\x00\x00\xab\xbf^\xd6A'
p17
tp18
Rp19
aF-0.590504
aF-0.590504
aF0.0
aa(lp20
I4
ag6
aI2
ag7
(g11
S'\x00\x00\x80\xad\xbf^\xd6A'
p21
tp22
Rp23
ag7
(g11
S'\x00\x00\xc0\xb4\xbf^\xd6A'
p24
tp25
Rp26
aF-0.541295
aF-0.541296
aF0.0
aa(lp27
I4
ag6
aI3
ag7
(g11
S'\x00\x00\x00\xb7\xbf^\xd6A'
p28
tp29
Rp30
ag7
(g11
S'\x00\x00@\xbe\xbf^\xd6A'
p31
tp32
Rp33
aF-0.492087
aF-0.492086
aF0.0
aa(lp34
I4
ag6
aI4
ag7
(g11
S'\x00\x00\xc0\xc0\xbf^\xd6A'
p35
tp36
Rp37
ag7
(g11
S'\x00\x00\xc0\xc7\xbf^\xd6A'
p38
tp39
Rp40
aF-0.442878
aF-0.442878
aF0.0
aa(lp41
I4
ag6
aI5
ag7
(g11
S'\x00\x00@\xca\xbf^\xd6A'
p42
tp43
Rp44
ag7
(g11
S'\x00\x00\x80\xd1\xbf^\xd6A'
p45
tp46
Rp47
aF-0.393669
aF-0.39367
aF0.0
aa(lp48
I4
ag6
aI6
ag7
(g11
S'\x00\x00@\xd4\xbf^\xd6A'
p49
tp50
Rp51
ag7
(g11
S'\x00\x00\x00\xdb\xbf^\xd6A'
p52
tp53
Rp54
aF-0.344461
aF-0.34446
aF0.0
aa(lp55
I4
ag6
aI7
ag7
(g11
S'\x00\x00\x80\xdd\xbf^\xd6A'
p56
tp57
Rp58
ag7
(g11
S'\x00\x00\x00\xe5\xbf^\xd6A'
p59
tp60
Rp61
aF-0.295252
aF-0.295252
aF0.0
aa(lp62
I4
ag6
aI8
ag7
(g11
S'\x00\x00\x80\xe7\xbf^\xd6A'
p63
tp64
Rp65
ag7
(g11
S'\x00\x00\x80\xee\xbf^\xd6A'
p66
tp67
Rp68
aF-0.246043
aF-0.246044
aF0.0
aa(lp69
I4
ag6
aI9
ag7
(g11
S'\x00\x00\x00\xf1\xbf^\xd6A'
p70
tp71
Rp72
ag7
(g11
S'\x00\x00@\xf8\xbf^\xd6A'
p73
tp74
Rp75
aF-0.196835
aF-0.196835
aF0.0
aa(lp76
I4
ag6
aI10
ag7
(g11
S'\x00\x00\x80\xfa\xbf^\xd6A'
p77
tp78
Rp79
ag7
(g11
S'\x00\x00\xc0\x01\xc0^\xd6A'
p80
tp81
Rp82
aF-0.147626
aF-0.147626
aF0.0
aa(lp83
I4
ag6
aI11
ag7
(g11
S'\x00\x00@\x04\xc0^\xd6A'
p84
tp85
Rp86
ag7
(g11
S'\x00\x00@\x0b\xc0^\xd6A'
p87
tp88
Rp89
aF-0.098417
aF-0.098417
aF0.0
aa(lp90
I4
ag6
aI12
ag7
(g11
S'\x00\x00\xc0\r\xc0^\xd6A'
p91
tp92
Rp93
ag7
(g11
S'\x00\x00\x00\x15\xc0^\xd6A'
p94
tp95
Rp96
aF-0.049209
aF-0.049209
aF0.0
aa(lp97
I4
ag6
aI13
ag7
(g11
S'\x00\x00\x80\x17\xc0^\xd6A'
p98
tp99
Rp100
ag7
(g11
S'\x00\x00\x80\x1e\xc0^\xd6A'
p101
tp102
Rp103
aF0.0
aF0.0
aF0.0
aa(lp104
I4
ag6
aI14
ag7
(g11
S'\x00\x00\x00!\xc0^\xd6A'
p105
tp106
Rp107
ag7
(g11
S'\x00\x00@(\xc0^\xd6A'
p108
tp109
Rp110
aF0.049209
aF0.049209
aF0.0
aa(lp111
I4
ag6
aI15
ag7
(g11
S'\x00\x00\x80*\xc0^\xd6A'
p112
tp113
Rp114
ag7
(g11
S'\x00\x00\xc01\xc0^\xd6A'
p115
tp116
Rp117
aF0.098417
aF0.098417
aF0.0
aa(lp118
I4
ag6
aI16
ag7
(g11
S'\x00\x00@4\xc0^\xd6A'
p119
tp120
Rp121
ag7
(g11
S'\x00\x00\x80;\xc0^\xd6A'
p122
tp123
Rp124
aF0.147626
aF0.147626
aF0.0
aa(lp125
I4
ag6
aI17
ag7
(g11
S'\x00\x00\xc0=\xc0^\xd6A'
p126
tp127
Rp128
ag7
(g11
S'\x00\x00\x00E\xc0^\xd6A'
p129
tp130
Rp131
aF0.196835
aF0.196835
aF0.0
aa(lp132
I4
ag6
aI18
ag7
(g11
S'\x00\x00\x80G\xc0^\xd6A'
p133
tp134
Rp135
ag7
(g11
S'\x00\x00\x80N\xc0^\xd6A'
p136
tp137
Rp138
aF0.246043
aF0.246044
aF0.0
aa(lp139
I4
ag6
aI19
ag7
(g11
S'\x00\x00\x00Q\xc0^\xd6A'
p140
tp141
Rp142
ag7
(g11
S'\x00\x00@X\xc0^\xd6A'
p143
tp144
Rp145
aF0.295252
aF0.295252
aF0.0
aa(lp146
I4
ag6
aI20
ag7
(g11
S'\x00\x00\x00[\xc0^\xd6A'
p147
tp148
Rp149
ag7
(g11
S'\x00\x00\xc0a\xc0^\xd6A'
p150
tp151
Rp152
aF0.344461
aF0.34446
aF0.0
aa(lp153
I4
ag6
aI21
ag7
(g11
S'\x00\x00\x80d\xc0^\xd6A'
p154
tp155
Rp156
ag7
(g11
S'\x00\x00\xc0k\xc0^\xd6A'
p157
tp158
Rp159
aF0.393669
aF0.39367
aF0.0
aa(lp160
I4
ag6
aI22
ag7
(g11
S'\x00\x00\xc0m\xc0^\xd6A'
p161
tp162
Rp163
ag7
(g11
S'\x00\x00@u\xc0^\xd6A'
p164
tp165
Rp166
aF0.442878
aF0.442878
aF0.0
aa(lp167
I4
ag6
aI23
ag7
(g11
S'\x00\x00\xc0w\xc0^\xd6A'
p168
tp169
Rp170
ag7
(g11
S'\x00\x00\x80~\xc0^\xd6A'
p171
tp172
Rp173
aF0.492087
aF0.492086
aF0.0
aa(lp174
I4
ag6
aI24
ag7
(g11
S'\x00\x00@\x81\xc0^\xd6A'
p175
tp176
Rp177
ag7
(g11
S'\x00\x00\x80\x88\xc0^\xd6A'
p178
tp179
Rp180
aF0.541295
aF0.541296
aF0.0
aa(lp181
I4
ag6
aI25
ag7
(g11
S'\x00\x00\x00\x8b\xc0^\xd6A'
p182
tp183
Rp184
ag7
(g11
S'\x00\x00\x00\x90\xc0^\xd6A'
p185
tp186
Rp187
aF0.590504
aF0.590504
aF0.0
aasS'Scan_5'
p188
(lp189
(lp190
I5
aVBIX1
p191
aI1
ag7
(g11
S'\x00\x00@3\xc2^\xd6A'
p192
tp193
Rp194
ag7
(g11
S'\x00\x00\x80>\xc2^\xd6A'
p195
tp196
Rp197
aF-0.442878
aF-0.442878
aF0.0
aa(lp198
I5
ag191
aI2
ag7
(g11
S'\x00\x00\x00B\xc2^\xd6A'
p199
tp200
Rp201
ag7
(g11
S'\x00\x00\xc0L\xc2^\xd6A'
p202
tp203
Rp204
aF-0.393669
aF-0.393669
aF0.0
aa(lp205
I5
ag191
aI3
ag7
(g11
S'\x00\x00\x00P\xc2^\xd6A'
p206
tp207
Rp208
ag7
(g11
S'\x00\x00\x80[\xc2^\xd6A'
p209
tp210
Rp211
aF-0.344461
aF-0.344461
aF0.0
aa(lp212
I5
ag191
aI4
ag7
(g11
S'\x00\x00\xc0^\xc2^\xd6A'
p213
tp214
Rp215
ag7
(g11
S'\x00\x00\x80i\xc2^\xd6A'
p216
tp217
Rp218
aF-0.295252
aF-0.295252
aF0.0
aa(lp219
I5
ag191
aI5
ag7
(g11
S'\x00\x00\x00m\xc2^\xd6A'
p220
tp221
Rp222
ag7
(g11
S'\x00\x00\xc0w\xc2^\xd6A'
p223
tp224
Rp225
aF-0.246043
aF-0.246043
aF0.0
aa(lp226
I5
ag191
aI6
ag7
(g11
S'\x00\x00\x00{\xc2^\xd6A'
p227
tp228
Rp229
ag7
(g11
S'\x00\x00\x00\x86\xc2^\xd6A'
p230
tp231
Rp232
aF-0.196835
aF-0.196835
aF0.0
aa(lp233
I5
ag191
aI7
ag7
(g11
S'\x00\x00@\x89\xc2^\xd6A'
p234
tp235
Rp236
ag7
(g11
S'\x00\x00\x80\x94\xc2^\xd6A'
p237
tp238
Rp239
aF-0.147626
aF-0.147626
aF0.0
aa(lp240
I5
ag191
aI8
ag7
(g11
S'\x00\x00\x80\x97\xc2^\xd6A'
p241
tp242
Rp243
ag7
(g11
S'\x00\x00\xc0\xa2\xc2^\xd6A'
p244
tp245
Rp246
aF-0.098417
aF-0.098417
aF0.0
aa(lp247
I5
ag191
aI9
ag7
(g11
S'\x00\x00\xc0\xa5\xc2^\xd6A'
p248
tp249
Rp250
ag7
(g11
S'\x00\x00\x00\xb1\xc2^\xd6A'
p251
tp252
Rp253
aF-0.049209
aF-0.049209
aF0.0
aa(lp254
I5
ag191
aI10
ag7
(g11
S'\x00\x00\x00\xb4\xc2^\xd6A'
p255
tp256
Rp257
ag7
(g11
S'\x00\x00@\xbf\xc2^\xd6A'
p258
tp259
Rp260
aF0.0
aF0.0
aF0.0
aa(lp261
I5
ag191
aI11
ag7
(g11
S'\x00\x00\x00\xc2\xc2^\xd6A'
p262
tp263
Rp264
ag7
(g11
S'\x00\x00\x80\xcd\xc2^\xd6A'
p265
tp266
Rp267
aF0.049209
aF0.049209
aF0.0
aa(lp268
I5
ag191
aI12
ag7
(g11
S'\x00\x00@\xd0\xc2^\xd6A'
p269
tp270
Rp271
ag7
(g11
S'\x00\x00\x80\xdb\xc2^\xd6A'
p272
tp273
Rp274
aF0.098417
aF0.098417
aF0.0
aa(lp275
I5
ag191
aI13
ag7
(g11
S'\x00\x00\x80\xde\xc2^\xd6A'
p276
tp277
Rp278
ag7
(g11
S'\x00\x00\xc0\xe9\xc2^\xd6A'
p279
tp280
Rp281
aF0.147626
aF0.147626
aF0.0
aa(lp282
I5
ag191
aI14
ag7
(g11
S'\x00\x00\xc0\xec\xc2^\xd6A'
p283
tp284
Rp285
ag7
(g11
S'\x00\x00\x00\xf8\xc2^\xd6A'
p286
tp287
Rp288
aF0.196835
aF0.196835
aF0.0
aa(lp289
I5
ag191
aI15
ag7
(g11
S'\x00\x00\x00\xfb\xc2^\xd6A'
p290
tp291
Rp292
ag7
(g11
S'\x00\x00@\x06\xc3^\xd6A'
p293
tp294
Rp295
aF0.246043
aF0.246043
aF0.0
aa(lp296
I5
ag191
aI16
ag7
(g11
S'\x00\x00@\t\xc3^\xd6A'
p297
tp298
Rp299
ag7
(g11
S'\x00\x00\x80\x14\xc3^\xd6A'
p300
tp301
Rp302
aF0.295252
aF0.295252
aF0.0
aa(lp303
I5
ag191
aI17
ag7
(g11
S'\x00\x00@\x17\xc3^\xd6A'
p304
tp305
Rp306
ag7
(g11
S'\x00\x00\x80"\xc3^\xd6A'
p307
tp308
Rp309
aF0.344461
aF0.344461
aF0.0
aa(lp310
I5
ag191
aI18
ag7
(g11
S'\x00\x00\x00&\xc3^\xd6A'
p311
tp312
Rp313
ag7
(g11
S'\x00\x00\xc00\xc3^\xd6A'
p314
tp315
Rp316
aF0.393669
aF0.393669
aF0.0
aa(lp317
I5
ag191
aI19
ag7
(g11
S'\x00\x00\x004\xc3^\xd6A'
p318
tp319
Rp320
ag7
(g11
S'\x00\x00\xc08\xc3^\xd6A'
p321
tp322
Rp323
aF0.442878
aF0.442878
aF0.0
aasS'Scan_6'
p324
(lp325
(lp326
I6
aVBIY1
p327
aI1
ag7
(g11
S'\x00\x00\x00\x90\xc3^\xd6A'
p328
tp329
Rp330
ag7
(g11
S'\x00\x00\xc0\x9a\xc3^\xd6A'
p331
tp332
Rp333
aF-0.442878
aF0.0
aF-0.442878
aa(lp334
I6
ag327
aI2
ag7
(g11
S'\x00\x00\x80\x9e\xc3^\xd6A'
p335
tp336
Rp337
ag7
(g11
S'\x00\x00\xc0\xa9\xc3^\xd6A'
p338
tp339
Rp340
aF-0.393669
aF0.0
aF-0.393669
aa(lp341
I6
ag327
aI3
ag7
(g11
S'\x00\x00\x00\xad\xc3^\xd6A'
p342
tp343
Rp344
ag7
(g11
S'\x00\x00\x00\xb8\xc3^\xd6A'
p345
tp346
Rp347
aF-0.344461
aF0.0
aF-0.344461
aa(lp348
I6
ag327
aI4
ag7
(g11
S'\x00\x00@\xbb\xc3^\xd6A'
p349
tp350
Rp351
ag7
(g11
S'\x00\x00\x80\xc6\xc3^\xd6A'
p352
tp353
Rp354
aF-0.295252
aF0.0
aF-0.295252
aa(lp355
I6
ag327
aI5
ag7
(g11
S'\x00\x00\xc0\xc9\xc3^\xd6A'
p356
tp357
Rp358
ag7
(g11
S'\x00\x00\xc0\xd4\xc3^\xd6A'
p359
tp360
Rp361
aF-0.246043
aF0.0
aF-0.246043
aa(lp362
I6
ag327
aI6
ag7
(g11
S'\x00\x00\x80\xd8\xc3^\xd6A'
p363
tp364
Rp365
ag7
(g11
S'\x00\x00@\xe3\xc3^\xd6A'
p366
tp367
Rp368
aF-0.196835
aF0.0
aF-0.196835
aa(lp369
I6
ag327
aI7
ag7
(g11
S'\x00\x00\x80\xe6\xc3^\xd6A'
p370
tp371
Rp372
ag7
(g11
S'\x00\x00\x00\xf2\xc3^\xd6A'
p373
tp374
Rp375
aF-0.147626
aF0.0
aF-0.147626
aa(lp376
I6
ag327
aI8
ag7
(g11
S'\x00\x00@\xf5\xc3^\xd6A'
p377
tp378
Rp379
ag7
(g11
S'\x00\x00\x00\x00\xc4^\xd6A'
p380
tp381
Rp382
aF-0.098417
aF0.0
aF-0.098417
aa(lp383
I6
ag327
aI9
ag7
(g11
S'\x00\x00@\x03\xc4^\xd6A'
p384
tp385
Rp386
ag7
(g11
S'\x00\x00\xc0\x0e\xc4^\xd6A'
p387
tp388
Rp389
aF-0.049209
aF0.0
aF-0.049209
aa(lp390
I6
ag327
aI10
ag7
(g11
S'\x00\x00\x00\x12\xc4^\xd6A'
p391
tp392
Rp393
ag7
(g11
S'\x00\x00@\x1d\xc4^\xd6A'
p394
tp395
Rp396
aF0.0
aF0.0
aF0.0
aa(lp397
I6
ag327
aI11
ag7
(g11
S'\x00\x00@ \xc4^\xd6A'
p398
tp399
Rp400
ag7
(g11
S'\x00\x00@,\xc4^\xd6A'
p401
tp402
Rp403
aF0.049209
aF0.0
aF0.049209
aa(lp404
I6
ag327
aI12
ag7
(g11
S'\x00\x00\x00/\xc4^\xd6A'
p405
tp406
Rp407
ag7
(g11
S'\x00\x00@:\xc4^\xd6A'
p408
tp409
Rp410
aF0.098417
aF0.0
aF0.098417
aa(lp411
I6
ag327
aI13
ag7
(g11
S'\x00\x00\xc0=\xc4^\xd6A'
p412
tp413
Rp414
ag7
(g11
S'\x00\x00\x00I\xc4^\xd6A'
p415
tp416
Rp417
aF0.147626
aF0.0
aF0.147626
aa(lp418
I6
ag327
aI14
ag7
(g11
S'\x00\x00\xc0K\xc4^\xd6A'
p419
tp420
Rp421
ag7
(g11
S'\x00\x00@W\xc4^\xd6A'
p422
tp423
Rp424
aF0.196835
aF0.0
aF0.196835
aa(lp425
I6
ag327
aI15
ag7
(g11
S'\x00\x00\x80Z\xc4^\xd6A'
p426
tp427
Rp428
ag7
(g11
S'\x00\x00\xc0e\xc4^\xd6A'
p429
tp430
Rp431
aF0.246043
aF0.0
aF0.246043
aa(lp432
I6
ag327
aI16
ag7
(g11
S'\x00\x00\x80h\xc4^\xd6A'
p433
tp434
Rp435
ag7
(g11
S'\x00\x00\x00t\xc4^\xd6A'
p436
tp437
Rp438
aF0.295252
aF0.0
aF0.295252
aa(lp439
I6
ag327
aI17
ag7
(g11
S'\x00\x00@w\xc4^\xd6A'
p440
tp441
Rp442
ag7
(g11
S'\x00\x00\x80\x82\xc4^\xd6A'
p443
tp444
Rp445
aF0.344461
aF0.0
aF0.344461
aa(lp446
I6
ag327
aI18
ag7
(g11
S'\x00\x00\xc0\x85\xc4^\xd6A'
p447
tp448
Rp449
ag7
(g11
S'\x00\x00\xc0\x90\xc4^\xd6A'
p450
tp451
Rp452
aF0.393669
aF0.0
aF0.393669
aa(lp453
I6
ag327
aI19
ag7
(g11
S'\x00\x00\x00\x94\xc4^\xd6A'
p454
tp455
Rp456
ag7
(g11
S'\x00\x00\x00\x99\xc4^\xd6A'
p457
tp458
Rp459
aF0.442878
aF0.0
aF0.442878
aasS'Scan_7'
p460
(lp461
(lp462
I7
aVBIX2
p463
aI1
ag7
(g11
S'\x00\x00@d\xc5^\xd6A'
p464
tp465
Rp466
ag7
(g11
S'\x00\x00\x80o\xc5^\xd6A'
p467
tp468
Rp469
aF0.442878
aF0.442878
aF0.0
aa(lp470
I7
ag463
aI2
ag7
(g11
S'\x00\x00\x80r\xc5^\xd6A'
p471
tp472
Rp473
ag7
(g11
S'\x00\x00\xc0}\xc5^\xd6A'
p474
tp475
Rp476
aF0.393669
aF0.393669
aF0.0
aa(lp477
I7
ag463
aI3
ag7
(g11
S'\x00\x00\x00\x81\xc5^\xd6A'
p478
tp479
Rp480
ag7
(g11
S'\x00\x00\x80\x8c\xc5^\xd6A'
p481
tp482
Rp483
aF0.344461
aF0.344461
aF0.0
aa(lp484
I7
ag463
aI4
ag7
(g11
S'\x00\x00@\x8f\xc5^\xd6A'
p485
tp486
Rp487
ag7
(g11
S'\x00\x00\x80\x9a\xc5^\xd6A'
p488
tp489
Rp490
aF0.295252
aF0.295252
aF0.0
aa(lp491
I7
ag463
aI5
ag7
(g11
S'\x00\x00\xc0\x9d\xc5^\xd6A'
p492
tp493
Rp494
ag7
(g11
S'\x00\x00\xc0\xa8\xc5^\xd6A'
p495
tp496
Rp497
aF0.246043
aF0.246043
aF0.0
aa(lp498
I7
ag463
aI6
ag7
(g11
S'\x00\x00\x00\xac\xc5^\xd6A'
p499
tp500
Rp501
ag7
(g11
S'\x00\x00@\xb7\xc5^\xd6A'
p502
tp503
Rp504
aF0.196835
aF0.196835
aF0.0
aa(lp505
I7
ag463
aI7
ag7
(g11
S'\x00\x00\xc0\xba\xc5^\xd6A'
p506
tp507
Rp508
ag7
(g11
S'\x00\x00\x80\xc5\xc5^\xd6A'
p509
tp510
Rp511
aF0.147626
aF0.147626
aF0.0
aa(lp512
I7
ag463
aI8
ag7
(g11
S'\x00\x00\xc0\xc8\xc5^\xd6A'
p513
tp514
Rp515
ag7
(g11
S'\x00\x00@\xd4\xc5^\xd6A'
p516
tp517
Rp518
aF0.098417
aF0.098417
aF0.0
aa(lp519
I7
ag463
aI9
ag7
(g11
S'\x00\x00\x80\xd7\xc5^\xd6A'
p520
tp521
Rp522
ag7
(g11
S'\x00\x00@\xe2\xc5^\xd6A'
p523
tp524
Rp525
aF0.049209
aF0.049209
aF0.0
aa(lp526
I7
ag463
aI10
ag7
(g11
S'\x00\x00\x80\xe5\xc5^\xd6A'
p527
tp528
Rp529
ag7
(g11
S'\x00\x00\x00\xf1\xc5^\xd6A'
p530
tp531
Rp532
aF-0.0
aF-0.0
aF0.0
aa(lp533
I7
ag463
aI11
ag7
(g11
S'\x00\x00@\xf4\xc5^\xd6A'
p534
tp535
Rp536
ag7
(g11
S'\x00\x00\x00\xff\xc5^\xd6A'
p537
tp538
Rp539
aF-0.049209
aF-0.049209
aF0.0
aa(lp540
I7
ag463
aI12
ag7
(g11
S'\x00\x00\x80\x02\xc6^\xd6A'
p541
tp542
Rp543
ag7
(g11
S'\x00\x00\xc0\r\xc6^\xd6A'
p544
tp545
Rp546
aF-0.098417
aF-0.098417
aF0.0
aa(lp547
I7
ag463
aI13
ag7
(g11
S'\x00\x00\x00\x11\xc6^\xd6A'
p548
tp549
Rp550
ag7
(g11
S'\x00\x00\x00\x1c\xc6^\xd6A'
p551
tp552
Rp553
aF-0.147626
aF-0.147626
aF0.0
aa(lp554
I7
ag463
aI14
ag7
(g11
S'\x00\x00@\x1f\xc6^\xd6A'
p555
tp556
Rp557
ag7
(g11
S'\x00\x00\x80*\xc6^\xd6A'
p558
tp559
Rp560
aF-0.196835
aF-0.196835
aF0.0
aa(lp561
I7
ag463
aI15
ag7
(g11
S'\x00\x00\x80-\xc6^\xd6A'
p562
tp563
Rp564
ag7
(g11
S'\x00\x00\xc08\xc6^\xd6A'
p565
tp566
Rp567
aF-0.246043
aF-0.246043
aF0.0
aa(lp568
I7
ag463
aI16
ag7
(g11
S'\x00\x00\x00<\xc6^\xd6A'
p569
tp570
Rp571
ag7
(g11
S'\x00\x00@G\xc6^\xd6A'
p572
tp573
Rp574
aF-0.295252
aF-0.295252
aF0.0
aa(lp575
I7
ag463
aI17
ag7
(g11
S'\x00\x00@J\xc6^\xd6A'
p576
tp577
Rp578
ag7
(g11
S'\x00\x00\x80U\xc6^\xd6A'
p579
tp580
Rp581
aF-0.344461
aF-0.344461
aF0.0
aa(lp582
I7
ag463
aI18
ag7
(g11
S'\x00\x00\xc0X\xc6^\xd6A'
p583
tp584
Rp585
ag7
(g11
S'\x00\x00\xc0c\xc6^\xd6A'
p586
tp587
Rp588
aF-0.393669
aF-0.393669
aF0.0
aa(lp589
I7
ag463
aI19
ag7
(g11
S'\x00\x00\x00g\xc6^\xd6A'
p590
tp591
Rp592
ag7
(g11
S'\x00\x00\x00l\xc6^\xd6A'
p593
tp594
Rp595
aF-0.442878
aF-0.442878
aF0.0
aasS'Scan_1'
p596
(lp597
(lp598
I1
aVX1
p599
aI1
ag7
(g11
S'\x00\x00\x80\xd7\xbb^\xd6A'
p600
tp601
Rp602
ag7
(g11
S'\x00\x00\x80\xde\xbb^\xd6A'
p603
tp604
Rp605
aF-0.590504
aF-0.590504
aF0.0
aa(lp606
I1
ag599
aI2
ag7
(g11
S'\x00\x00\x00\xe1\xbb^\xd6A'
p607
tp608
Rp609
ag7
(g11
S'\x00\x00@\xe8\xbb^\xd6A'
p610
tp611
Rp612
aF-0.541295
aF-0.541296
aF0.0
aa(lp613
I1
ag599
aI3
ag7
(g11
S'\x00\x00\x00\xeb\xbb^\xd6A'
p614
tp615
Rp616
ag7
(g11
S'\x00\x00\xc0\xf1\xbb^\xd6A'
p617
tp618
Rp619
aF-0.492087
aF-0.492086
aF0.0
aa(lp620
I1
ag599
aI4
ag7
(g11
S'\x00\x00@\xf4\xbb^\xd6A'
p621
tp622
Rp623
ag7
(g11
S'\x00\x00\xc0\xfb\xbb^\xd6A'
p624
tp625
Rp626
aF-0.442878
aF-0.442878
aF0.0
aa(lp627
I1
ag599
aI5
ag7
(g11
S'\x00\x00@\xfe\xbb^\xd6A'
p628
tp629
Rp630
ag7
(g11
S'\x00\x00\x00\x05\xbc^\xd6A'
p631
tp632
Rp633
aF-0.393669
aF-0.39367
aF0.0
aa(lp634
I1
ag599
aI6
ag7
(g11
S'\x00\x00\xc0\x07\xbc^\xd6A'
p635
tp636
Rp637
ag7
(g11
S'\x00\x00\x00\x0f\xbc^\xd6A'
p638
tp639
Rp640
aF-0.344461
aF-0.34446
aF0.0
aa(lp641
I1
ag599
aI7
ag7
(g11
S'\x00\x00\x00\x11\xbc^\xd6A'
p642
tp643
Rp644
ag7
(g11
S'\x00\x00\x80\x18\xbc^\xd6A'
p645
tp646
Rp647
aF-0.295252
aF-0.295252
aF0.0
aa(lp648
I1
ag599
aI8
ag7
(g11
S'\x00\x00\x00\x1b\xbc^\xd6A'
p649
tp650
Rp651
ag7
(g11
S'\x00\x00@"\xbc^\xd6A'
p652
tp653
Rp654
aF-0.246043
aF-0.246044
aF0.0
aa(lp655
I1
ag599
aI9
ag7
(g11
S'\x00\x00\x80$\xbc^\xd6A'
p656
tp657
Rp658
ag7
(g11
S'\x00\x00\xc0+\xbc^\xd6A'
p659
tp660
Rp661
aF-0.196835
aF-0.196835
aF0.0
aa(lp662
I1
ag599
aI10
ag7
(g11
S'\x00\x00@.\xbc^\xd6A'
p663
tp664
Rp665
ag7
(g11
S'\x00\x00@5\xbc^\xd6A'
p666
tp667
Rp668
aF-0.147626
aF-0.147626
aF0.0
aa(lp669
I1
ag599
aI11
ag7
(g11
S'\x00\x00\xc07\xbc^\xd6A'
p670
tp671
Rp672
ag7
(g11
S'\x00\x00\x00?\xbc^\xd6A'
p673
tp674
Rp675
aF-0.098417
aF-0.098417
aF0.0
aa(lp676
I1
ag599
aI12
ag7
(g11
S'\x00\x00\x80A\xbc^\xd6A'
p677
tp678
Rp679
ag7
(g11
S'\x00\x00\x80H\xbc^\xd6A'
p680
tp681
Rp682
aF-0.049209
aF-0.049209
aF0.0
aa(lp683
I1
ag599
aI13
ag7
(g11
S'\x00\x00\x00K\xbc^\xd6A'
p684
tp685
Rp686
ag7
(g11
S'\x00\x00@R\xbc^\xd6A'
p687
tp688
Rp689
aF0.0
aF0.0
aF0.0
aa(lp690
I1
ag599
aI14
ag7
(g11
S'\x00\x00\xc0T\xbc^\xd6A'
p691
tp692
Rp693
ag7
(g11
S'\x00\x00\xc0[\xbc^\xd6A'
p694
tp695
Rp696
aF0.049209
aF0.049209
aF0.0
aa(lp697
I1
ag599
aI15
ag7
(g11
S'\x00\x00@^\xbc^\xd6A'
p698
tp699
Rp700
ag7
(g11
S'\x00\x00@e\xbc^\xd6A'
p701
tp702
Rp703
aF0.098417
aF0.098417
aF0.0
aa(lp704
I1
ag599
aI16
ag7
(g11
S'\x00\x00\xc0g\xbc^\xd6A'
p705
tp706
Rp707
ag7
(g11
S'\x00\x00\x00o\xbc^\xd6A'
p708
tp709
Rp710
aF0.147626
aF0.147626
aF0.0
aa(lp711
I1
ag599
aI17
ag7
(g11
S'\x00\x00\xc0q\xbc^\xd6A'
p712
tp713
Rp714
ag7
(g11
S'\x00\x00\x80x\xbc^\xd6A'
p715
tp716
Rp717
aF0.196835
aF0.196835
aF0.0
aa(lp718
I1
ag599
aI18
ag7
(g11
S'\x00\x00\x00{\xbc^\xd6A'
p719
tp720
Rp721
ag7
(g11
S'\x00\x00\x80\x82\xbc^\xd6A'
p722
tp723
Rp724
aF0.246043
aF0.246044
aF0.0
aa(lp725
I1
ag599
aI19
ag7
(g11
S'\x00\x00\x00\x85\xbc^\xd6A'
p726
tp727
Rp728
ag7
(g11
S'\x00\x00\xc0\x8b\xbc^\xd6A'
p729
tp730
Rp731
aF0.295252
aF0.295252
aF0.0
aa(lp732
I1
ag599
aI20
ag7
(g11
S'\x00\x00\x80\x8e\xbc^\xd6A'
p733
tp734
Rp735
ag7
(g11
S'\x00\x00\xc0\x95\xbc^\xd6A'
p736
tp737
Rp738
aF0.344461
aF0.34446
aF0.0
aa(lp739
I1
ag599
aI21
ag7
(g11
S'\x00\x00\x00\x98\xbc^\xd6A'
p740
tp741
Rp742
ag7
(g11
S'\x00\x00@\x9f\xbc^\xd6A'
p743
tp744
Rp745
aF0.393669
aF0.39367
aF0.0
aa(lp746
I1
ag599
aI22
ag7
(g11
S'\x00\x00\xc0\xa1\xbc^\xd6A'
p747
tp748
Rp749
ag7
(g11
S'\x00\x00\x00\xa9\xbc^\xd6A'
p750
tp751
Rp752
aF0.442878
aF0.442878
aF0.0
aa(lp753
I1
ag599
aI23
ag7
(g11
S'\x00\x00@\xab\xbc^\xd6A'
p754
tp755
Rp756
ag7
(g11
S'\x00\x00\x80\xb2\xbc^\xd6A'
p757
tp758
Rp759
aF0.492087
aF0.492086
aF0.0
aa(lp760
I1
ag599
aI24
ag7
(g11
S'\x00\x00\x00\xb5\xbc^\xd6A'
p761
tp762
Rp763
ag7
(g11
S'\x00\x00\x00\xbc\xbc^\xd6A'
p764
tp765
Rp766
aF0.541295
aF0.541296
aF0.0
aa(lp767
I1
ag599
aI25
ag7
(g11
S'\x00\x00\x80\xbe\xbc^\xd6A'
p768
tp769
Rp770
ag7
(g11
S'\x00\x00\x80\xc3\xbc^\xd6A'
p771
tp772
Rp773
aF0.590504
aF0.590504
aF0.0
aasS'Scan_2'
p774
(lp775
(lp776
I2
aVY1
p777
aI1
ag7
(g11
S'\x00\x00@\n\xbd^\xd6A'
p778
tp779
Rp780
ag7
(g11
S'\x00\x00\x80\x11\xbd^\xd6A'
p781
tp782
Rp783
aF-0.590504
aF0.0
aF-0.590504
aa(lp784
I2
ag777
aI2
ag7
(g11
S'\x00\x00\x00\x14\xbd^\xd6A'
p785
tp786
Rp787
ag7
(g11
S'\x00\x00\x00\x1b\xbd^\xd6A'
p788
tp789
Rp790
aF-0.541295
aF0.0
aF-0.541296
aa(lp791
I2
ag777
aI3
ag7
(g11
S'\x00\x00\x80\x1d\xbd^\xd6A'
p792
tp793
Rp794
ag7
(g11
S'\x00\x00@%\xbd^\xd6A'
p795
tp796
Rp797
aF-0.492087
aF0.0
aF-0.492086
aa(lp798
I2
ag777
aI4
ag7
(g11
S"\x00\x00\xc0'\xbd^\xd6A"
p799
tp800
Rp801
ag7
(g11
S'\x00\x00\x00/\xbd^\xd6A'
p802
tp803
Rp804
aF-0.442878
aF0.0
aF-0.442878
aa(lp805
I2
ag777
aI5
ag7
(g11
S'\x00\x00@1\xbd^\xd6A'
p806
tp807
Rp808
ag7
(g11
S'\x00\x00\x808\xbd^\xd6A'
p809
tp810
Rp811
aF-0.393669
aF0.0
aF-0.39367
aa(lp812
I2
ag777
aI6
ag7
(g11
S'\x00\x00\x00;\xbd^\xd6A'
p813
tp814
Rp815
ag7
(g11
S'\x00\x00@B\xbd^\xd6A'
p816
tp817
Rp818
aF-0.344461
aF0.0
aF-0.34446
aa(lp819
I2
ag777
aI7
ag7
(g11
S'\x00\x00\x80D\xbd^\xd6A'
p820
tp821
Rp822
ag7
(g11
S'\x00\x00\xc0K\xbd^\xd6A'
p823
tp824
Rp825
aF-0.295252
aF0.0
aF-0.295252
aa(lp826
I2
ag777
aI8
ag7
(g11
S'\x00\x00\x80N\xbd^\xd6A'
p827
tp828
Rp829
ag7
(g11
S'\x00\x00@U\xbd^\xd6A'
p830
tp831
Rp832
aF-0.246043
aF0.0
aF-0.246044
aa(lp833
I2
ag777
aI9
ag7
(g11
S'\x00\x00\xc0W\xbd^\xd6A'
p834
tp835
Rp836
ag7
(g11
S'\x00\x00\x00_\xbd^\xd6A'
p837
tp838
Rp839
aF-0.196835
aF0.0
aF-0.196835
aa(lp840
I2
ag777
aI10
ag7
(g11
S'\x00\x00\xc0a\xbd^\xd6A'
p841
tp842
Rp843
ag7
(g11
S'\x00\x00\x00i\xbd^\xd6A'
p844
tp845
Rp846
aF-0.147626
aF0.0
aF-0.147626
aa(lp847
I2
ag777
aI11
ag7
(g11
S'\x00\x00@k\xbd^\xd6A'
p848
tp849
Rp850
ag7
(g11
S'\x00\x00\x80r\xbd^\xd6A'
p851
tp852
Rp853
aF-0.098417
aF0.0
aF-0.098417
aa(lp854
I2
ag777
aI12
ag7
(g11
S'\x00\x00\x00u\xbd^\xd6A'
p855
tp856
Rp857
ag7
(g11
S'\x00\x00@|\xbd^\xd6A'
p858
tp859
Rp860
aF-0.049209
aF0.0
aF-0.049209
aa(lp861
I2
ag777
aI13
ag7
(g11
S'\x00\x00\x80~\xbd^\xd6A'
p862
tp863
Rp864
ag7
(g11
S'\x00\x00\xc0\x85\xbd^\xd6A'
p865
tp866
Rp867
aF0.0
aF0.0
aF0.0
aa(lp868
I2
ag777
aI14
ag7
(g11
S'\x00\x00@\x88\xbd^\xd6A'
p869
tp870
Rp871
ag7
(g11
S'\x00\x00\x80\x8f\xbd^\xd6A'
p872
tp873
Rp874
aF0.049209
aF0.0
aF0.049209
aa(lp875
I2
ag777
aI15
ag7
(g11
S'\x00\x00\xc0\x91\xbd^\xd6A'
p876
tp877
Rp878
ag7
(g11
S'\x00\x00\x00\x99\xbd^\xd6A'
p879
tp880
Rp881
aF0.098417
aF0.0
aF0.098417
aa(lp882
I2
ag777
aI16
ag7
(g11
S'\x00\x00\x80\x9b\xbd^\xd6A'
p883
tp884
Rp885
ag7
(g11
S'\x00\x00\xc0\xa2\xbd^\xd6A'
p886
tp887
Rp888
aF0.147626
aF0.0
aF0.147626
aa(lp889
I2
ag777
aI17
ag7
(g11
S'\x00\x00\x80\xa5\xbd^\xd6A'
p890
tp891
Rp892
ag7
(g11
S'\x00\x00@\xac\xbd^\xd6A'
p893
tp894
Rp895
aF0.196835
aF0.0
aF0.196835
aa(lp896
I2
ag777
aI18
ag7
(g11
S'\x00\x00\x00\xaf\xbd^\xd6A'
p897
tp898
Rp899
ag7
(g11
S'\x00\x00@\xb6\xbd^\xd6A'
p900
tp901
Rp902
aF0.246043
aF0.0
aF0.246044
aa(lp903
I2
ag777
aI19
ag7
(g11
S'\x00\x00@\xb8\xbd^\xd6A'
p904
tp905
Rp906
ag7
(g11
S'\x00\x00\xc0\xbf\xbd^\xd6A'
p907
tp908
Rp909
aF0.295252
aF0.0
aF0.295252
aa(lp910
I2
ag777
aI20
ag7
(g11
S'\x00\x00@\xc2\xbd^\xd6A'
p911
tp912
Rp913
ag7
(g11
S'\x00\x00\x80\xc9\xbd^\xd6A'
p914
tp915
Rp916
aF0.344461
aF0.0
aF0.34446
aa(lp917
I2
ag777
aI21
ag7
(g11
S'\x00\x00\xc0\xcb\xbd^\xd6A'
p918
tp919
Rp920
ag7
(g11
S'\x00\x00\x00\xd3\xbd^\xd6A'
p921
tp922
Rp923
aF0.393669
aF0.0
aF0.39367
aa(lp924
I2
ag777
aI22
ag7
(g11
S'\x00\x00\x80\xd5\xbd^\xd6A'
p925
tp926
Rp927
ag7
(g11
S'\x00\x00\x80\xdc\xbd^\xd6A'
p928
tp929
Rp930
aF0.442878
aF0.0
aF0.442878
aa(lp931
I2
ag777
aI23
ag7
(g11
S'\x00\x00\x00\xdf\xbd^\xd6A'
p932
tp933
Rp934
ag7
(g11
S'\x00\x00@\xe6\xbd^\xd6A'
p935
tp936
Rp937
aF0.492087
aF0.0
aF0.492086
aa(lp938
I2
ag777
aI24
ag7
(g11
S'\x00\x00\xc0\xe8\xbd^\xd6A'
p939
tp940
Rp941
ag7
(g11
S'\x00\x00\x00\xf0\xbd^\xd6A'
p942
tp943
Rp944
aF0.541295
aF0.0
aF0.541296
aa(lp945
I2
ag777
aI25
ag7
(g11
S'\x00\x00@\xf2\xbd^\xd6A'
p946
tp947
Rp948
ag7
(g11
S'\x00\x00\x80\xf9\xbd^\xd6A'
p949
tp950
Rp951
aF0.590504
aF0.0
aF0.590504
aasS'Scan_3'
p952
(lp953
(lp954
I3
aVY2
p955
aI1
ag7
(g11
S'\x00\x00\x80\\\xbe^\xd6A'
p956
tp957
Rp958
ag7
(g11
S'\x00\x00\x80c\xbe^\xd6A'
p959
tp960
Rp961
aF-0.590504
aF0.0
aF-0.590504
aa(lp962
I3
ag955
aI2
ag7
(g11
S'\x00\x00\x00f\xbe^\xd6A'
p963
tp964
Rp965
ag7
(g11
S'\x00\x00\x80m\xbe^\xd6A'
p966
tp967
Rp968
aF-0.541295
aF0.0
aF-0.541296
aa(lp969
I3
ag955
aI3
ag7
(g11
S'\x00\x00\x00p\xbe^\xd6A'
p970
tp971
Rp972
ag7
(g11
S'\x00\x00\xc0v\xbe^\xd6A'
p973
tp974
Rp975
aF-0.492087
aF0.0
aF-0.492086
aa(lp976
I3
ag955
aI4
ag7
(g11
S'\x00\x00\x80y\xbe^\xd6A'
p977
tp978
Rp979
ag7
(g11
S'\x00\x00\xc0\x80\xbe^\xd6A'
p980
tp981
Rp982
aF-0.442878
aF0.0
aF-0.442878
aa(lp983
I3
ag955
aI5
ag7
(g11
S'\x00\x00@\x83\xbe^\xd6A'
p984
tp985
Rp986
ag7
(g11
S'\x00\x00@\x8a\xbe^\xd6A'
p987
tp988
Rp989
aF-0.393669
aF0.0
aF-0.39367
aa(lp990
I3
ag955
aI6
ag7
(g11
S'\x00\x00\xc0\x8c\xbe^\xd6A'
p991
tp992
Rp993
ag7
(g11
S'\x00\x00\x00\x94\xbe^\xd6A'
p994
tp995
Rp996
aF-0.344461
aF0.0
aF-0.34446
aa(lp997
I3
ag955
aI7
ag7
(g11
S'\x00\x00\x80\x96\xbe^\xd6A'
p998
tp999
Rp1000
ag7
(g11
S'\x00\x00\x80\x9d\xbe^\xd6A'
p1001
tp1002
Rp1003
aF-0.295252
aF0.0
aF-0.295252
aa(lp1004
I3
ag955
aI8
ag7
(g11
S'\x00\x00\x00\xa0\xbe^\xd6A'
p1005
tp1006
Rp1007
ag7
(g11
S'\x00\x00@\xa7\xbe^\xd6A'
p1008
tp1009
Rp1010
aF-0.246043
aF0.0
aF-0.246044
aa(lp1011
I3
ag955
aI9
ag7
(g11
S'\x00\x00\xc0\xa9\xbe^\xd6A'
p1012
tp1013
Rp1014
ag7
(g11
S'\x00\x00\xc0\xb0\xbe^\xd6A'
p1015
tp1016
Rp1017
aF-0.196835
aF0.0
aF-0.196835
aa(lp1018
I3
ag955
aI10
ag7
(g11
S'\x00\x00@\xb3\xbe^\xd6A'
p1019
tp1020
Rp1021
ag7
(g11
S'\x00\x00\x80\xba\xbe^\xd6A'
p1022
tp1023
Rp1024
aF-0.147626
aF0.0
aF-0.147626
aa(lp1025
I3
ag955
aI11
ag7
(g11
S'\x00\x00@\xbd\xbe^\xd6A'
p1026
tp1027
Rp1028
ag7
(g11
S'\x00\x00\x00\xc4\xbe^\xd6A'
p1029
tp1030
Rp1031
aF-0.098417
aF0.0
aF-0.098417
aa(lp1032
I3
ag955
aI12
ag7
(g11
S'\x00\x00\xc0\xc6\xbe^\xd6A'
p1033
tp1034
Rp1035
ag7
(g11
S'\x00\x00\x00\xce\xbe^\xd6A'
p1036
tp1037
Rp1038
aF-0.049209
aF0.0
aF-0.049209
aa(lp1039
I3
ag955
aI13
ag7
(g11
S'\x00\x00\x00\xd0\xbe^\xd6A'
p1040
tp1041
Rp1042
ag7
(g11
S'\x00\x00\x80\xd7\xbe^\xd6A'
p1043
tp1044
Rp1045
aF0.0
aF0.0
aF0.0
aa(lp1046
I3
ag955
aI14
ag7
(g11
S'\x00\x00\x00\xda\xbe^\xd6A'
p1047
tp1048
Rp1049
ag7
(g11
S'\x00\x00@\xe1\xbe^\xd6A'
p1050
tp1051
Rp1052
aF0.049209
aF0.0
aF0.049209
aa(lp1053
I3
ag955
aI15
ag7
(g11
S'\x00\x00\x80\xe3\xbe^\xd6A'
p1054
tp1055
Rp1056
ag7
(g11
S'\x00\x00\xc0\xea\xbe^\xd6A'
p1057
tp1058
Rp1059
aF0.098417
aF0.0
aF0.098417
aa(lp1060
I3
ag955
aI16
ag7
(g11
S'\x00\x00@\xed\xbe^\xd6A'
p1061
tp1062
Rp1063
ag7
(g11
S'\x00\x00\x80\xf4\xbe^\xd6A'
p1064
tp1065
Rp1066
aF0.147626
aF0.0
aF0.147626
aa(lp1067
I3
ag955
aI17
ag7
(g11
S'\x00\x00\xc0\xf6\xbe^\xd6A'
p1068
tp1069
Rp1070
ag7
(g11
S'\x00\x00\x00\xfe\xbe^\xd6A'
p1071
tp1072
Rp1073
aF0.196835
aF0.0
aF0.196835
aa(lp1074
I3
ag955
aI18
ag7
(g11
S'\x00\x00\x80\x00\xbf^\xd6A'
p1075
tp1076
Rp1077
ag7
(g11
S'\x00\x00\xc0\x07\xbf^\xd6A'
p1078
tp1079
Rp1080
aF0.246043
aF0.0
aF0.246044
aa(lp1081
I3
ag955
aI19
ag7
(g11
S'\x00\x00\x00\n\xbf^\xd6A'
p1082
tp1083
Rp1084
ag7
(g11
S'\x00\x00@\x11\xbf^\xd6A'
p1085
tp1086
Rp1087
aF0.295252
aF0.0
aF0.295252
aa(lp1088
I3
ag955
aI20
ag7
(g11
S'\x00\x00\xc0\x13\xbf^\xd6A'
p1089
tp1090
Rp1091
ag7
(g11
S'\x00\x00\x00\x1b\xbf^\xd6A'
p1092
tp1093
Rp1094
aF0.344461
aF0.0
aF0.34446
aa(lp1095
I3
ag955
aI21
ag7
(g11
S'\x00\x00@\x1d\xbf^\xd6A'
p1096
tp1097
Rp1098
ag7
(g11
S'\x00\x00\x80$\xbf^\xd6A'
p1099
tp1100
Rp1101
aF0.393669
aF0.0
aF0.39367
aa(lp1102
I3
ag955
aI22
ag7
(g11
S"\x00\x00@'\xbf^\xd6A"
p1103
tp1104
Rp1105
ag7
(g11
S'\x00\x00\x00.\xbf^\xd6A'
p1106
tp1107
Rp1108
aF0.442878
aF0.0
aF0.442878
aa(lp1109
I3
ag955
aI23
ag7
(g11
S'\x00\x00\x800\xbf^\xd6A'
p1110
tp1111
Rp1112
ag7
(g11
S'\x00\x00\x008\xbf^\xd6A'
p1113
tp1114
Rp1115
aF0.492087
aF0.0
aF0.492086
aa(lp1116
I3
ag955
aI24
ag7
(g11
S'\x00\x00\x80:\xbf^\xd6A'
p1117
tp1118
Rp1119
ag7
(g11
S'\x00\x00\x80A\xbf^\xd6A'
p1120
tp1121
Rp1122
aF0.541295
aF0.0
aF0.541296
aa(lp1123
I3
ag955
aI25
ag7
(g11
S'\x00\x00\x00D\xbf^\xd6A'
p1124
tp1125
Rp1126
ag7
(g11
S'\x00\x00\x00I\xbf^\xd6A'
p1127
tp1128
Rp1129
aF0.590504
aF0.0
aF0.590504
aasS'Scan_8'
p1130
(lp1131
(lp1132
I8
aVBIY2
p1133
aI1
ag7
(g11
S'\x00\x00\x80\xb9\xc6^\xd6A'
p1134
tp1135
Rp1136
ag7
(g11
S'\x00\x00\x80\xc4\xc6^\xd6A'
p1137
tp1138
Rp1139
aF0.442878
aF0.0
aF0.442878
aa(lp1140
I8
ag1133
aI2
ag7
(g11
S'\x00\x00\xc0\xc7\xc6^\xd6A'
p1141
tp1142
Rp1143
ag7
(g11
S'\x00\x00\xc0\xd2\xc6^\xd6A'
p1144
tp1145
Rp1146
aF0.393669
aF0.0
aF0.393669
aa(lp1147
I8
ag1133
aI3
ag7
(g11
S'\x00\x00\x00\xd6\xc6^\xd6A'
p1148
tp1149
Rp1150
ag7
(g11
S'\x00\x00@\xe1\xc6^\xd6A'
p1151
tp1152
Rp1153
aF0.344461
aF0.0
aF0.344461
aa(lp1154
I8
ag1133
aI4
ag7
(g11
S'\x00\x00@\xe4\xc6^\xd6A'
p1155
tp1156
Rp1157
ag7
(g11
S'\x00\x00\x80\xef\xc6^\xd6A'
p1158
tp1159
Rp1160
aF0.295252
aF0.0
aF0.295252
aa(lp1161
I8
ag1133
aI5
ag7
(g11
S'\x00\x00\xc0\xf2\xc6^\xd6A'
p1162
tp1163
Rp1164
ag7
(g11
S'\x00\x00\xc0\xfd\xc6^\xd6A'
p1165
tp1166
Rp1167
aF0.246043
aF0.0
aF0.246043
aa(lp1168
I8
ag1133
aI6
ag7
(g11
S'\x00\x00\x00\x01\xc7^\xd6A'
p1169
tp1170
Rp1171
ag7
(g11
S'\x00\x00@\x0c\xc7^\xd6A'
p1172
tp1173
Rp1174
aF0.196835
aF0.0
aF0.196835
aa(lp1175
I8
ag1133
aI7
ag7
(g11
S'\x00\x00@\x0f\xc7^\xd6A'
p1176
tp1177
Rp1178
ag7
(g11
S'\x00\x00\x80\x1a\xc7^\xd6A'
p1179
tp1180
Rp1181
aF0.147626
aF0.0
aF0.147626
aa(lp1182
I8
ag1133
aI8
ag7
(g11
S'\x00\x00\x80\x1d\xc7^\xd6A'
p1183
tp1184
Rp1185
ag7
(g11
S'\x00\x00\xc0(\xc7^\xd6A'
p1186
tp1187
Rp1188
aF0.098417
aF0.0
aF0.098417
aa(lp1189
I8
ag1133
aI9
ag7
(g11
S'\x00\x00\x00,\xc7^\xd6A'
p1190
tp1191
Rp1192
ag7
(g11
S'\x00\x00\x007\xc7^\xd6A'
p1193
tp1194
Rp1195
aF0.049209
aF0.0
aF0.049209
aa(lp1196
I8
ag1133
aI10
ag7
(g11
S'\x00\x00@:\xc7^\xd6A'
p1197
tp1198
Rp1199
ag7
(g11
S'\x00\x00\x00E\xc7^\xd6A'
p1200
tp1201
Rp1202
aF-0.0
aF0.0
aF-0.0
aa(lp1203
I8
ag1133
aI11
ag7
(g11
S'\x00\x00@H\xc7^\xd6A'
p1204
tp1205
Rp1206
ag7
(g11
S'\x00\x00\xc0S\xc7^\xd6A'
p1207
tp1208
Rp1209
aF-0.049209
aF0.0
aF-0.049209
aa(lp1210
I8
ag1133
aI12
ag7
(g11
S'\x00\x00\x80V\xc7^\xd6A'
p1211
tp1212
Rp1213
ag7
(g11
S'\x00\x00\xc0a\xc7^\xd6A'
p1214
tp1215
Rp1216
aF-0.098417
aF0.0
aF-0.098417
aa(lp1217
I8
ag1133
aI13
ag7
(g11
S'\x00\x00@e\xc7^\xd6A'
p1218
tp1219
Rp1220
ag7
(g11
S'\x00\x00\x00p\xc7^\xd6A'
p1221
tp1222
Rp1223
aF-0.147626
aF0.0
aF-0.147626
aa(lp1224
I8
ag1133
aI14
ag7
(g11
S'\x00\x00@s\xc7^\xd6A'
p1225
tp1226
Rp1227
ag7
(g11
S'\x00\x00\xc0~\xc7^\xd6A'
p1228
tp1229
Rp1230
aF-0.196835
aF0.0
aF-0.196835
aa(lp1231
I8
ag1133
aI15
ag7
(g11
S'\x00\x00\x80\x81\xc7^\xd6A'
p1232
tp1233
Rp1234
ag7
(g11
S'\x00\x00\xc0\x8c\xc7^\xd6A'
p1235
tp1236
Rp1237
aF-0.246043
aF0.0
aF-0.246043
aa(lp1238
I8
ag1133
aI16
ag7
(g11
S'\x00\x00@\x90\xc7^\xd6A'
p1239
tp1240
Rp1241
ag7
(g11
S'\x00\x00\x00\x9b\xc7^\xd6A'
p1242
tp1243
Rp1244
aF-0.295252
aF0.0
aF-0.295252
aa(lp1245
I8
ag1133
aI17
ag7
(g11
S'\x00\x00@\x9e\xc7^\xd6A'
p1246
tp1247
Rp1248
ag7
(g11
S'\x00\x00@\xa9\xc7^\xd6A'
p1249
tp1250
Rp1251
aF-0.344461
aF0.0
aF-0.344461
aa(lp1252
I8
ag1133
aI18
ag7
(g11
S'\x00\x00\x80\xac\xc7^\xd6A'
p1253
tp1254
Rp1255
ag7
(g11
S'\x00\x00\xc0\xb7\xc7^\xd6A'
p1256
tp1257
Rp1258
aF-0.393669
aF0.0
aF-0.393669
aa(lp1259
I8
ag1133
aI19
ag7
(g11
S'\x00\x00@\xbb\xc7^\xd6A'
p1260
tp1261
Rp1262
ag7
(g11
S'\x00\x00\xc0\xbf\xc7^\xd6A'
p1263
tp1264
Rp1265
aF-0.442878
aF0.0
aF-0.442878
aasS'Scan_9'
p1266
(lp1267
(lp1268
I9
aVX3
p1269
aI1
ag7
(g11
S'\x00\x00@.\xcc^\xd6A'
p1270
tp1271
Rp1272
ag7
(g11
S'\x00\x00\x805\xcc^\xd6A'
p1273
tp1274
Rp1275
aF-0.590504
aF-0.590504
aF0.0
aa(lp1276
I9
ag1269
aI2
ag7
(g11
S'\x00\x00\x008\xcc^\xd6A'
p1277
tp1278
Rp1279
ag7
(g11
S'\x00\x00\x00?\xcc^\xd6A'
p1280
tp1281
Rp1282
aF-0.541295
aF-0.541296
aF0.0
aa(lp1283
I9
ag1269
aI3
ag7
(g11
S'\x00\x00\x80A\xcc^\xd6A'
p1284
tp1285
Rp1286
ag7
(g11
S'\x00\x00\xc0H\xcc^\xd6A'
p1287
tp1288
Rp1289
aF-0.492087
aF-0.492086
aF0.0
aa(lp1290
I9
ag1269
aI4
ag7
(g11
S'\x00\x00\x00K\xcc^\xd6A'
p1291
tp1292
Rp1293
ag7
(g11
S'\x00\x00@R\xcc^\xd6A'
p1294
tp1295
Rp1296
aF-0.442878
aF-0.442878
aF0.0
aa(lp1297
I9
ag1269
aI5
ag7
(g11
S'\x00\x00\xc0T\xcc^\xd6A'
p1298
tp1299
Rp1300
ag7
(g11
S'\x00\x00\x00\\\xcc^\xd6A'
p1301
tp1302
Rp1303
aF-0.393669
aF-0.39367
aF0.0
aa(lp1304
I9
ag1269
aI6
ag7
(g11
S'\x00\x00@^\xcc^\xd6A'
p1305
tp1306
Rp1307
ag7
(g11
S'\x00\x00\x80e\xcc^\xd6A'
p1308
tp1309
Rp1310
aF-0.344461
aF-0.34446
aF0.0
aa(lp1311
I9
ag1269
aI7
ag7
(g11
S'\x00\x00\x00h\xcc^\xd6A'
p1312
tp1313
Rp1314
ag7
(g11
S'\x00\x00\x00o\xcc^\xd6A'
p1315
tp1316
Rp1317
aF-0.295252
aF-0.295252
aF0.0
aa(lp1318
I9
ag1269
aI8
ag7
(g11
S'\x00\x00\x80q\xcc^\xd6A'
p1319
tp1320
Rp1321
ag7
(g11
S'\x00\x00\x00y\xcc^\xd6A'
p1322
tp1323
Rp1324
aF-0.246043
aF-0.246044
aF0.0
aa(lp1325
I9
ag1269
aI9
ag7
(g11
S'\x00\x00\x80{\xcc^\xd6A'
p1326
tp1327
Rp1328
ag7
(g11
S'\x00\x00@\x82\xcc^\xd6A'
p1329
tp1330
Rp1331
aF-0.196835
aF-0.196835
aF0.0
aa(lp1332
I9
ag1269
aI10
ag7
(g11
S'\x00\x00\x00\x85\xcc^\xd6A'
p1333
tp1334
Rp1335
ag7
(g11
S'\x00\x00\xc0\x8b\xcc^\xd6A'
p1336
tp1337
Rp1338
aF-0.147626
aF-0.147626
aF0.0
aa(lp1339
I9
ag1269
aI11
ag7
(g11
S'\x00\x00\x80\x8e\xcc^\xd6A'
p1340
tp1341
Rp1342
ag7
(g11
S'\x00\x00\xc0\x95\xcc^\xd6A'
p1343
tp1344
Rp1345
aF-0.098417
aF-0.098417
aF0.0
aa(lp1346
I9
ag1269
aI12
ag7
(g11
S'\x00\x00@\x98\xcc^\xd6A'
p1347
tp1348
Rp1349
ag7
(g11
S'\x00\x00@\x9f\xcc^\xd6A'
p1350
tp1351
Rp1352
aF-0.049209
aF-0.049209
aF0.0
aa(lp1353
I9
ag1269
aI13
ag7
(g11
S'\x00\x00\xc0\xa1\xcc^\xd6A'
p1354
tp1355
Rp1356
ag7
(g11
S'\x00\x00\x00\xa9\xcc^\xd6A'
p1357
tp1358
Rp1359
aF0.0
aF0.0
aF0.0
aa(lp1360
I9
ag1269
aI14
ag7
(g11
S'\x00\x00\x80\xae\xcc^\xd6A'
p1361
tp1362
Rp1363
ag7
(g11
S'\x00\x00\xc0\xb5\xcc^\xd6A'
p1364
tp1365
Rp1366
aF0.049209
aF0.049209
aF0.0
aa(lp1367
I9
ag1269
aI15
ag7
(g11
S'\x00\x00@\xb8\xcc^\xd6A'
p1368
tp1369
Rp1370
ag7
(g11
S'\x00\x00@\xbf\xcc^\xd6A'
p1371
tp1372
Rp1373
aF0.098417
aF0.098417
aF0.0
aa(lp1374
I9
ag1269
aI16
ag7
(g11
S'\x00\x00\xc0\xc1\xcc^\xd6A'
p1375
tp1376
Rp1377
ag7
(g11
S'\x00\x00\x00\xc9\xcc^\xd6A'
p1378
tp1379
Rp1380
aF0.147626
aF0.147626
aF0.0
aa(lp1381
I9
ag1269
aI17
ag7
(g11
S'\x00\x00\x80\xcb\xcc^\xd6A'
p1382
tp1383
Rp1384
ag7
(g11
S'\x00\x00\x80\xd2\xcc^\xd6A'
p1385
tp1386
Rp1387
aF0.196835
aF0.196835
aF0.0
aa(lp1388
I9
ag1269
aI18
ag7
(g11
S'\x00\x00\x00\xd5\xcc^\xd6A'
p1389
tp1390
Rp1391
ag7
(g11
S'\x00\x00@\xdc\xcc^\xd6A'
p1392
tp1393
Rp1394
aF0.246043
aF0.246044
aF0.0
aa(lp1395
I9
ag1269
aI19
ag7
(g11
S'\x00\x00\x80\xde\xcc^\xd6A'
p1396
tp1397
Rp1398
ag7
(g11
S'\x00\x00\xc0\xe5\xcc^\xd6A'
p1399
tp1400
Rp1401
aF0.295252
aF0.295252
aF0.0
aa(lp1402
I9
ag1269
aI20
ag7
(g11
S'\x00\x00@\xe8\xcc^\xd6A'
p1403
tp1404
Rp1405
ag7
(g11
S'\x00\x00\xc0\xef\xcc^\xd6A'
p1406
tp1407
Rp1408
aF0.344461
aF0.34446
aF0.0
aa(lp1409
I9
ag1269
aI21
ag7
(g11
S'\x00\x00\xc0\xf1\xcc^\xd6A'
p1410
tp1411
Rp1412
ag7
(g11
S'\x00\x00\x00\xf9\xcc^\xd6A'
p1413
tp1414
Rp1415
aF0.393669
aF0.39367
aF0.0
aa(lp1416
I9
ag1269
aI22
ag7
(g11
S'\x00\x00\xc0\xfb\xcc^\xd6A'
p1417
tp1418
Rp1419
ag7
(g11
S'\x00\x00\x80\x02\xcd^\xd6A'
p1420
tp1421
Rp1422
aF0.442878
aF0.442878
aF0.0
aa(lp1423
I9
ag1269
aI23
ag7
(g11
S'\x00\x00@\x05\xcd^\xd6A'
p1424
tp1425
Rp1426
ag7
(g11
S'\x00\x00\x80\x0c\xcd^\xd6A'
p1427
tp1428
Rp1429
aF0.492087
aF0.492086
aF0.0
aa(lp1430
I9
ag1269
aI24
ag7
(g11
S'\x00\x00\x80\x0e\xcd^\xd6A'
p1431
tp1432
Rp1433
ag7
(g11
S'\x00\x00\xc0\x15\xcd^\xd6A'
p1434
tp1435
Rp1436
aF0.541295
aF0.541296
aF0.0
aa(lp1437
I9
ag1269
aI25
ag7
(g11
S'\x00\x00\x80\x18\xcd^\xd6A'
p1438
tp1439
Rp1440
ag7
(g11
S'\x00\x00\x80\x1d\xcd^\xd6A'
p1441
tp1442
Rp1443
aF0.590504
aF0.590504
aF0.0
aasS'Run'
p1444
(lp1445
I300019
aI300019
aI300019
aI300019
aI300019
aI300019
aI300019
aI300019
aI300029
aI300029
aI300050
aI300050
asS'EnergyB2'
p1446
S'6499'
p1447
sS'EnergyB1'
p1448
S'6499'
p1449
sS'CollidingBunches'
p1450
(lp1451
I1
aI41
aI81
aI121
aI161
aI201
aI241
aI281
aI872
aI912
aI952
aI992
aI1032
aI1072
aI1112
aI1152
aI1783
aI1823
aI1863
aI1903
aI1943
aI1983
aI2023
aI2063
aI2654
aI2694
aI2734
aI2774
aI2814
aI2854
aI2894
aI2934
asS'Offset'
p1452
(lp1453
F0.0
aF0.0
aF0.0
aF0.0
aF0.0
aF0.0
aF0.0
aF0.0
aF0.0
aF0.0
aF0.0
aF0.0
asS'ScanNames'
p1454
(lp1455
g599
ag777
ag955
ag6
ag191
ag327
ag463
ag1133
ag1269
aVY3
p1456
aVX5
p1457
aVY5
p1458
asS'ScanTimeWindows'
p1459
(lp1460
(lp1461
I1501228893
aI1501229838
aa(lp1462
I1501230120
aI1501231078
aa(lp1463
I1501231473
aI1501232420
aa(lp1464
I1501232783
aI1501233728
aa(lp1465
I1501235405
aI1501236452
aa(lp1466
I1501236798
aI1501237860
aa(lp1467
I1501238672
aI1501239728
aa(lp1468
I1501240037
aI1501241088
aa(lp1469
I1501245624
aI1501246582
aa(lp1470
I1501246909
aI1501247855
aa(lp1471
I1501269855
aI1501270800
aa(lp1472
I1501270999
aI1501271946
aasS'ParticleTypeB2'
p1473
S'proton'
p1474
sS'BetaStar'
p1475
S'19.17'
p1476
sS'ParticleTypeB1'
p1477
S'proton'
p1478
sS'Scan_12'
p1479
(lp1480
(lp1481
I12
ag1458
aI1
ag7
(g11
S'\x00\x00\x00\xf6\xe4^\xd6A'
p1482
tp1483
Rp1484
ag7
(g11
S'\x00\x00\xc0\xfc\xe4^\xd6A'
p1485
tp1486
Rp1487
aF-0.590504
aF0.0
aF-0.590504
aa(lp1488
I12
ag1458
aI2
ag7
(g11
S'\x00\x00\x80\xff\xe4^\xd6A'
p1489
tp1490
Rp1491
ag7
(g11
S'\x00\x00\xc0\x06\xe5^\xd6A'
p1492
tp1493
Rp1494
aF-0.541295
aF0.0
aF-0.541296
aa(lp1495
I12
ag1458
aI3
ag7
(g11
S'\x00\x00@\t\xe5^\xd6A'
p1496
tp1497
Rp1498
ag7
(g11
S'\x00\x00@\x10\xe5^\xd6A'
p1499
tp1500
Rp1501
aF-0.492087
aF0.0
aF-0.492086
aa(lp1502
I12
ag1458
aI4
ag7
(g11
S'\x00\x00\xc0\x12\xe5^\xd6A'
p1503
tp1504
Rp1505
ag7
(g11
S'\x00\x00\x00\x1a\xe5^\xd6A'
p1506
tp1507
Rp1508
aF-0.442878
aF0.0
aF-0.442878
aa(lp1509
I12
ag1458
aI5
ag7
(g11
S'\x00\x00\x80\x1c\xe5^\xd6A'
p1510
tp1511
Rp1512
ag7
(g11
S'\x00\x00\x80#\xe5^\xd6A'
p1513
tp1514
Rp1515
aF-0.393669
aF0.0
aF-0.39367
aa(lp1516
I12
ag1458
aI6
ag7
(g11
S'\x00\x00\x00&\xe5^\xd6A'
p1517
tp1518
Rp1519
ag7
(g11
S'\x00\x00@-\xe5^\xd6A'
p1520
tp1521
Rp1522
aF-0.344461
aF0.0
aF-0.34446
aa(lp1523
I12
ag1458
aI7
ag7
(g11
S'\x00\x00\xc0/\xe5^\xd6A'
p1524
tp1525
Rp1526
ag7
(g11
S'\x00\x00\xc06\xe5^\xd6A'
p1527
tp1528
Rp1529
aF-0.295252
aF0.0
aF-0.295252
aa(lp1530
I12
ag1458
aI8
ag7
(g11
S'\x00\x00@9\xe5^\xd6A'
p1531
tp1532
Rp1533
ag7
(g11
S'\x00\x00\x80@\xe5^\xd6A'
p1534
tp1535
Rp1536
aF-0.246043
aF0.0
aF-0.246044
aa(lp1537
I12
ag1458
aI9
ag7
(g11
S'\x00\x00\x00C\xe5^\xd6A'
p1538
tp1539
Rp1540
ag7
(g11
S'\x00\x00\x00J\xe5^\xd6A'
p1541
tp1542
Rp1543
aF-0.196835
aF0.0
aF-0.196835
aa(lp1544
I12
ag1458
aI10
ag7
(g11
S'\x00\x00\x80L\xe5^\xd6A'
p1545
tp1546
Rp1547
ag7
(g11
S'\x00\x00\x00T\xe5^\xd6A'
p1548
tp1549
Rp1550
aF-0.147626
aF0.0
aF-0.147626
aa(lp1551
I12
ag1458
aI11
ag7
(g11
S'\x00\x00\x80V\xe5^\xd6A'
p1552
tp1553
Rp1554
ag7
(g11
S'\x00\x00@]\xe5^\xd6A'
p1555
tp1556
Rp1557
aF-0.098417
aF0.0
aF-0.098417
aa(lp1558
I12
ag1458
aI12
ag7
(g11
S'\x00\x00\x00`\xe5^\xd6A'
p1559
tp1560
Rp1561
ag7
(g11
S'\x00\x00@g\xe5^\xd6A'
p1562
tp1563
Rp1564
aF-0.049209
aF0.0
aF-0.049209
aa(lp1565
I12
ag1458
aI13
ag7
(g11
S'\x00\x00@i\xe5^\xd6A'
p1566
tp1567
Rp1568
ag7
(g11
S'\x00\x00\xc0p\xe5^\xd6A'
p1569
tp1570
Rp1571
aF0.0
aF0.0
aF0.0
aa(lp1572
I12
ag1458
aI14
ag7
(g11
S'\x00\x00@s\xe5^\xd6A'
p1573
tp1574
Rp1575
ag7
(g11
S'\x00\x00\x80z\xe5^\xd6A'
p1576
tp1577
Rp1578
aF0.049209
aF0.0
aF0.049209
aa(lp1579
I12
ag1458
aI15
ag7
(g11
S'\x00\x00\x00}\xe5^\xd6A'
p1580
tp1581
Rp1582
ag7
(g11
S'\x00\x00\x00\x84\xe5^\xd6A'
p1583
tp1584
Rp1585
aF0.098417
aF0.0
aF0.098417
aa(lp1586
I12
ag1458
aI16
ag7
(g11
S'\x00\x00\x80\x86\xe5^\xd6A'
p1587
tp1588
Rp1589
ag7
(g11
S'\x00\x00\xc0\x8d\xe5^\xd6A'
p1590
tp1591
Rp1592
aF0.147626
aF0.0
aF0.147626
aa(lp1593
I12
ag1458
aI17
ag7
(g11
S'\x00\x00@\x90\xe5^\xd6A'
p1594
tp1595
Rp1596
ag7
(g11
S'\x00\x00@\x97\xe5^\xd6A'
p1597
tp1598
Rp1599
aF0.196835
aF0.0
aF0.196835
aa(lp1600
I12
ag1458
aI18
ag7
(g11
S'\x00\x00\xc0\x99\xe5^\xd6A'
p1601
tp1602
Rp1603
ag7
(g11
S'\x00\x00\x00\xa1\xe5^\xd6A'
p1604
tp1605
Rp1606
aF0.246043
aF0.0
aF0.246044
aa(lp1607
I12
ag1458
aI19
ag7
(g11
S'\x00\x00\xc0\xa3\xe5^\xd6A'
p1608
tp1609
Rp1610
ag7
(g11
S'\x00\x00\x80\xaa\xe5^\xd6A'
p1611
tp1612
Rp1613
aF0.295252
aF0.0
aF0.295252
aa(lp1614
I12
ag1458
aI20
ag7
(g11
S'\x00\x00\x00\xad\xe5^\xd6A'
p1615
tp1616
Rp1617
ag7
(g11
S'\x00\x00\x80\xb4\xe5^\xd6A'
p1618
tp1619
Rp1620
aF0.344461
aF0.0
aF0.34446
aa(lp1621
I12
ag1458
aI21
ag7
(g11
S'\x00\x00\x00\xb7\xe5^\xd6A'
p1622
tp1623
Rp1624
ag7
(g11
S'\x00\x00\x00\xbe\xe5^\xd6A'
p1625
tp1626
Rp1627
aF0.393669
aF0.0
aF0.39367
aa(lp1628
I12
ag1458
aI22
ag7
(g11
S'\x00\x00\x80\xc0\xe5^\xd6A'
p1629
tp1630
Rp1631
ag7
(g11
S'\x00\x00\xc0\xc7\xe5^\xd6A'
p1632
tp1633
Rp1634
aF0.442878
aF0.0
aF0.442878
aa(lp1635
I12
ag1458
aI23
ag7
(g11
S'\x00\x00@\xca\xe5^\xd6A'
p1636
tp1637
Rp1638
ag7
(g11
S'\x00\x00@\xd1\xe5^\xd6A'
p1639
tp1640
Rp1641
aF0.492087
aF0.0
aF0.492086
aa(lp1642
I12
ag1458
aI24
ag7
(g11
S'\x00\x00\xc0\xd3\xe5^\xd6A'
p1643
tp1644
Rp1645
ag7
(g11
S'\x00\x00\x00\xdb\xe5^\xd6A'
p1646
tp1647
Rp1648
aF0.541295
aF0.0
aF0.541296
aa(lp1649
I12
ag1458
aI25
ag7
(g11
S'\x00\x00\x80\xdd\xe5^\xd6A'
p1650
tp1651
Rp1652
ag7
(g11
S'\x00\x00@\xe2\xe5^\xd6A'
p1653
tp1654
Rp1655
aF0.590504
aF0.0
aF0.590504
aasS'Scan_10'
p1656
(lp1657
(lp1658
I10
ag1456
aI1
ag7
(g11
S'\x00\x00\x80o\xcd^\xd6A'
p1659
tp1660
Rp1661
ag7
(g11
S'\x00\x00\xc0v\xcd^\xd6A'
p1662
tp1663
Rp1664
aF-0.590504
aF0.0
aF-0.590504
aa(lp1665
I10
ag1456
aI2
ag7
(g11
S'\x00\x00@y\xcd^\xd6A'
p1666
tp1667
Rp1668
ag7
(g11
S'\x00\x00@\x80\xcd^\xd6A'
p1669
tp1670
Rp1671
aF-0.541295
aF0.0
aF-0.541296
aa(lp1672
I10
ag1456
aI3
ag7
(g11
S'\x00\x00\xc0\x82\xcd^\xd6A'
p1673
tp1674
Rp1675
ag7
(g11
S'\x00\x00\x00\x8a\xcd^\xd6A'
p1676
tp1677
Rp1678
aF-0.492087
aF0.0
aF-0.492086
aa(lp1679
I10
ag1456
aI4
ag7
(g11
S'\x00\x00\x80\x8c\xcd^\xd6A'
p1680
tp1681
Rp1682
ag7
(g11
S'\x00\x00\x80\x93\xcd^\xd6A'
p1683
tp1684
Rp1685
aF-0.442878
aF0.0
aF-0.442878
aa(lp1686
I10
ag1456
aI5
ag7
(g11
S'\x00\x00\x00\x96\xcd^\xd6A'
p1687
tp1688
Rp1689
ag7
(g11
S'\x00\x00@\x9d\xcd^\xd6A'
p1690
tp1691
Rp1692
aF-0.393669
aF0.0
aF-0.39367
aa(lp1693
I10
ag1456
aI6
ag7
(g11
S'\x00\x00\x80\x9f\xcd^\xd6A'
p1694
tp1695
Rp1696
ag7
(g11
S'\x00\x00\xc0\xa6\xcd^\xd6A'
p1697
tp1698
Rp1699
aF-0.344461
aF0.0
aF-0.34446
aa(lp1700
I10
ag1456
aI7
ag7
(g11
S'\x00\x00\x80\xa9\xcd^\xd6A'
p1701
tp1702
Rp1703
ag7
(g11
S'\x00\x00\xc0\xb0\xcd^\xd6A'
p1704
tp1705
Rp1706
aF-0.295252
aF0.0
aF-0.295252
aa(lp1707
I10
ag1456
aI8
ag7
(g11
S'\x00\x00\xc0\xb2\xcd^\xd6A'
p1708
tp1709
Rp1710
ag7
(g11
S'\x00\x00@\xba\xcd^\xd6A'
p1711
tp1712
Rp1713
aF-0.246043
aF0.0
aF-0.246044
aa(lp1714
I10
ag1456
aI9
ag7
(g11
S'\x00\x00\xc0\xbc\xcd^\xd6A'
p1715
tp1716
Rp1717
ag7
(g11
S'\x00\x00\x80\xc3\xcd^\xd6A'
p1718
tp1719
Rp1720
aF-0.196835
aF0.0
aF-0.196835
aa(lp1721
I10
ag1456
aI10
ag7
(g11
S'\x00\x00@\xc6\xcd^\xd6A'
p1722
tp1723
Rp1724
ag7
(g11
S'\x00\x00\x80\xcd\xcd^\xd6A'
p1725
tp1726
Rp1727
aF-0.147626
aF0.0
aF-0.147626
aa(lp1728
I10
ag1456
aI11
ag7
(g11
S'\x00\x00\x00\xd0\xcd^\xd6A'
p1729
tp1730
Rp1731
ag7
(g11
S'\x00\x00\x00\xd7\xcd^\xd6A'
p1732
tp1733
Rp1734
aF-0.098417
aF0.0
aF-0.098417
aa(lp1735
I10
ag1456
aI12
ag7
(g11
S'\x00\x00\x80\xd9\xcd^\xd6A'
p1736
tp1737
Rp1738
ag7
(g11
S'\x00\x00\xc0\xe0\xcd^\xd6A'
p1739
tp1740
Rp1741
aF-0.049209
aF0.0
aF-0.049209
aa(lp1742
I10
ag1456
aI13
ag7
(g11
S'\x00\x00@\xe3\xcd^\xd6A'
p1743
tp1744
Rp1745
ag7
(g11
S'\x00\x00@\xea\xcd^\xd6A'
p1746
tp1747
Rp1748
aF0.0
aF0.0
aF0.0
aa(lp1749
I10
ag1456
aI14
ag7
(g11
S'\x00\x00\xc0\xec\xcd^\xd6A'
p1750
tp1751
Rp1752
ag7
(g11
S'\x00\x00\x00\xf4\xcd^\xd6A'
p1753
tp1754
Rp1755
aF0.049209
aF0.0
aF0.049209
aa(lp1756
I10
ag1456
aI15
ag7
(g11
S'\x00\x00@\xf6\xcd^\xd6A'
p1757
tp1758
Rp1759
ag7
(g11
S'\x00\x00\x80\xfd\xcd^\xd6A'
p1760
tp1761
Rp1762
aF0.098417
aF0.0
aF0.098417
aa(lp1763
I10
ag1456
aI16
ag7
(g11
S'\x00\x00\x00\x00\xce^\xd6A'
p1764
tp1765
Rp1766
ag7
(g11
S'\x00\x00@\x07\xce^\xd6A'
p1767
tp1768
Rp1769
aF0.147626
aF0.0
aF0.147626
aa(lp1770
I10
ag1456
aI17
ag7
(g11
S'\x00\x00\x80\t\xce^\xd6A'
p1771
tp1772
Rp1773
ag7
(g11
S'\x00\x00\xc0\x10\xce^\xd6A'
p1774
tp1775
Rp1776
aF0.196835
aF0.0
aF0.196835
aa(lp1777
I10
ag1456
aI18
ag7
(g11
S'\x00\x00@\x13\xce^\xd6A'
p1778
tp1779
Rp1780
ag7
(g11
S'\x00\x00\xc0\x1a\xce^\xd6A'
p1781
tp1782
Rp1783
aF0.246043
aF0.0
aF0.246044
aa(lp1784
I10
ag1456
aI19
ag7
(g11
S'\x00\x00\xc0\x1c\xce^\xd6A'
p1785
tp1786
Rp1787
ag7
(g11
S'\x00\x00@$\xce^\xd6A'
p1788
tp1789
Rp1790
aF0.295252
aF0.0
aF0.295252
aa(lp1791
I10
ag1456
aI20
ag7
(g11
S'\x00\x00\xc0&\xce^\xd6A'
p1792
tp1793
Rp1794
ag7
(g11
S'\x00\x00\x00.\xce^\xd6A'
p1795
tp1796
Rp1797
aF0.344461
aF0.0
aF0.34446
aa(lp1798
I10
ag1456
aI21
ag7
(g11
S'\x00\x00@0\xce^\xd6A'
p1799
tp1800
Rp1801
ag7
(g11
S'\x00\x00\x807\xce^\xd6A'
p1802
tp1803
Rp1804
aF0.393669
aF0.0
aF0.39367
aa(lp1805
I10
ag1456
aI22
ag7
(g11
S'\x00\x00\x00:\xce^\xd6A'
p1806
tp1807
Rp1808
ag7
(g11
S'\x00\x00\x00A\xce^\xd6A'
p1809
tp1810
Rp1811
aF0.442878
aF0.0
aF0.442878
aa(lp1812
I10
ag1456
aI23
ag7
(g11
S'\x00\x00\x80C\xce^\xd6A'
p1813
tp1814
Rp1815
ag7
(g11
S'\x00\x00\xc0J\xce^\xd6A'
p1816
tp1817
Rp1818
aF0.492087
aF0.0
aF0.492086
aa(lp1819
I10
ag1456
aI24
ag7
(g11
S'\x00\x00@M\xce^\xd6A'
p1820
tp1821
Rp1822
ag7
(g11
S'\x00\x00@T\xce^\xd6A'
p1823
tp1824
Rp1825
aF0.541295
aF0.0
aF0.541296
aa(lp1826
I10
ag1456
aI25
ag7
(g11
S'\x00\x00\xc0V\xce^\xd6A'
p1827
tp1828
Rp1829
ag7
(g11
S'\x00\x00\xc0[\xce^\xd6A'
p1830
tp1831
Rp1832
aF0.590504
aF0.0
aF0.590504
aasS'Scan_11'
p1833
(lp1834
(lp1835
I11
ag1457
aI1
ag7
(g11
S'\x00\x00\x00\xd8\xe3^\xd6A'
p1836
tp1837
Rp1838
ag7
(g11
S'\x00\x00@\xdf\xe3^\xd6A'
p1839
tp1840
Rp1841
aF-0.590504
aF-0.590504
aF0.0
aa(lp1842
I11
ag1457
aI2
ag7
(g11
S'\x00\x00\xc0\xe1\xe3^\xd6A'
p1843
tp1844
Rp1845
ag7
(g11
S'\x00\x00\xc0\xe8\xe3^\xd6A'
p1846
tp1847
Rp1848
aF-0.541295
aF-0.541296
aF0.0
aa(lp1849
I11
ag1457
aI3
ag7
(g11
S'\x00\x00@\xeb\xe3^\xd6A'
p1850
tp1851
Rp1852
ag7
(g11
S'\x00\x00\x80\xf2\xe3^\xd6A'
p1853
tp1854
Rp1855
aF-0.492087
aF-0.492086
aF0.0
aa(lp1856
I11
ag1457
aI4
ag7
(g11
S'\x00\x00\xc0\xf4\xe3^\xd6A'
p1857
tp1858
Rp1859
ag7
(g11
S'\x00\x00\x00\xfc\xe3^\xd6A'
p1860
tp1861
Rp1862
aF-0.442878
aF-0.442878
aF0.0
aa(lp1863
I11
ag1457
aI5
ag7
(g11
S'\x00\x00\x80\xfe\xe3^\xd6A'
p1864
tp1865
Rp1866
ag7
(g11
S'\x00\x00\x00\x06\xe4^\xd6A'
p1867
tp1868
Rp1869
aF-0.393669
aF-0.39367
aF0.0
aa(lp1870
I11
ag1457
aI6
ag7
(g11
S'\x00\x00\x00\x08\xe4^\xd6A'
p1871
tp1872
Rp1873
ag7
(g11
S'\x00\x00@\x0f\xe4^\xd6A'
p1874
tp1875
Rp1876
aF-0.344461
aF-0.34446
aF0.0
aa(lp1877
I11
ag1457
aI7
ag7
(g11
S'\x00\x00\x80\x11\xe4^\xd6A'
p1878
tp1879
Rp1880
ag7
(g11
S'\x00\x00\xc0\x18\xe4^\xd6A'
p1881
tp1882
Rp1883
aF-0.295252
aF-0.295252
aF0.0
aa(lp1884
I11
ag1457
aI8
ag7
(g11
S'\x00\x00@\x1b\xe4^\xd6A'
p1885
tp1886
Rp1887
ag7
(g11
S'\x00\x00\xc0"\xe4^\xd6A'
p1888
tp1889
Rp1890
aF-0.246043
aF-0.246044
aF0.0
aa(lp1891
I11
ag1457
aI9
ag7
(g11
S'\x00\x00\xc0$\xe4^\xd6A'
p1892
tp1893
Rp1894
ag7
(g11
S'\x00\x00@,\xe4^\xd6A'
p1895
tp1896
Rp1897
aF-0.196835
aF-0.196835
aF0.0
aa(lp1898
I11
ag1457
aI10
ag7
(g11
S'\x00\x00\xc0.\xe4^\xd6A'
p1899
tp1900
Rp1901
ag7
(g11
S'\x00\x00\x006\xe4^\xd6A'
p1902
tp1903
Rp1904
aF-0.147626
aF-0.147626
aF0.0
aa(lp1905
I11
ag1457
aI11
ag7
(g11
S'\x00\x00@8\xe4^\xd6A'
p1906
tp1907
Rp1908
ag7
(g11
S'\x00\x00\x80?\xe4^\xd6A'
p1909
tp1910
Rp1911
aF-0.098417
aF-0.098417
aF0.0
aa(lp1912
I11
ag1457
aI12
ag7
(g11
S'\x00\x00\x00B\xe4^\xd6A'
p1913
tp1914
Rp1915
ag7
(g11
S'\x00\x00\x00I\xe4^\xd6A'
p1916
tp1917
Rp1918
aF-0.049209
aF-0.049209
aF0.0
aa(lp1919
I11
ag1457
aI13
ag7
(g11
S'\x00\x00\x80K\xe4^\xd6A'
p1920
tp1921
Rp1922
ag7
(g11
S'\x00\x00\xc0R\xe4^\xd6A'
p1923
tp1924
Rp1925
aF0.0
aF0.0
aF0.0
aa(lp1926
I11
ag1457
aI14
ag7
(g11
S'\x00\x00@U\xe4^\xd6A'
p1927
tp1928
Rp1929
ag7
(g11
S'\x00\x00@\\\xe4^\xd6A'
p1930
tp1931
Rp1932
aF0.049209
aF0.049209
aF0.0
aa(lp1933
I11
ag1457
aI15
ag7
(g11
S'\x00\x00\xc0^\xe4^\xd6A'
p1934
tp1935
Rp1936
ag7
(g11
S'\x00\x00\x00f\xe4^\xd6A'
p1937
tp1938
Rp1939
aF0.098417
aF0.098417
aF0.0
aa(lp1940
I11
ag1457
aI16
ag7
(g11
S'\x00\x00@h\xe4^\xd6A'
p1941
tp1942
Rp1943
ag7
(g11
S'\x00\x00\x80o\xe4^\xd6A'
p1944
tp1945
Rp1946
aF0.147626
aF0.147626
aF0.0
aa(lp1947
I11
ag1457
aI17
ag7
(g11
S'\x00\x00\x00r\xe4^\xd6A'
p1948
tp1949
Rp1950
ag7
(g11
S'\x00\x00\x00y\xe4^\xd6A'
p1951
tp1952
Rp1953
aF0.196835
aF0.196835
aF0.0
aa(lp1954
I11
ag1457
aI18
ag7
(g11
S'\x00\x00\x80{\xe4^\xd6A'
p1955
tp1956
Rp1957
ag7
(g11
S'\x00\x00\xc0\x82\xe4^\xd6A'
p1958
tp1959
Rp1960
aF0.246043
aF0.246044
aF0.0
aa(lp1961
I11
ag1457
aI19
ag7
(g11
S'\x00\x00@\x85\xe4^\xd6A'
p1962
tp1963
Rp1964
ag7
(g11
S'\x00\x00@\x8c\xe4^\xd6A'
p1965
tp1966
Rp1967
aF0.295252
aF0.295252
aF0.0
aa(lp1968
I11
ag1457
aI20
ag7
(g11
S'\x00\x00\xc0\x8e\xe4^\xd6A'
p1969
tp1970
Rp1971
ag7
(g11
S'\x00\x00\x00\x96\xe4^\xd6A'
p1972
tp1973
Rp1974
aF0.344461
aF0.34446
aF0.0
aa(lp1975
I11
ag1457
aI21
ag7
(g11
S'\x00\x00\xc0\x98\xe4^\xd6A'
p1976
tp1977
Rp1978
ag7
(g11
S'\x00\x00\x80\x9f\xe4^\xd6A'
p1979
tp1980
Rp1981
aF0.393669
aF0.39367
aF0.0
aa(lp1982
I11
ag1457
aI22
ag7
(g11
S'\x00\x00\x00\xa2\xe4^\xd6A'
p1983
tp1984
Rp1985
ag7
(g11
S'\x00\x00\x80\xa9\xe4^\xd6A'
p1986
tp1987
Rp1988
aF0.442878
aF0.442878
aF0.0
aa(lp1989
I11
ag1457
aI23
ag7
(g11
S'\x00\x00\x80\xab\xe4^\xd6A'
p1990
tp1991
Rp1992
ag7
(g11
S'\x00\x00\x00\xb3\xe4^\xd6A'
p1993
tp1994
Rp1995
aF0.492087
aF0.492086
aF0.0
aa(lp1996
I11
ag1457
aI24
ag7
(g11
S'\x00\x00\x80\xb5\xe4^\xd6A'
p1997
tp1998
Rp1999
ag7
(g11
S'\x00\x00\xc0\xbc\xe4^\xd6A'
p2000
tp2001
Rp2002
aF0.541295
aF0.541296
aF0.0
aa(lp2003
I11
ag1457
aI25
ag7
(g11
S'\x00\x00\x00\xbf\xe4^\xd6A'
p2004
tp2005
Rp2006
ag7
(g11
S'\x00\x00\x00\xc4\xe4^\xd6A'
p2007
tp2008
Rp2009
aF0.590504
aF0.590504
aF0.0
aasS'Date'
p2010
S'Jul282017'
p2011
sS'InputDIPFile'
p2012
S'/afs/cern.ch/work/o/oturkot/Lumi/VdMFramework/Tmp/vdm_180513d0-e7f1-45f5-a86d-f23d8ae2f886_cut.csv'
p2013
sS'FilledBunchesB2'
p2014
(lp2015
I1
aI41
aI81
aI121
aI161
aI201
aI241
aI281
aI370
aI410
aI450
aI490
aI530
aI570
aI610
aI650
aI872
aI912
aI952
aI992
aI1032
aI1072
aI1112
aI1152
aI1603
aI1643
aI1683
aI1723
aI1783
aI1823
aI1863
aI1903
aI1943
aI1983
aI2023
aI2063
aI2654
aI2694
aI2734
aI2774
aI2814
aI2854
aI2894
aI2934
aI3060
aI3100
aI3140
aI3180
aI3220
aI3260
aI3300
aI3340
asS'FilledBunchesB1'
p2016
(lp2017
I1
aI41
aI81
aI121
aI161
aI201
aI241
aI281
aI712
aI752
aI792
aI832
aI872
aI912
aI952
aI992
aI1032
aI1072
aI1112
aI1152
aI1264
aI1304
aI1344
aI1384
aI1424
aI1464
aI1504
aI1544
aI1783
aI1823
aI1863
aI1903
aI1943
aI1983
aI2023
aI2063
aI2169
aI2209
aI2249
aI2289
aI2329
aI2369
aI2409
aI2449
aI2654
aI2694
aI2734
aI2774
aI2814
aI2854
aI2894
aI2934
asS'Fill'
p2018
S'6016'
p2019
s.