(lp0
(lp1
S'XscanNumber_YscanNumber'
p2
aS'Type'
p3
aS'BCID'
p4
aS'xsec'
p5
aS'xsecErr'
p6
aS'normChange'
p7
aS'normChangeErr'
p8
aa(lp9
S'1_2'
p10
aS'XY'
p11
aS'sum'
p12
aF2.0600413930748702e-05
aF0.0418214540929304
aF-999.0
aF-999.0
aa(lp13
S'1_2'
p14
ag11
aS'1783'
p15
aF8528033.924956912
aF35962.56263226296
aF-999.0
aF-999.0
aa(lp16
S'1_2'
p17
ag11
aS'872'
p18
aF8646831.826336259
aF37094.02960244931
aF-999.0
aF-999.0
aa(lp19
S'1_2'
p20
ag11
aS'41'
p21
aF8555870.990763338
aF37709.37906419892
aF-999.0
aF-999.0
aa(lp22
S'1_2'
p23
ag11
aS'281'
p24
aF8590195.781672763
aF35197.16882275123
aF-999.0
aF-999.0
aa(lp25
S'1_2'
p26
ag11
aS'2063'
p27
aF8594913.460844321
aF23167.428615458142
aF-999.0
aF-999.0
aa(lp28
S'4_3'
p29
ag11
aS'sum'
p30
aF-0.014762447880486328
aF-406684.44702269614
aF-999.0
aF-999.0
aa(lp31
S'4_3'
p32
ag11
aS'1783'
p33
aF8533275.110815436
aF35093.44354416701
aF-999.0
aF-999.0
aa(lp34
S'4_3'
p35
ag11
aS'872'
p36
aF8603873.503737021
aF35513.69079545474
aF-999.0
aF-999.0
aa(lp37
S'4_3'
p38
ag11
aS'41'
p39
aF8553056.516270272
aF37364.25073093025
aF-999.0
aF-999.0
aa(lp40
S'4_3'
p41
ag11
aS'281'
p42
aF8598477.887167173
aF34861.87253256335
aF-999.0
aF-999.0
aa(lp43
S'4_3'
p44
ag11
aS'2063'
p45
aF8584051.671165952
aF30367.538879627733
aF-999.0
aF-999.0
aa(lp46
S'5_6'
p47
ag11
aS'sum'
p48
aF2942.8537386196035
aF194161.70429673564
aF-999.0
aF-999.0
aa(lp49
S'5_6'
p50
ag11
aS'1783'
p51
aF8506649.164421186
aF23208.105127480332
aF-999.0
aF-999.0
aa(lp52
S'5_6'
p53
ag11
aS'872'
p54
aF8572583.559032783
aF29402.096083577384
aF-999.0
aF-999.0
aa(lp55
S'5_6'
p56
ag11
aS'41'
p57
aF8523275.890559774
aF88076.09955336366
aF-999.0
aF-999.0
aa(lp58
S'5_6'
p59
ag11
aS'281'
p60
aF8531880.563162068
aF33124.708235790764
aF-999.0
aF-999.0
aa(lp61
S'5_6'
p62
ag11
aS'2063'
p63
aF8560450.160440546
aF25728.02907376672
aF-999.0
aF-999.0
aa(lp64
S'7_8'
p65
ag11
aS'sum'
p66
aF-0.19171132930182902
aF-42796.90760873019
aF-999.0
aF-999.0
aa(lp67
S'7_8'
p68
ag11
aS'1783'
p69
aF8551814.831157874
aF19443.71789007586
aF-999.0
aF-999.0
aa(lp70
S'7_8'
p71
ag11
aS'872'
p72
aF8581215.286482487
aF24289.145930856015
aF-999.0
aF-999.0
aa(lp73
S'7_8'
p74
ag11
aS'41'
p75
aF8554174.4185584
aF38475.413479970244
aF-999.0
aF-999.0
aa(lp76
S'7_8'
p77
ag11
aS'281'
p78
aF8558594.322474845
aF49778.64920389414
aF-999.0
aF-999.0
aa(lp79
S'7_8'
p80
ag11
aS'2063'
p81
aF8536172.421697052
aF21665.93716063441
aF-999.0
aF-999.0
aa(lp82
S'9_10'
p83
ag11
aS'sum'
p84
aF-0.0022790607558398563
aF-2.4698443381853474
aF-999.0
aF-999.0
aa(lp85
S'9_10'
p86
ag11
aS'1783'
p87
aF8578878.529460857
aF35084.23738343388
aF-999.0
aF-999.0
aa(lp88
S'9_10'
p89
ag11
aS'872'
p90
aF8622488.069566099
aF34786.452997295084
aF-999.0
aF-999.0
aa(lp91
S'9_10'
p92
ag11
aS'41'
p93
aF8536652.049869211
aF36575.59016125557
aF-999.0
aF-999.0
aa(lp94
S'9_10'
p95
ag11
aS'281'
p96
aF8598934.84425802
aF25190.834607493885
aF-999.0
aF-999.0
aa(lp97
S'9_10'
p98
ag11
aS'2063'
p99
aF8557363.204886653
aF8.851223216565968
aF-999.0
aF-999.0
aa.