(lp0
(lp1
S'Scan'
p2
aS'Type'
p3
aS'BCID'
p4
aS'sigma'
p5
aS'sigmaErr'
p6
aS'sigmaRatio'
p7
aS'sigmaRatio_Err'
p8
aS'Amp'
p9
aS'AmpErr'
p10
aS'Frac'
p11
aS'FracErr'
p12
aS'Mean'
p13
aS'MeanErr'
p14
aS'Const'
p15
aS'ConstErr'
p16
aS'CapSigma'
p17
aS'CapSigmaErr'
p18
aS'peak'
p19
aS'peakErr'
p20
aS'area'
p21
aS'areaErr'
p22
aS'fitStatus'
p23
aS'chi2'
p24
aS'ndof'
p25
aa(lp26
S'1'
p27
aS'X'
p28
aS'41'
p29
aF0.1378618231668703
aF0.0005420415130353554
aF1.365861744340172
aF1.1794000155157438
aF70.11380648167517
aF0.3049000100104635
aF0.028390808902140963
aF0.562352434838213
aF0.00023110792772124448
aF0.00039281009331708404
aF0.30000000005482647
aF0.13755852706932314
aF0.1378618231668703
aF0.0005420415130353554
aF70.11380648167517
aF0.3049000100104635
aF24.229111993360313
aF0.1420445067513472
aI0
aF30.849407915752824
aI19
aa(lp30
g27
ag28
aS'281'
p31
aF0.13263457260632225
aF0.0003229400740591775
aF1.0000034810009069
aF0.042795302189649775
aF78.99557695440745
aF0.25474773572579323
aF0.9954609213030755
aF0.7422970762793746
aF0.00016631801032071018
aF0.00037028198523458454
aF0.33192593067277376
aF0.02735009289726828
aF0.13263457260632225
aF0.0003229400740591775
aF78.99557695440745
aF0.25474773572579323
aF26.26330951082628
aF0.10612413758886412
aI0
aF29.82816714723969
aI19
aa(lp32
g27
ag28
aS'872'
p33
aF0.13387719782237975
aF0.0003380238947468572
aF1.0000030660928712
aF0.038898051776930176
aF77.5469702537139
aF0.2552013214925708
aF0.9952602589348385
aF0.742934853890051
aF0.0013737294239133226
aF0.0003842928297324146
aF0.34419921940029785
aF0.03018585723668782
aF0.13387719782237975
aF0.0003380238947468572
aF77.5469702537139
aF0.2552013214925708
aF26.023240922812374
aF0.10794223472375034
aI0
aF36.07394947365086
aI19
aa(lp34
g27
ag28
aS'1783'
p35
aF0.13111646289999676
aF0.00032913280488718977
aF1.0000005221127701
aF0.009404779140142427
aF80.10275395713035
aF0.25684813682914154
aF0.9974040013547535
aF0.7584099602646441
aF0.0010369739849856573
aF0.0003635490199630282
aF0.42545886929243615
aF0.03411528672062708
aF0.13111646289999676
aF0.00032913280488718977
aF80.10275395713035
aF0.25684813682914154
aF26.32658979348916
aF0.10720710331998645
aI0
aF35.15326935079882
aI19
aa(lp36
g27
ag28
aS'2063'
p37
aF0.13180900976136806
aF0.0002960184221055722
aF1.0000085099469267
aF0.04352086854357595
aF79.4165636381808
aF0.23748583310803184
aF0.9958122751893403
aF0.7411402148643806
aF0.0010932863304707772
aF0.00033510873180328705
aF0.3300811471375321
aF0.023754585339975015
aF0.13180900976136806
aF0.0002960184221055722
aF79.4165636381808
aF0.23748583310803184
aF26.238930106044705
aF0.09812819457889037
aI0
aF33.18028828899842
aI19
aa(lp38
g27
ag28
aS'sum'
p39
aF-9.206504215418671e-05
aF0.1509041922966216
aF0.5935228404052305
aF0.2917925547242885
aF1.0999999999999992
aF0.9873126862511341
aF0.99
aF0.26013485170900835
aF0.0
aF0.48666402005976156
aF0.3
aF0.019200442992649096
aF-9.206504215418671e-05
aF0.1509041922966216
aF1.0999999999999992
aF0.9873126862511341
aF-0.00025385012154565713
aF0.4160868490709715
aI0
aF2.2500000000001457
aI19
aa(lp40
S'10'
p41
aS'Y'
p42
aS'41'
p43
aF0.13252316137360562
aF0.0003336079505852324
aF1.00000439341299
aF0.029281265686634472
aF73.98428826044668
aF0.24558670154983986
aF0.9900000799076609
aF0.7559343695058609
aF-0.00016726369135552238
aF0.00037274398345953005
aF0.3807107835149237
aF0.028395980603167587
aF0.13252316137360562
aF0.0003336079505852324
aF73.98428826044668
aF0.24558670154983986
aF24.576567222668633
aF0.10238666554344261
aI0
aF31.89813373973874
aI19
aa(lp44
S'10'
p45
ag42
aS'281'
p46
aF0.12254739435863442
aF0.00029928169184375425
aF1.0000461433760897
aF0.03145423134045472
aF82.69903739914201
aF0.26730700057505885
aF0.9900065296065135
aF0.7559214017295486
aF-0.00029635826271707556
aF0.0003416025122294675
aF0.39923766659609466
aF0.029376914480549216
aF0.12254739435863442
aF0.00029928169184375425
aF82.69903739914201
aF0.26730700057505885
aF25.40355346401062
aF0.10291379467087441
aI0
aF17.609635631629576
aI19
aa(lp47
S'10'
p48
ag42
aS'872'
p49
aF0.12381478238721226
aF0.0002938429241776938
aF1.0000052823024883
aF0.023317905562184382
aF82.16922103070813
aF0.27274418254047106
aF0.9900002647236511
aF0.7559339979866124
aF0.00036957945705357287
aF0.00035531556542348395
aF0.3205113082256908
aF0.025385208569934287
aF0.12381478238721226
aF0.0002938429241776938
aF82.16922103070813
aF0.27274418254047106
aF25.50184505539648
aF0.10405890133327204
aI0
aF27.87695607570747
aI19
aa(lp50
S'10'
p51
ag42
aS'1783'
p52
aF0.12163149017994689
aF1.7462808417256185e-07
aF1.0005689128033468
aF0.9717800413634315
aF83.80029906391849
aF0.00017883381398320353
aF0.9999999999879355
aF0.7705120258538782
aF-0.00055663341431983
aF2.750607892485814e-07
aF0.39727516201933877
aF2.1593042700246423e-05
aF0.12163149017994689
aF1.7462808417256185e-07
aF83.80029906391849
aF0.00017883381398320353
aF25.5494485127353
aF6.571442517213794e-05
aI0
aF27.70026517461105
aI19
aa(lp53
S'10'
p54
ag42
aS'2063'
p55
aF0.12257152793541105
aF3.3639883762697676e-08
aF1.0002041288331913
aF0.7748636102940364
aF82.63844582936414
aF3.444230672045023e-05
aF0.999999999967121
aF0.12127791549705363
aF-0.0005333270610943528
aF5.346859398943932e-08
aF0.36824478408710765
aF4.273580632929708e-06
aF0.12257152793541105
aF3.3639883762697676e-08
aF82.63844582936414
aF3.444230672045023e-05
aF25.389940021700653
aF1.267035646549753e-05
aI0
aF49.74939082700955
aI19
aa(lp56
S'10'
p57
ag42
aS'sum'
p58
aF0.00018811905223203236
aF5.296665912132323
aF0.5269802303557631
aF0.00861646649563226
aF1.1
aF0.9873125120721375
aF0.99
aF0.2601349124837729
aF0.24234495859700186
aF0.48666426339228774
aF0.3
aF0.022311344803857394
aF0.00018811905223203236
aF5.296665912132323
aF1.1
aF0.9873125120721375
aF0.0005186989888537582
aF14.604449797708199
aI0
aF2.2500000000000004
aI19
aa(lp59
S'2'
p60
ag42
aS'41'
p61
aF0.13797025559143958
aF0.0005762758791911809
aF1.3473006747882263
aF1.1655379085358255
aF70.83194951071572
aF0.32992298977316636
aF0.9583032998920131
aF0.19704882998758605
aF0.0017111292136043556
aF0.00039488934295458996
aF0.3843012190416122
aF0.04161706319012126
aF0.13797025559143958
aF0.0005762758791911809
aF70.83194951071572
aF0.32992298977316636
aF24.496531599006456
aF0.1532573135117364
aI0
aF10.839416525919406
aI19
aa(lp62
g60
ag42
aS'281'
p63
aF0.12799666868544315
aF0.00030191526360166777
aF0.9999557790229552
aF0.9936165643946913
aF79.48427499833491
aF0.2589811012702299
aF0.5199050416910501
aF0.11810736042507688
aF0.000623994940233017
aF0.000348790320836929
aF0.3658621967404488
aF0.024671445537308656
aF0.12799666868544315
aF0.00030191526360166777
aF79.48427499833491
aF0.2589811012702299
aF25.50174025783202
aF0.1025795560843081
aI0
aF23.695209605068005
aI19
aa(lp64
g60
ag42
aS'872'
p65
aF0.13030925694811687
aF0.00033167981413003957
aF1.0000000601080756
aF0.007318753211424278
aF77.69256219410121
aF0.2619399358621948
aF0.8935246836372297
aF0.842411876275929
aF0.0010007761925150207
aF0.0003762232036555038
aF0.3255418200360545
aF0.027554299631895846
aF0.13030925694811687
aF0.00033167981413003957
aF77.69256219410121
aF0.2619399358621948
aF25.377255175163246
aF0.10720399334228517
aI0
aF33.87428548963886
aI19
aa(lp66
g60
ag42
aS'1783'
p67
aF0.12689158650847684
aF0.0003110775494094328
aF1.0000134117344965
aF0.028192501129987668
aF80.43828238870718
aF0.2616010764114094
aF0.9900010044838585
aF0.7559325108793795
aF0.0005314158747801572
aF0.0003535202224123803
aF0.3764259490138045
aF0.0302590944624139
aF0.12689158650847684
aF0.0003110775494094328
aF80.43828238870718
aF0.2616010764114094
aF25.58500758066873
aF0.10419960885014708
aI0
aF36.04931627885624
aI19
aa(lp68
g60
ag42
aS'2063'
p69
aF0.12815460604099943
aF0.00020182989973933644
aF0.6877353974818411
aF0.883717349750511
aF79.94711804057502
aF0.19270127417869531
aF1.0
aF0.8360059233802284
aF0.0010373210009313374
aF0.00032343772002988444
aF0.30000000000001475
aF0.008554285708405523
aF0.12815460604099943
aF0.00020182989973933644
aF79.94711804057502
aF0.19270127417869531
aF25.681889135174192
aF0.07394476519216955
aI0
aF47.62557165576951
aI19
aa(lp70
g60
ag42
aS'sum'
p71
aF-2.1855373528275788e-06
aF43.56382442174755
aF0.5892579045931906
aF0.4331929262163788
aF0.27843058370229123
aF1.1895302495834776
aF0.7801157078717751
aF0.28313363641779854
aF-0.0001318163502143622
aF0.48666426339228774
aF0.3
aF0.02231134480398112
aF-2.1855373528275788e-06
aF43.56382442174755
aF0.27843058370229123
aF1.1895302495834776
aF-1.5253345427278954e-06
aF30.404150319305234
aI0
aF2.2500000000000004
aI19
aa(lp72
S'3'
p73
ag42
aS'41'
p74
aF0.13758609755164058
aF0.0003540851715653216
aF1.0001011454206754
aF0.45024124648395536
aF70.9503402500232
aF0.2351812514047964
aF0.017595137566988772
aF0.5464616747161737
aF0.0007495974317775615
aF0.00038962350622907344
aF0.39657229868265526
aF0.03147228239973249
aF0.13758609755164058
aF0.0003540851715653216
aF70.9503402500232
aF0.2351812514047964
aF24.46915484901491
aF0.10268481626990814
aI0
aF29.871768776676767
aI19
aa(lp75
g73
ag42
aS'281'
p76
aF0.1276738430351783
aF0.0002986274804107975
aF1.0000057320785052
aF0.012621798184156485
aF79.99000748155376
aF0.25483215805509474
aF0.9906886564430457
aF0.7122471486797678
aF0.0011962850139145495
aF0.00034461996435070964
aF0.3238958853502201
aF0.02373878530204157
aF0.1276738430351783
aF0.0002986274804107975
aF79.99000748155376
aF0.25483215805509474
aF25.599271276301547
aF0.10117440227804415
aI0
aF21.507427329038787
aI19
aa(lp77
g73
ag42
aS'872'
p78
aF0.12932290830202237
aF0.0003132082889797306
aF1.000057562540532
aF0.0562869260727028
aF77.91248421101407
aF0.25824751279099445
aF0.9960117012240806
aF0.740458826186464
aF0.0009290941691512054
aF0.00036241879069028916
aF0.3325999694550452
aF0.027882902538390153
aF0.12932290830202237
aF0.0003132082889797306
aF77.91248421101407
aF0.25824751279099445
aF25.256458255226722
aF0.10368110699717531
aI0
aF23.585843549248064
aI19
aa(lp79
g73
ag42
aS'1783'
p80
aF0.12600736378971633
aF0.00030398141116874645
aF1.0003538656799673
aF0.059744753760991365
aF80.97401959379327
aF0.2656400788401072
aF0.9964782054693098
aF0.7387856552049281
aF0.0015826461531817588
aF0.00035035840340683826
aF0.3776897801130197
aF0.03005217701311577
aF0.12600736378971633
aF0.00030398141116874645
aF80.97401959379327
aF0.2656400788401072
aF25.575937286475902
aF0.10414712378363358
aI0
aF14.745264299866395
aI19
aa(lp81
g73
ag42
aS'2063'
p82
aF0.1283389766116435
aF0.00025964671331904385
aF1.0000009660639053
aF0.02108497864901282
aF79.55275352399514
aF0.23350968271019212
aF0.9900000085535324
aF0.7559345129414782
aF0.0005856737838255713
aF0.00031739433801076427
aF0.300000000072344
aF0.009291569383596376
aF0.1283389766116435
aF0.00025964671331904385
aF79.55275352399514
aF0.23350968271019212
aF25.591970256034028
aF0.091234344260261
aI0
aF27.749478101979857
aI19
aa(lp83
g73
ag42
aS'sum'
p84
aF0.00014829343340211758
aF0.013552256607974518
aF0.519914584003579
aF0.00861646649563226
aF1.1
aF0.9873125120721375
aF0.99
aF0.2601349124837729
aF0.24238544913158794
aF0.48666426339228774
aF0.3
aF0.02231134480481591
aF0.00014829343340211758
aF0.013552256607974518
aF1.1
aF0.9873125120721375
aF0.0004088881644186429
aF0.037369318738967025
aI4
aF2.2500000000000004
aI19
aa(lp85
S'4'
p86
ag28
aS'41'
p87
aF0.1369121239078574
aF0.0003605348790946313
aF0.999999799683836
aF0.007506405668452509
aF71.25843017401202
aF0.2398564743175271
aF0.37377434377580887
aF0.8094857530465475
aF0.0012943765074256012
aF0.000393981567139822
aF0.40096103075156747
aF0.03390963219812382
aF0.1369121239078574
aF0.0003605348790946313
aF71.25843017401202
aF0.2398564743175271
aF24.455023948944923
aF0.10451323741726762
aI0
aF15.976610258421251
aI19
aa(lp88
g86
ag28
aS'281'
p89
aF0.1314887581648073
aF0.0003207231068625415
aF1.0000054729090535
aF0.028358468300471285
aF80.4277373990895
aF0.25304482146545837
aF0.9900002360443663
aF0.7559340556383551
aF0.0004939360352043607
aF0.0003539866918016855
aF0.4053605736949612
aF0.03449181733518214
aF0.1314887581648073
aF0.0003207231068625415
aF80.4277373990895
aF0.25304482146545837
aF26.508454561321866
aF0.10553013126741692
aI0
aF28.650530671333804
aI19
aa(lp90
g86
ag28
aS'872'
p91
aF0.13296531327690608
aF0.00031949795568289444
aF1.0000083006145206
aF0.04267883666553701
aF78.7992095375119
aF0.2524491650345979
aF0.9955048386985649
aF0.7421553441157858
aF0.00154439459671436
aF0.00037100333987718267
aF0.33257502660057625
aF0.03009335395985424
aF0.13296531327690608
aF0.00031949795568289444
aF78.7992095375119
aF0.2524491650345979
aF26.26335211094915
aF0.10517636193112678
aI0
aF36.0933763301886
aI19
aa(lp92
g86
ag28
aS'1783'
p93
aF0.13073377369213715
aF0.000356792939214258
aF0.5000000007999363
aF0.14144036793067866
aF81.75997408283943
aF0.29972218102894743
aF0.9928628484783144
aF0.005021917305055579
aF0.0012373401948147244
aF0.0003560325127410485
aF0.306579036272153
aF0.16088420716217547
aF0.13073377369213715
aF0.000356792939214258
aF81.75997408283943
aF0.29972218102894743
aF26.792823107306184
aF0.1224492556589347
aI0
aF24.276635133916205
aI19
aa(lp94
g86
ag28
aS'2063'
p95
aF0.13113175426609797
aF0.00026152853187686093
aF1.000000243520207
aF0.006874451668871517
aF80.19939766409937
aF0.23602317824886399
aF0.9979621613632284
aF0.7159195350495636
aF0.0006874375816539384
aF0.0003163018110216599
aF0.30000000236224283
aF0.020264603241788914
aF0.13113175426609797
aF0.00026152853187686093
aF80.19939766409937
aF0.23602317824886399
aF26.36142676127336
aF0.09371697849320508
aI0
aF27.131088480082973
aI19
aa(lp96
g86
ag28
aS'sum'
p97
aF3.5869110624641776e-05
aF828.9227528100396
aF0.5269802303557631
aF0.00861646649563226
aF1.1
aF0.9873125120721375
aF0.99
aF0.2601349124837729
aF0.0
aF0.48666426339228774
aF0.3
aF0.022311344804402854
aF3.5869110624641776e-05
aF828.9227528100396
aF1.1
aF0.9873125120721375
aF9.890157956535374e-05
aF2285.5813306464715
aI0
aF2.2500000000000004
aI19
aa(lp98
S'5'
p99
ag28
aS'41'
p100
aF0.13683045759749965
aF0.0012857403145557001
aF0.5000019591300919
aF1.4109130666032808
aF71.22434876439611
aF0.4520694655752493
aF0.9946372970471207
aF0.016156648960734543
aF-0.0013141877546735193
aF0.00033498833541910106
aF0.4097119323831508
aF0.43946918747554814
aF0.13683045759749965
aF0.0012857403145557001
aF71.22434876439611
aF0.4520694655752493
aF24.428747496278735
aF0.2770072559502778
aI0
aF18.802519269678843
aI13
aa(lp101
g99
ag28
aS'281'
p102
aF0.13206058672235352
aF0.0003175643843186984
aF0.9999996164897567
aF0.08910058598288917
aF80.55152716221679
aF0.21143882219739396
aF0.9998932873682163
aF0.8226967058163666
aF-0.0006631545631488069
aF0.00029311777357876996
aF0.324662866559295
aF0.04527396908249173
aF0.13206058672235352
aF0.0003175643843186984
aF80.55152716221679
aF0.21143882219739396
aF26.664714323384967
aF0.09492249716742443
aI0
aF23.391325249524126
aI13
aa(lp103
g99
ag28
aS'872'
p104
aF0.1335160013265793
aF2.0081075530103058e-07
aF1.001643890343623
aF1.2485120607834261
aF78.9071295903627
aF0.0001769154516679805
aF0.9999999999997361
aF0.04303261000951669
aF-0.0005586712088202514
aF3.1924078897021736e-07
aF0.3000000000000028
aF3.108984175659302e-08
aF0.1335160013265793
aF2.0081075530103058e-07
aF78.9071295903627
aF0.0001769154516679805
aF26.408242336365795
aF7.129718098260663e-05
aI0
aF60.82041048303002
aI13
aa(lp105
g99
ag28
aS'1783'
p106
aF0.13056528971620504
aF8.616943305320583e-06
aF1.0000350664867477
aF1.246516889284806
aF81.44638603284722
aF0.008012418579667724
aF0.9999595183783498
aF0.9945210752916973
aF-0.0010293203942955001
aF1.3615358985227994e-05
aF0.37826334801373485
aF0.0015718472713011078
aF0.13056528971620504
aF8.616943305320583e-06
aF81.44638603284722
aF0.008012418579667724
aF26.655663014750196
aF0.0031577214325252587
aI0
aF36.97314262798693
aI13
aa(lp107
g99
ag28
aS'2063'
p108
aF0.1310340337506168
aF6.274400921677232e-07
aF0.9994510201502598
aF0.788692741532204
aF80.70874501315717
aF0.0005820349605016872
aF4.181710533401883e-12
aF0.9885749817196046
aF-0.0006895947596471326
aF1.0041361052635376e-06
aF0.3000000000000008
aF7.384205180649417e-08
aF0.1310340337506168
aF6.274400921677232e-07
aF80.70874501315717
aF0.0005820349605016872
aF26.509078975992093
aF0.0002294757846908746
aI0
aF77.57182469401141
aI13
aa(lp109
g99
ag28
aS'sum'
p110
aF0.09263526818714474
aF11.557156042511068
aF0.519422864422102
aF0.011408053597729183
aF0.4330156340774602
aF1.1428673568442023
aF0.99
aF0.27416408529958514
aF4.901590890808008
aF75320.67007980138
aF0.3
aF0.030668302498632328
aF0.09263526818714474
aF11.557156042511068
aF0.4330156340774602
aF1.1428673568442023
aF0.10054717527465158
aF12.547050594692529
aI4
aF1.7100000000000004
aI13
aa(lp111
S'6'
p112
ag42
aS'41'
p113
aF0.13653746978697243
aF0.0003462780855617345
aF0.8201697866258432
aF0.8721452773237716
aF71.99826652498051
aF0.20743426357314831
aF0.9999999999999989
aF0.01828541877865436
aF-0.0010513738671615596
aF0.00033017114223181815
aF0.38511902554059385
aF0.04771995796498335
aF0.13653746978697243
aF0.0003462780855617345
aF71.99826652498051
aF0.20743426357314831
aF24.641311847110025
aF0.09458138629648466
aI0
aF22.593666185749015
aI13
aa(lp114
g112
ag42
aS'281'
p115
aF0.12567740447553566
aF0.0002946348090115761
aF0.9999989428742196
aF0.018684286437569586
aF80.83060708991466
aF0.22810328790165357
aF0.5466909387940608
aF0.5562877653439615
aF-0.0014133835217187687
aF0.0003030248896957318
aF0.4652749847944746
aF0.043793251150062384
aF0.12567740447553566
aF0.0002946348090115761
aF80.83060708991466
aF0.22810328790165357
aF25.46378611718043
aF0.0934202580390527
aI0
aF17.5144958614995
aI13
aa(lp116
g112
ag42
aS'872'
p117
aF0.12760514592048527
aF0.00031591266370382997
aF1.0000002011984526
aF0.040913047012828496
aF79.05462972948024
aF0.23058290331216824
aF0.7208913489365159
aF0.7552037176949972
aF-0.0016194574191207467
aF0.00032092570945486205
aF0.3885188764535496
aF0.045126479055423496
aF0.12760514592048527
aF0.00031591266370382997
aF79.05462972948024
aF0.23058290331216824
aF25.28630846590015
aF0.09673977027107425
aI0
aF21.05255133318226
aI13
aa(lp118
g112
ag42
aS'1783'
p119
aF0.12535714518930358
aF0.00029329705347371193
aF1.0000000623442968
aF0.014356382677228718
aF81.71711897272871
aF0.22889560536081177
aF0.5669411200369442
aF0.5876815888806037
aF-0.0012461215661606893
aF0.00030066324584678244
aF0.365546416921125
aF0.0419614098237065
aF0.12535714518930358
aF0.00029329705347371193
aF81.71711897272871
aF0.22889560536081177
aF25.67746075248824
aF0.09371452094622323
aI0
aF21.019752479073997
aI13
aa(lp120
g112
ag42
aS'2063'
p121
aF0.12701270124973352
aF0.0002714229161797351
aF1.0000000343519242
aF0.04888404339785629
aF80.76679997394217
aF0.2086185469411106
aF0.990000000014382
aF0.7559345301067979
aF-0.002012761431465024
aF0.00027820299309442285
aF0.31057365455020747
aF0.0351504786537791
aF0.12701270124973352
aF0.0002714229161797351
aF80.76679997394217
aF0.2086185469411106
aF25.714019144987223
aF0.0862030239581562
aI0
aF25.76290533039229
aI13
aa(lp122
g112
ag42
aS'sum'
p123
aF0.0063268200932332375
aF82.6677451641016
aF0.5276743003065997
aF0.01142979924109353
aF0.42639421651480636
aF1.1466763108690103
aF0.99
aF0.27416408529958514
aF-2.1393614816246918
aF0.5129102485590663
aF0.3
aF0.030668302489696053
aF0.0063268200932332375
aF82.6677451641016
aF0.42639421651480636
aF1.1466763108690103
aF0.0067621799674122286
aF88.35626332060316
aI0
aF1.7100000000000004
aI13
aa(lp124
S'7'
p125
ag28
aS'41'
p126
aF0.13676908883662403
aF0.00042061167146700574
aF0.5009369099893652
aF1.0476201409048622
aF72.46682837627586
aF0.21577767971714934
aF0.9999926176027814
aF0.6212108947675314
aF-0.0005995526293196822
aF0.00034231682471285135
aF0.44139734297982613
aF0.07222710933568166
aF0.13676908883662403
aF0.00042061167146700574
aF72.46682837627586
aF0.21577767971714934
aF24.843749521685606
aF0.10634710775565738
aI0
aF12.43221567127692
aI13
aa(lp127
g125
ag28
aS'281'
p128
aF0.13264608645327453
aF9.892147037709451e-06
aF0.9993406638729108
aF0.9960391934247554
aF80.6955699436169
aF0.008603359043675596
aF0.9999999978453167
aF0.5499767428391719
aF-0.0010045655698088611
aF1.53268323023922e-05
aF0.3888556185586366
aF0.0017674535692496218
aF0.13264608645327453
aF9.892147037709451e-06
aF80.6955699436169
aF0.008603359043675596
aF26.83082759833452
aF0.003490923122999377
aI0
aF27.826786642953483
aI13
aa(lp129
g125
ag28
aS'872'
p130
aF0.13315754855761283
aF0.00032939247438052723
aF1.0000270920090437
aF0.16857681752088888
aF80.03928016582971
aF0.22112998983103438
aF0.9913623887530667
aF0.7530709606384675
aF-0.0007763598689838545
aF0.00030657082911601384
aF0.3280609635981439
aF0.04713784726730605
aF0.13315754855761283
aF0.00032939247438052723
aF80.03928016582971
aF0.22112998983103438
aF26.71522889094001
aF0.09907030131001049
aI0
aF16.81805257655034
aI13
aa(lp131
g125
ag28
aS'1783'
p132
aF0.13169243172105977
aF0.00023909240632972211
aF1.0000000308887418
aF0.07681888698266148
aF82.01173550148124
aF0.22470208437488992
aF0.99147720096123
aF0.7528172874161937
aF-0.0009208141738588555
aF0.00029345852381747087
aF0.3000000000004735
aF0.5162812862929004
aF0.13169243172105977
aF0.00023909240632972211
aF82.01173550148124
aF0.22470208437488992
aF27.072399714030524
aF0.08898175011103837
aI0
aF21.285212591769938
aI13
aa(lp133
g125
ag28
aS'2063'
p134
aF0.13204186921710612
aF3.6537174646108607e-08
aF1.0007081800529107
aF1.1203628769884781
aF80.8526748678326
aF3.3341045352131005e-05
aF0.9999999999999852
aF0.010132907437094996
aF-0.0006023242093637307
aF5.814819882038126e-08
aF0.3000000000002141
aF1.1659434528965562e-09
aF0.13204186921710612
aF3.6537174646108607e-08
aF80.8526748678326
aF3.3341045352131005e-05
aF26.76060885301245
aF1.3289414697927449e-05
aI0
aF46.21746783812984
aI13
aa(lp135
g125
ag28
aS'sum'
p136
aF0.06817567935384392
aF30684.352266138725
aF0.5286299405418738
aF0.011616193634780655
aF0.4392793415222822
aF1.1393091500323862
aF0.99
aF0.27416408529958514
aF4.4566167864801525
aF0.5129102485590663
aF0.3
aF0.030668302489508303
aF0.06817567935384392
aF30684.352266138725
aF0.4392793415222822
aF1.1393091500323862
aF0.07506892351509016
aF33786.8476742245
aI0
aF1.7100000000000004
aI13
aa(lp137
S'8'
p138
ag42
aS'41'
p139
aF0.13465346124386096
aF0.00032219175473045597
aF0.6854980584747434
aF0.406022252580054
aF72.6726370279033
aF0.22982433190955476
aF0.9891640062981706
aF0.0464615283364197
aF-0.00018032813856619766
aF0.0003319660133193319
aF0.3000000004952249
aF0.1822093157277613
aF0.13465346124386096
aF0.00032219175473045597
aF72.6726370279033
aF0.22982433190955476
aF24.528917074618523
aF0.0972731520039559
aI0
aF17.75276714859152
aI13
aa(lp140
g138
ag42
aS'281'
p141
aF0.12403703499962604
aF0.0005665291194557156
aF0.5000000013290942
aF1.258255254540741
aF81.84842731803295
aF0.3443628467056854
aF0.9967633004856411
aF0.008942054129311927
aF0.0003215433217565378
aF0.00029011494535865996
aF0.3143637944624016
aF0.5467621568121219
aF0.12403703499962604
aF0.0005665291194557156
aF81.84842731803295
aF0.3443628467056854
aF25.447882419721438
aF0.1580288739136651
aI0
aF28.67985333352527
aI13
aa(lp142
g138
ag42
aS'872'
p143
aF0.1256502869914813
aF3.344059245903249e-08
aF1.0008349033826387
aF1.1185824214880526
aF80.22407764989975
aF3.229820303118913e-05
aF0.9999999999962264
aF0.006928737224994763
aF0.0005896626095658679
aF5.3483458642372824e-08
aF0.3000000000003993
aF1.3526566811083995e-09
aF0.1256502869914813
aF3.344059245903249e-08
aF80.22407764989975
aF3.229820303118913e-05
aF25.26726014147631
aF1.2194359300720175e-05
aI0
aF31.320972973748034
aI13
aa(lp144
g138
ag42
aS'1783'
p145
aF0.12338368300940733
aF1.6115512253402416e-07
aF1.000784204681653
aF1.2488831679663521
aF82.44597910420899
aF0.00016048593808193345
aF0.9999999961594641
aF0.6256834238435459
aF0.00044815724647840786
aF2.552714760651589e-07
aF0.40633904669271514
aF2.8970480185658287e-05
aF0.12338368300940733
aF1.6115512253402416e-07
aF82.44597910420899
aF0.00016048593808193345
aF25.498647425782874
aF5.977280109897763e-05
aI0
aF31.965284897099576
aI13
aa(lp146
g138
ag42
aS'2063'
p147
aF0.12464679595807154
aF0.00027207022824540843
aF0.9999999224313361
aF0.05833973889044097
aF81.21065157352008
aF0.21003904752998892
aF0.9999057041535044
aF0.5021359148545366
aF0.000468325410717212
aF0.00027514609104742723
aF0.42505397722581323
aF0.04049969647553556
aF0.12464679595807154
aF0.00027207022824540843
aF81.21065157352008
aF0.21003904752998892
aF25.37371447849739
aF0.08587233621579814
aI0
aF18.23815675414937
aI13
aa(lp148
g138
ag42
aS'sum'
p149
aF-0.0034335088701202498
aF0.05491046251296134
aF1.150124690574321
aF0.3898700666466898
aF0.29703787782414215
aF1.4631773417208531
aF0.6837975546304127
aF0.2927643316720481
aF-0.022228807458391012
aF0.5129099921043359
aF0.3
aF0.025319424424395814
aF-0.0034335088701202498
aF0.05491046251296134
aF0.29703787782414215
aF1.4631773417208531
aF-0.0025564655299123427
aF0.04277977271088842
aI0
aF1.7100000000013438
aI13
aa(lp150
S'9'
p151
ag28
aS'41'
p152
aF0.1365729663668104
aF0.0003510418933305283
aF0.9999922089004324
aF0.03331172903788193
aF73.7369848332647
aF0.24042639560518353
aF8.355891814298966e-05
aF0.9077290111404643
aF-0.002164900520111336
aF0.00038428560257344887
aF0.3998669354636965
aF0.033848641743085106
aF0.1365729663668104
aF0.0003510418933305283
aF73.7369848332647
aF0.24042639560518353
aF25.242946772876827
aF0.10480606925521492
aI0
aF26.04581017724314
aI19
aa(lp153
g151
ag28
aS'281'
p154
aF0.1330308618267159
aF4.0254924393847843e-07
aF1.0012263965783594
aF1.1288842924806306
aF82.49719674120068
aF0.0003685204214249893
aF0.9999999999792035
aF0.627861367067301
aF-0.0014829194099583924
aF6.385395850575409e-07
aF0.3227121601437127
aF4.934066707679152e-05
aF0.1330308618267159
aF4.0254924393847843e-07
aF82.49719674120068
aF0.0003685204214249893
aF27.50942609975278
aF0.0001484266922974292
aI0
aF42.81730526214288
aI19
aa(lp155
g151
ag28
aS'872'
p156
aF0.13309480572724483
aF0.00031570986378652284
aF1.0000199193697608
aF0.05164392852816896
aF81.70512446118938
aF0.2606886420966603
aF0.9954794772901403
aF0.742237287937545
aF-0.002014201065842546
aF0.00036500708000739327
aF0.3608456938290579
aF0.033181381996824244
aF0.13309480572724483
aF0.00031570986378652284
aF81.70512446118938
aF0.2606886420966603
aF27.258398523565734
aF0.10837280346226534
aI0
aF37.501575153112455
aI19
aa(lp157
g151
ag28
aS'1783'
p158
aF0.13202603142974098
aF0.0003123130860743151
aF1.000009507266906
aF0.04341078951527111
aF83.5154960358271
aF0.26430201324852476
aF0.9955561054198666
aF0.7419888866709019
aF-0.0012261302040176363
aF0.0003588498706312236
aF0.32339197383394863
aF0.0292255583110079
aF0.13202603142974098
aF0.0003123130860743151
aF83.5154960358271
aF0.26430201324852476
aF27.638633572258787
aF0.10920287276929787
aI0
aF32.68473201028684
aI19
aa(lp159
g151
ag28
aS'2063'
p160
aF0.13238371011757358
aF3.8791934266779525e-08
aF1.0005708975172598
aF1.2471037034322385
aF82.53036658870423
aF3.5960406876256457e-05
aF0.9999999999895686
aF0.01761465299445164
aF-0.001613677770959694
aF6.147939855219592e-08
aF0.322368316057913
aF4.516245323965551e-06
aF0.13238371011757358
aF3.8791934266779525e-08
aF82.53036658870423
aF3.5960406876256457e-05
aF27.386608697835232
aF1.4380430325204093e-05
aI0
aF43.85267802745131
aI19
aa(lp161
g151
ag28
aS'sum'
p162
aF-2.2593677982317713e-06
aF64.47920963052167
aF0.5269802303557631
aF0.00861646649563226
aF1.1
aF0.9873125120721375
aF0.99
aF0.2601349124837729
aF0.0
aF0.48666426339228774
aF0.3
aF0.022311344805204896
aF-2.2593677982317713e-06
aF64.47920963052167
aF1.1
aF0.9873125120721375
aF-6.2297347264224024e-06
aF177.7879509842977
aI0
aF2.2500000000000004
aI19
aa.