(dp0
S'LS_ScaleY2'
p1
V0.9995
p2
sS'LS_ScaleY'
p3
V0.9946
p4
sS'LS_ScaleX'
p5
V0.9893
p6
sS'LS_ScaleY1'
p7
V0.9897
p8
sS'SingleBeamScans'
p9
(lp10
(lp11
VI1X
p12
aI2
aa(lp13
VI1Y
p14
aI2
aa(lp15
VI2X
p16
aI1
aa(lp17
VI2Y
p18
aI1
aasS'LS_ScaleX1'
p19
V0.9919
p20
sS'LS_ScaleX2'
p21
V0.9867
p22
s.