(dp0
S'OrbitDrifts_X'
p1
(lp2
(lp3
F0.0402879
aF-0.72076
aF-0.439995
aa(lp4
F1.89972
aF0.289685
aF1.17511
aa(lp5
F2.13783
aF2.38053
aF3.47372
aa(lp6
F4.63767
aF0.86259
aF2.55331
aa(lp7
F3.22724
aF-0.0119182
aF-0.393059
aa(lp8
F0.706505
aF-0.331744
aF-1.15762
aa(lp9
F-1.23226
aF-3.61051
aF-3.32324
aa(lp10
F-3.89923
aF-6.91751
aF-2.28416
aa(lp11
F0.502734
aF2.76994
aF2.76994
aa(lp12
F3.32915
aF-1.61134
aF-1.61134
aa(lp13
F-1.58343
aF-5.19937
aF-6.47382
aa(lp14
F-2.68484
aF-1.86289
aF-1.94646
aasS'TimeWindows'
p15
(lp16
(lp17
I1464336285
aI1464336776
aI1464337268
aa(lp18
I1464337522
aI1464338015
aI1464338508
aa(lp19
I1464338769
aI1464339263
aI1464339757
aa(lp20
I1464339948
aI1464340439
aI1464340930
aa(lp21
I1464341247
aI1464341739
aI1464342231
aa(lp22
I1464342677
aI1464343169
aI1464343658
aa(lp23
I1464344429
aI1464344920
aI1464345408
aa(lp24
I1464345652
aI1464346149
aI1464346642
aa(lp25
I1464347152
aI1464348250
aI1464348181
aa(lp26
I1464348634
aI1464349746
aI1464349677
aa(lp27
I1464350869
aI1464351362
aI1464351851
aa(lp28
I1464352142
aI1464352636
aI1464353130
aasS'Names'
p29
(lp30
VX1
p31
aVY1
p32
aVY2
p33
aVX2
p34
aVI1X
p35
aVI1Y
p36
aVI2X
p37
aVI2Y
p38
aVL1X
p39
aVL1Y
p40
aVX3
p41
aVY3
p42
asS'OrbitDrifts_Y'
p43
(lp44
(lp45
F0.0120414
aF0.805278
aF0.42851
aa(lp46
F1.56448
aF0.293583
aF2.0313
aa(lp47
F2.23794
aF0.404373
aF2.09368
aa(lp48
F2.95578
aF2.38585
aF2.83943
aa(lp49
F2.65604
aF0.706491
aF1.23319
aa(lp50
F2.23072
aF1.65632
aF0.506647
aa(lp51
F0.73614
aF0.152696
aF1.14132
aa(lp52
F2.34622
aF1.38644
aF1.58423
aa(lp53
F1.58266
aF0.94139
aF0.94139
aa(lp54
F0.411849
aF2.42804
aF2.42804
aa(lp55
F-0.119504
aF0.750337
aF0.97601
aa(lp56
F1.91602
aF1.23606
aF3.29354
aas.