(lp0
(lp1
S'Scan'
p2
aS'Type'
p3
aS'BCID'
p4
aS'sigma'
p5
aS'sigmaErr'
p6
aS'sigmaRatio'
p7
aS'sigmaRatio_Err'
p8
aS'Amp'
p9
aS'AmpErr'
p10
aS'Frac'
p11
aS'FracErr'
p12
aS'Mean'
p13
aS'MeanErr'
p14
aS'CapSigma'
p15
aS'CapSigmaErr'
p16
aS'peak'
p17
aS'peakErr'
p18
aS'area'
p19
aS'areaErr'
p20
aS'fitStatus'
p21
aS'chi2'
p22
aS'ndof'
p23
aa(lp24
S'1'
p25
aS'X'
p26
aS'644'
p27
aF0.09661549585712156
aF0.0
aF0.7031439296431126
aF0.02165336434260423
aF0.34062427484179025
aF0.015437409235580762
aF0.8002379776325369
aF0.09621575887524558
aF0.0016695358218688928
aF0.0021261214579652975
aF0.09661549585712156
aF0.0
aF0.34062427484179025
aF0.015437409235580762
aF0.08249209179256958
aF0.0037386183949822006
aI0
aF16.420919527074883
aI20
aa(lp28
g25
ag26
aS'1215'
p29
aF0.10142448765833588
aF0.0
aF0.999999821689564
aF0.0028818606889652876
aF0.3044623537465667
aF0.010145058281316927
aF0.8871241302372865
aF0.8354377010302825
aF-0.0010328445718472907
aF0.0014590137898511594
aF0.10142448765833588
aF0.0
aF0.3044623537465667
aF0.010145058281316927
aF0.0774045263112344
aF0.0025792135579391236
aI0
aF23.912785025502327
aI20
aa(lp30
g25
ag26
aS'2269'
p31
aF0.08988616904540475
aF0.0
aF0.68240255186879
aF0.02328913053455972
aF0.36168475205684286
aF0.01620562345421056
aF0.6829051714692955
aF0.07133288977290148
aF0.005575979806031109
aF0.002430371924829385
aF0.08988616904540475
aF0.0
aF0.36168475205684286
aF0.01620562345421056
aF0.08149163014713125
aF0.003651308675093529
aI0
aF26.300268295168514
aI20
aa(lp32
g25
ag26
aS'2389'
p33
aF0.09380208215977656
aF0.0
aF1.445992823239237
aF0.04142128175578752
aF0.36503476090920717
aF0.015923763736323315
aF0.27513627197844337
aF0.07149386482279607
aF-0.0015928635176626052
aF0.0019230158623841588
aF0.09380208215977656
aF0.0
aF0.36503476090920717
aF0.015923763736323315
aF0.08582951047335736
aF0.0037441060215138476
aI0
aF15.631693802731462
aI20
aa(lp34
g25
ag26
aS'2589'
p35
aF0.0937368850435211
aF0.0
aF1.3939923328356332
aF0.048293645913539796
aF0.344742535202352
aF0.014823070060054816
aF0.1618079775751491
aF0.08455651007347312
aF0.003061422574259757
aF0.0022643516381253633
aF0.0937368850435211
aF0.0
aF0.344742535202352
aF0.014823070060054816
aF0.08100192178015844
aF0.0034828808137690377
aI0
aF6.968216918985125
aI20
aa(lp36
g25
ag26
aS'sum'
p37
aF-0.0004253477610282365
aF0.0
aF0.26929014220978853
aF0.0014772659615770961
aF0.2200000000000094
aF0.17819812444226155
aF0.8823132165323568
aF0.04036298005086134
aF0.0
aF0.06957010852370733
aF-0.0004253477610282365
aF0.0
aF0.2200000000000094
aF0.17819812444226155
aF-0.00023456151935577087
aF0.0001899928309796537
aI0
aF0.04840000000000414
aI20
aa(lp38
S'10'
p39
ag26
aS'644'
p40
aF0.10842403986627866
aF0.0
aF0.10000026394704807
aF1.3277986066123342
aF0.2970805719362814
aF0.0013974283488495665
aF0.9973332399154256
aF0.0008756784233582282
aF-0.0009184765279429066
aF0.00039217524490697516
aF0.10842403986627866
aF0.0
aF0.2970805719362814
aF0.0013974283488495665
aF0.08074019064287817
aF0.00037979134939889717
aI0
aF14.247599435127118
aI14
aa(lp41
S'10'
p42
ag26
aS'1215'
p43
aF0.10649824898894407
aF0.0
aF0.10000151477617295
aF9.83909391179872
aF0.2952685923862761
aF0.001352756626564644
aF0.9989340119579547
aF0.0007909800806833456
aF-1.2900711747619672e-05
aF0.0003779023052073569
aF0.10649824898894407
aF0.0
aF0.2952685923862761
aF0.001352756626564644
aF0.0788224001700867
aF0.00036112044051174507
aI0
aF9.162254689997338
aI14
aa(lp44
S'10'
p45
ag26
aS'2269'
p46
aF0.10720015610007261
aF0.0
aF0.10000009518280895
aF1.7402646642687716
aF0.2894761468804416
aF0.0013979255199482177
aF0.9990098776066462
aF0.0008796350770823302
aF-0.0008008227459919494
aF0.00040272631339519825
aF0.10720015610007261
aF0.0
aF0.2894761468804416
aF0.0013979255199482177
aF0.0777854082089401
aF0.000375637883765869
aI0
aF15.423505740706572
aI14
aa(lp47
S'10'
p48
ag26
aS'2389'
p49
aF0.10660683399249322
aF0.0
aF0.45051068625591306
aF0.44773691217692235
aF0.2862338108493429
aF0.0014898395185222735
aF0.9905736164549105
aF0.020304252286793445
aF-0.0014080595928623659
aF0.00040535622495293925
aF0.10660683399249322
aF0.0
aF0.2862338108493429
aF0.0014898395185222735
aF0.07648845924666003
aF0.00039812043503321194
aI0
aF16.32807454843574
aI14
aa(lp50
S'10'
p51
ag26
aS'2589'
p52
aF0.10752583124513242
aF0.0
aF0.10000000099675474
aF1.2823548030605638
aF0.2915827912293909
aF0.001408404199719826
aF0.9985116616693668
aF0.0008847912694853743
aF-0.0009849661204065206
aF0.0004030308791766787
aF0.10752583124513242
aF0.0
aF0.2915827912293909
aF0.001408404199719826
aF0.07858951919602945
aF0.000379603365558608
aI0
aF23.79012293410685
aI14
aa(lp53
S'10'
p54
ag26
aS'sum'
p55
aF-0.0007101982890978427
aF0.0
aF0.12600794221641745
aF0.021186701390978332
aF0.2200000000000094
aF0.21298749645580808
aF0.99
aF0.04444704029228389
aF0.0
aF0.08315218406203355
aF-0.0007101982890978427
aF0.0
aF0.2200000000000094
aF0.21298749645580808
aF-0.0003916446846504038
aF0.00037916100401777443
aI0
aF0.04840000000000414
aI14
aa(lp56
S'2'
p57
aS'Y'
p58
aS'644'
p59
aF0.08998942890015382
aF0.0
aF0.6924300140336924
aF0.021394703361472422
aF0.3410094940507688
aF0.0018762466725943394
aF0.8900315642756151
aF0.035412899611025506
aF-0.0011621922385455822
aF0.0003666629025935554
aF0.08998942890015382
aF0.0
aF0.3410094940507688
aF0.0018762466725943394
aF0.07692152756604356
aF0.00042322504993123845
aI0
aF13.99606030433447
aI20
aa(lp60
g57
ag58
aS'1215'
p61
aF0.0896779633803791
aF0.0
aF0.6974161460464274
aF0.026383706578820443
aF0.334687231006364
aF0.0018004507819981974
aF0.908819309624531
aF0.03489092869750643
aF-0.0010636164047184953
aF0.0003581863590670863
aF0.0896779633803791
aF0.0
aF0.334687231006364
aF0.0018004507819981974
aF0.07523411460892979
aF0.0004047221044952683
aI0
aF33.22671825597844
aI20
aa(lp62
g57
ag58
aS'2269'
p63
aF0.08894260558729966
aF0.0
aF0.687259937602456
aF0.017446343639759387
aF0.3426647754814797
aF0.0019205475280981987
aF0.8825496342603425
aF0.03137913724268987
aF-0.00034264437246967313
aF0.0003728473620366029
aF0.08894260558729966
aF0.0
aF0.3426647754814797
aF0.0019205475280981987
aF0.07639575816241409
aF0.00042817848519694765
aI0
aF25.45925672689251
aI20
aa(lp64
g57
ag58
aS'2389'
p65
aF0.08827110824194992
aF0.0
aF0.6478390766566279
aF0.017500801936957078
aF0.3444181077405571
aF0.0019463432827797056
aF0.8908243375200726
aF0.02657827776852717
aF-0.0007264965808884505
aF0.00036767641262406306
aF0.08827110824194992
aF0.0
aF0.3444181077405571
aF0.0019463432827797056
aF0.0762069340914739
aF0.0004306534730221152
aI0
aF15.83808554348337
aI20
aa(lp66
g57
ag58
aS'2589'
p67
aF0.08890233631825005
aF0.0
aF0.7296866201293325
aF0.0263193115947864
aF0.3456172262647918
aF0.00197699738895063
aF0.8687465288554906
aF0.058149102839019084
aF0.00037279030344177845
aF0.00037085958068969194
aF0.08890233631825005
aF0.0
aF0.3456172262647918
aF0.00197699738895063
aF0.07701910876895589
aF0.0004405642004049664
aI0
aF17.641327532515596
aI19
aa(lp68
g57
ag58
aS'sum'
p69
aF-0.0004253477610282365
aF0.0
aF0.26929014220978853
aF0.0014772659615770961
aF0.2200000000000094
aF0.17819812444226155
aF0.8823132165323568
aF0.04036298005086134
aF0.0
aF0.06957010852370733
aF-0.0004253477610282365
aF0.0
aF0.2200000000000094
aF0.17819812444226155
aF-0.00023456151935577087
aF0.0001899928309796537
aI0
aF0.04840000000000414
aI20
aa(lp70
S'3'
p71
ag58
aS'644'
p72
aF0.09079093724343489
aF0.0
aF0.6932227273537281
aF0.027954300610793015
aF0.34356421065506293
aF0.001979648658471861
aF0.8916281827730572
aF0.045439174504047775
aF0.0005048096248469733
aF0.00073073464142572
aF0.09079093724343489
aF0.0
aF0.34356421065506293
aF0.001979648658471861
aF0.07818804428872975
aF0.000450526720142354
aI0
aF9.230240515949117
aI20
aa(lp73
g71
ag58
aS'1215'
p74
aF0.08884317587391366
aF0.0
aF0.7712039012338296
aF0.02202535705495673
aF0.33935271542241696
aF0.001975887172245311
aF0.7758703531841603
aF0.11346288111588143
aF-0.0014664115576358294
aF0.0006801926568249189
aF0.08884317587391366
aF0.0
aF0.33935271542241696
aF0.001975887172245311
aF0.07557276944731599
aF0.0004400237833256483
aI0
aF14.032673046179426
aI20
aa(lp75
g71
ag58
aS'2269'
p76
aF0.08908717760111222
aF0.0
aF0.6956248551315304
aF0.024721427930294693
aF0.34339375829968954
aF0.0020574623530151825
aF0.877673864700657
aF0.04698153606527644
aF0.0002667625499581348
aF0.0007197494407356888
aF0.08908717760111222
aF0.0
aF0.34339375829968954
aF0.0020574623530151825
aF0.0766827238816976
aF0.00045944870487587343
aI0
aF13.242437230190651
aI20
aa(lp77
g71
ag58
aS'2389'
p78
aF0.09031372078949537
aF0.0
aF0.7009210254267336
aF0.015372769464979952
aF0.3368704529408886
aF0.0020545877726957373
aF0.7948120098679697
aF0.05763684828088894
aF0.0007255310972492197
aF0.0007322080393352535
aF0.09031372078949537
aF0.0
aF0.3368704529408886
aF0.0020545877726957373
aF0.07626171885948088
aF0.0004651235919492869
aI0
aF7.443180242360207
aI20
aa(lp79
g71
ag58
aS'2589'
p80
aF0.0901026344298735
aF0.0
aF0.6936869693978126
aF0.039465661958463794
aF0.3432544629399355
aF0.002001292794916454
aF0.9295834130605922
aF0.0391855051647374
aF0.0010567663226033126
aF0.0007557447545828311
aF0.0901026344298735
aF0.0
aF0.3432544629399355
aF0.002001292794916454
aF0.07752532862543014
aF0.00045199960482015
aI0
aF10.813478636271075
aI20
aa(lp81
g71
ag58
aS'sum'
p82
aF-0.0004253477610282365
aF0.0
aF0.26929014220978853
aF0.0014772659615770961
aF0.2200000000000094
aF0.17819812444226155
aF0.8823132165323568
aF0.04036298005086134
aF0.0
aF0.06957010852370733
aF-0.0004253477610282365
aF0.0
aF0.2200000000000094
aF0.17819812444226155
aF-0.00023456151935577087
aF0.0001899928309796537
aI0
aF0.04840000000000414
aI20
aa(lp83
S'4'
p84
ag26
aS'644'
p85
aF0.10121370023368668
aF0.0
aF1.3706824489590093
aF0.03008482854316641
aF0.3252447273771738
aF0.0017174844597874217
aF0.1711957100517748
aF0.05121037495511549
aF0.004633660676225858
aF0.00033764563611880636
aF0.10121370023368668
aF0.0
aF0.3252447273771738
aF0.0017174844597874217
aF0.08251625349465516
aF0.000435734605753046
aI0
aF25.119243107518255
aI20
aa(lp86
g84
ag26
aS'1215'
p87
aF0.10036050432374408
aF0.0
aF1.4096801426887398
aF0.0551460359734004
aF0.32438519421976963
aF0.0016169039918225159
aF0.07873707051314077
aF0.030711041265267636
aF0.004244497204392685
aF0.000326130237450182
aF0.10036050432374408
aF0.0
aF0.32438519421976963
aF0.0016169039918225159
aF0.08160444075843017
aF0.0004067588421540489
aI0
aF30.02811104196052
aI20
aa(lp88
g84
ag26
aS'2269'
p89
aF0.09947880085302906
aF0.0
aF0.6822944851955864
aF0.023413530659889714
aF0.3273692851224522
aF0.001710705701166465
aF0.9166244625873741
aF0.025978472254272134
aF0.0036955047778118883
aF0.0003124588349696557
aF0.09947880085302906
aF0.0
aF0.3273692851224522
aF0.001710705701166465
aF0.0816316182063363
aF0.00042657537223991126
aI0
aF17.980193488987204
aI20
aa(lp90
g84
ag26
aS'2389'
p91
aF0.0992678239058411
aF0.0
aF0.6934916081053434
aF0.011468812358876201
aF0.32774263275827753
aF0.0017426775983040432
aF0.8382303606918237
aF0.03158648502459194
aF0.003621362177647005
aF0.0003376366784700197
aF0.0992678239058411
aF0.0
aF0.32774263275827753
aF0.0017426775983040432
aF0.0815513911494867
aF0.00043362616962791745
aI0
aF30.189025063613705
aI20
aa(lp92
g84
ag26
aS'2589'
p93
aF0.09990461624271622
aF0.0
aF0.7099521575447932
aF0.0391673423631308
aF0.32758741367790495
aF0.0017034650525899475
aF0.939589921332225
aF0.03160630890057714
aF0.0036049692031316105
aF0.00034016819457804857
aF0.09990461624271622
aF0.0
aF0.32758741367790495
aF0.0017034650525899475
aF0.08203566394743426
aF0.00042658808234271564
aI0
aF15.55204652813325
aI19
aa(lp94
g84
ag26
aS'sum'
p95
aF-0.0004253477610282365
aF0.0
aF0.26929014220978853
aF0.0014772659615770961
aF0.2200000000000094
aF0.17819812444226155
aF0.8823132165323568
aF0.04036298005086134
aF0.0
aF0.06957010852370733
aF-0.0004253477610282365
aF0.0
aF0.2200000000000094
aF0.17819812444226155
aF-0.00023456151935577087
aF0.0001899928309796537
aI0
aF0.04840000000000414
aI20
aa(lp96
S'5'
p97
ag58
aS'644'
p98
aF0.09648864140056436
aF0.0
aF1.5801045424657842
aF0.07858185642084214
aF0.3074817662016962
aF0.0012276681010379153
aF0.04291546565618559
aF0.014885825134208663
aF0.0006971341644955914
aF0.000288999220599792
aF0.09648864140056436
aF0.0
aF0.3074817662016962
aF0.0012276681010379153
aF0.07436789564243211
aF0.0002969252269796115
aI0
aF35.85944948735324
aI19
aa(lp99
g97
ag58
aS'1215'
p100
aF0.09587062954065863
aF0.0
aF0.7658975677766987
aF0.025396505685617465
aF0.30183866642070245
aF0.0011958051682096627
aF0.8894715804898481
aF0.04914737292034771
aF0.0003362321144697919
aF0.0002812099926852221
aF0.09587062954065863
aF0.0
aF0.30183866642070245
aF0.0011958051682096627
aF0.07253546287535002
aF0.0002873663683099101
aI0
aF42.13777857009049
aI20
aa(lp101
g97
ag58
aS'2269'
p102
aF0.09581929245958877
aF0.0
aF1.3952768845535162
aF0.03722063364754402
aF0.2997162931379184
aF0.0012859641096575614
aF0.1241923659021077
aF0.03814807676687465
aF0.0007823129611404129
aF0.00029871607492871875
aF0.09581929245958877
aF0.0
aF0.2997162931379184
aF0.0012859641096575614
aF0.0719868626563927
aF0.00030886716492376583
aI0
aF22.522267377819226
aI20
aa(lp103
g97
ag58
aS'2389'
p104
aF0.09587190400578083
aF0.0
aF0.6925135185327417
aF0.014847174908196203
aF0.2980903460597083
aF0.0012718054877836615
aF0.8672160865321672
aF0.03082523918664165
aF0.0004241814930252658
aF0.00029874440946791523
aF0.09587190400578083
aF0.0
aF0.2980903460597083
aF0.0012718054877836615
aF0.07163564868012849
aF0.0003056342223645207
aI0
aF31.800362856691205
aI20
aa(lp105
g97
ag58
aS'2589'
p106
aF0.09520331048454886
aF0.0
aF0.7176308360504355
aF0.020438978710385802
aF0.3014803992996289
aF0.0012822813120456633
aF0.8886026138657728
aF0.035700911251714706
aF2.4671616677031842e-05
aF0.00029761088597775667
aF0.09520331048454886
aF0.0
aF0.3014803992996289
aF0.0012822813120456633
aF0.0719450744369517
aF0.0003060027274030179
aI0
aF47.33828764070443
aI20
aa(lp107
g97
ag58
aS'sum'
p108
aF-0.0004253477610282365
aF0.0
aF0.26929014220978853
aF0.0014772659615770961
aF0.2200000000000094
aF0.17819812444226155
aF0.8823132165323568
aF0.04036298005086134
aF0.0
aF0.06957010852370733
aF-0.0004253477610282365
aF0.0
aF0.2200000000000094
aF0.17819812444226155
aF-0.00023456151935577087
aF0.0001899928309796537
aI0
aF0.04840000000000414
aI20
aa(lp109
S'6'
p110
ag26
aS'644'
p111
aF0.10596378436334881
aF0.0
aF1.4588830080092006
aF0.111802371019176
aF0.3039059216262878
aF0.0011732386455916288
aF0.03742495383840566
aF0.02310555214117821
aF0.0032639007936599955
aF0.0003041948326294714
aF0.10596378436334881
aF0.0
aF0.3039059216262878
aF0.0011732386455916288
aF0.08072100433563646
aF0.0003116260495706845
aI0
aF29.19483746825365
aI20
aa(lp112
g110
ag26
aS'1215'
p113
aF0.10524791073716533
aF0.0
aF0.6762806578559983
aF0.08536696115191156
aF0.2996678809090879
aF0.0011337328857505269
aF0.9787593323520105
aF0.020288117368755798
aF0.002915186553125079
aF0.00029512494715342905
aF0.10524791073716533
aF0.0
aF0.2996678809090879
aF0.0011337328857505269
aF0.07905759787851734
aF0.00029909844962833324
aI0
aF16.57675089095517
aI20
aa(lp114
g110
ag26
aS'2269'
p115
aF0.10540351554471611
aF0.0
aF1.3815868025733042
aF0.13641009754859645
aF0.29846890998504894
aF0.0011956993628541301
aF0.037738915753373514
aF0.034638487694633346
aF0.0022343267516962764
aF0.0003111829965976298
aF0.10540351554471611
aF0.0
aF0.29846890998504894
aF0.0011956993628541301
aF0.07885770433148252
aF0.00031591265847426546
aI0
aF17.40985302290354
aI20
aa(lp116
g110
ag26
aS'2389'
p117
aF0.10616517574654637
aF0.0
aF1.3527196063142062
aF0.09618975526727225
aF0.2947008064124798
aF0.0012000987376559746
aF0.06839202923142668
aF0.0500105635323741
aF0.0019158873634717141
aF0.0003129368700884869
aF0.10616517574654637
aF0.0
aF0.2947008064124798
aF0.0012000987376559746
aF0.07842478584608176
aF0.0003193662333013461
aI0
aF18.958724405287462
aI20
aa(lp118
g110
ag26
aS'2589'
p119
aF0.10548528908111636
aF0.0
aF2.3979743613800752
aF1.02809891417124
aF0.3006166587332476
aF0.00116336009541107
aF0.0027390274039251206
aF0.0031914878028149185
aF0.002096387363655193
aF0.00031043286515897986
aF0.10548528908111636
aF0.0
aF0.3006166587332476
aF0.00116336009541107
aF0.07948677467118134
aF0.0003076068443946036
aI0
aF15.953579451562048
aI20
aa(lp120
g110
ag26
aS'sum'
p121
aF-0.0004253477610282365
aF0.0
aF0.26929014220978853
aF0.0014772659615770961
aF0.2200000000000094
aF0.17819812444226155
aF0.8823132165323568
aF0.04036298005086134
aF0.0
aF0.06957010852370733
aF-0.0004253477610282365
aF0.0
aF0.2200000000000094
aF0.17819812444226155
aF-0.00023456151935577087
aF0.0001899928309796537
aI0
aF0.04840000000000414
aI20
aa(lp122
S'7'
p123
ag58
aS'644'
p124
aF0.10067943796748885
aF0.0
aF0.10000000001264155
aF0.3032902159573061
aF0.30334913133192426
aF0.0014641556769379727
aF0.9946109204388087
aF0.0006132425671150354
aF0.0015503772642823886
aF0.0003657210280991435
aF0.10067943796748885
aF0.0
aF0.30334913133192426
aF0.0014641556769379727
aF0.07655498439446534
aF0.00036950300304769066
aI0
aF22.9033919810177
aI14
aa(lp125
g123
ag58
aS'1215'
p126
aF0.09834446947527534
aF0.0
aF0.1000001823281223
aF0.845585761045113
aF0.29685085325200095
aF0.0014055517948663998
aF0.9966629353710144
aF0.000526826353759946
aF0.0014858619359151867
aF0.0003548862277045142
aF0.09834446947527534
aF0.0
aF0.29685085325200095
aF0.0014055517948663998
aF0.07317760265213044
aF0.0003464868287388992
aI0
aF16.40060535704923
aI14
aa(lp127
g123
ag58
aS'2269'
p128
aF0.10036665942456234
aF0.0
aF0.10000865368720013
aF5.104233640071902
aF0.2944699631106396
aF0.0014580992519900304
aF0.994652520447778
aF0.0007642238514611321
aF0.0007538653615836027
aF0.0003755499522751683
aF0.10036665942456234
aF0.0
aF0.2944699631106396
aF0.0014580992519900304
aF0.07408331468038318
aF0.00036683138945421966
aI0
aF13.300493407594955
aI14
aa(lp129
g123
ag58
aS'2389'
p130
aF0.09650900108119202
aF0.0
aF0.6635489305340727
aF0.05940112651295926
aF0.2920118547782523
aF0.0016385754327885027
aF0.9051506950608204
aF0.05902988631747508
aF0.0014245609083222298
aF0.000378713265092424
aF0.09650900108119202
aF0.0
aF0.2920118547782523
aF0.0016385754327885027
aF0.07064122754840009
aF0.000396391372845906
aI0
aF22.47570814999993
aI14
aa(lp131
g123
ag58
aS'2589'
p132
aF0.09899551128471618
aF0.0
aF0.10000556926756853
aF0.0022627171307613297
aF0.29638568598143333
aF0.0014791503993327182
aF0.9960992164783844
aF0.0005645558723541555
aF0.001257153002416362
aF0.0003721884569062476
aF0.09899551128471618
aF0.0
aF0.29638568598143333
aF0.0014791503993327182
aF0.07354661053142654
aF0.0003670436984056721
aI0
aF15.641799191476146
aI14
aa(lp133
g123
ag58
aS'sum'
p134
aF-0.0007101982890978427
aF0.0
aF0.12600794221641745
aF0.021186701390978332
aF0.2200000000000094
aF0.21298749645580808
aF0.99
aF0.04444704029228389
aF0.0
aF0.08315218406203355
aF-0.0007101982890978427
aF0.0
aF0.2200000000000094
aF0.21298749645580808
aF-0.0003916446846504038
aF0.00037916100401777443
aI0
aF0.04840000000000414
aI14
aa(lp135
S'8'
p136
ag26
aS'644'
p137
aF0.10768659984638204
aF0.0
aF0.2947156064681912
aF0.882643888159854
aF0.2999615437957567
aF0.0014430333361959702
aF0.99615492558195
aF0.00969534586951959
aF0.00016044777341904553
aF0.00038872278523887266
aF0.10768659984638204
aF0.0
aF0.2999615437957567
aF0.0014430333361959702
aF0.08096870229832036
aF0.00038951838667879396
aI0
aF11.209092346923487
aI14
aa(lp138
g136
ag26
aS'1215'
p139
aF0.10747352136147198
aF0.0
aF0.10000000109658293
aF2.0712416979034525
aF0.2972031850488578
aF0.0013349354411973657
aF0.9986273097520482
aF0.0008200217397085763
aF0.0005460193373808127
aF0.000375961805027187
aF0.10747352136147198
aF0.0
aF0.2972031850488578
aF0.0013349354411973657
aF0.08006539899682995
aF0.0003596264916101278
aI0
aF25.670324956014316
aI14
aa(lp140
g136
ag26
aS'2269'
p141
aF0.10641933702869
aF0.0
aF0.8143990947576782
aF0.15109873799852896
aF0.29411938473022536
aF0.0015702544561322085
aF0.836387537383394
aF0.7769035789793909
aF-0.0008607667970441126
aF0.00039892959043304703
aF0.10641933702869
aF0.0
aF0.29411938473022536
aF0.0015702544561322085
aF0.0784574397548974
aF0.0004188712162064828
aI0
aF21.1394554647468
aI14
aa(lp142
g136
ag26
aS'2389'
p143
aF0.10983794867766787
aF0.0
aF0.10000002657631381
aF0.7835037507583948
aF0.2915606420308598
aF0.0013773748069998981
aF0.9962850670416916
aF0.0009342894270750746
aF0.00017895086583472823
aF0.0003989676492202965
aF0.10983794867766787
aF0.0
aF0.2915606420308598
aF0.0013773748069998981
aF0.08027332375898873
aF0.00037922283697013775
aI0
aF17.00429665859307
aI14
aa(lp144
g136
ag26
aS'2589'
p145
aF0.1080660332903472
aF0.0
aF0.1000000122737176
aF1.2506049811111242
aF0.2926845290133004
aF0.0013934459730614301
aF0.9984076563825126
aF0.0009093904065978764
aF-0.00013430146055081287
aF0.00040036156764181464
aF0.1080660332903472
aF0.0
aF0.2926845290133004
aF0.0013934459730614301
aF0.07928278753531515
aF0.00037745856057581196
aI0
aF17.330928445242314
aI14
aa(lp146
g136
ag26
aS'sum'
p147
aF-0.0007101982890978427
aF0.0
aF0.12600794221641745
aF0.021186701390978332
aF0.2200000000000094
aF0.21298749645580808
aF0.99
aF0.04444704029228389
aF0.0
aF0.08315218406203355
aF-0.0007101982890978427
aF0.0
aF0.2200000000000094
aF0.21298749645580808
aF-0.0003916446846504038
aF0.00037916100401777443
aI0
aF0.04840000000000414
aI14
aa(lp148
S'9'
p149
ag58
aS'644'
p150
aF0.09744901296790356
aF0.0
aF0.6936397575732768
aF0.0748210002812914
aF0.2997539807720935
aF0.0016316450401890614
aF0.9004925867924571
aF0.08333667204973971
aF0.004159787698533547
aF0.00037160222116174464
aF0.09744901296790356
aF0.0
aF0.2997539807720935
aF0.0016316450401890614
aF0.07322044063629297
aF0.000398559406940785
aI0
aF17.399874353700326
aI14
aa(lp151
g149
ag58
aS'1215'
p152
aF0.09956217210820699
aF0.0
aF0.1000001614749794
aF0.0019053585197735326
aF0.29568545151647757
aF0.001385008994957554
aF0.996062622767363
aF0.0005517364801752023
aF0.0038209937736981532
aF0.0003558575934602311
aF0.09956217210820699
aF0.0
aF0.29568545151647757
aF0.001385008994957554
aF0.07379284488010038
aF0.00034565026246058313
aI0
aF11.487854602592916
aI14
aa(lp153
g149
ag58
aS'2269'
p154
aF0.09764051565075031
aF0.0
aF0.43477005147723624
aF0.19114394274330718
aF0.29008105806720885
aF0.001526279825568383
aF0.9879747331003798
aF0.011921175680376983
aF0.004340978260074195
aF0.0003829063899031509
aF0.09764051565075031
aF0.0
aF0.29008105806720885
aF0.001526279825568383
aF0.07099689724963983
aF0.00037355466321062054
aI0
aF18.979508173125467
aI14
aa(lp155
g149
ag58
aS'2389'
p156
aF0.09798760971909577
aF0.0
aF0.4363480722216576
aF0.11427048482596913
aF0.2907137687002923
aF0.0015501118811973857
aF0.9768100302350098
aF0.013879672724288028
aF0.003378003170150054
aF0.0003847605806135503
aF0.09798760971909577
aF0.0
aF0.2907137687002923
aF0.0015501118811973857
aF0.07140468360161661
aF0.00038073617537570306
aI0
aF30.340344361227544
aI14
aa(lp157
g149
ag58
aS'2589'
p158
aF0.09689367063202448
aF0.0
aF0.49562989752138054
aF0.18831313803430166
aF0.2933602369687764
aF0.001549604233035018
aF0.9860611879656713
aF0.015927019082208782
aF0.003755888447052459
aF0.0003794532012017171
aF0.09689367063202448
aF0.0
aF0.2933602369687764
aF0.001549604233035018
aF0.07125028249395646
aF0.00037636231991906643
aI0
aF12.441398390181575
aI14
aa(lp159
g149
ag58
aS'sum'
p160
aF-0.0007101982890978427
aF0.0
aF0.12600794221641745
aF0.021186701390978332
aF0.2200000000000094
aF0.21298749645580808
aF0.99
aF0.04444704029228389
aF0.0
aF0.08315218406203355
aF-0.0007101982890978427
aF0.0
aF0.2200000000000094
aF0.21298749645580808
aF-0.0003916446846504038
aF0.00037916100401777443
aI0
aF0.04840000000000414
aI14
aa.