(lp0
(lp1
S'Scan'
p2
aS'Type'
p3
aS'BCID'
p4
aS'sigma'
p5
aS'sigmaErr'
p6
aS'sigmaRatio'
p7
aS'sigmaRatio_Err'
p8
aS'Amp'
p9
aS'AmpErr'
p10
aS'Frac'
p11
aS'FracErr'
p12
aS'Mean'
p13
aS'MeanErr'
p14
aS'Const'
p15
aS'ConstErr'
p16
aS'CapSigma'
p17
aS'CapSigmaErr'
p18
aS'peak'
p19
aS'peakErr'
p20
aS'area'
p21
aS'areaErr'
p22
aS'fitStatus'
p23
aS'chi2'
p24
aS'ndof'
p25
aa(lp26
S'1'
p27
aS'X'
p28
aS'644'
p29
aF0.10245993802415476
aF0.0021980944191068996
aF0.3936682492802289
aF0.03708716996736261
aF102.4388053314698
aF5.5477726918605725
aF0.9756611602083496
aF0.007403749595455866
aF-0.002754674082689474
aF0.0035887160194208495
aF0.009999345479153503
aF0.008951874481912474
aF0.10245993802415476
aF0.0021980944191068996
aF102.4388053314698
aF5.5477726918605725
aF26.30925364684198
aF1.532548416640103
aI0
aF9.439781580143727
aI19
aa(lp30
g27
ag28
aS'1215'
p31
aF0.10169678179739691
aF0.0019630103929094973
aF4.228072447924097
aF0.8417280550362491
aF96.9457793449309
aF4.90555143667352
aF0.00939817407781357
aF0.0021904276324182237
aF0.008073555129619084
aF0.0031376706349205375
aF0.009925010885985132
aF0.006754674828695033
aF0.10169678179739691
aF0.0019630103929094973
aF96.9457793449309
aF4.90555143667352
aF24.713033069093118
aF1.3383992845155808
aI0
aF6.824097054524793
aI19
aa(lp32
g27
ag28
aS'2269'
p33
aF0.10064148579772647
aF0.00232810165740368
aF0.33617962884779906
aF0.03790815499164785
aF98.25697449428807
aF5.780974351307407
aF0.9800262138983304
aF0.005281427334870248
aF0.003119918219237944
aF0.003531828108227554
aF0.009935122095460247
aF0.0064969248862282
aF0.10064148579772647
aF0.00232810165740368
aF98.25697449428807
aF5.780974351307407
aF24.78736496202911
aF1.567044934588852
aI0
aF19.266505175159715
aI19
aa(lp34
g27
ag28
aS'2389'
p35
aF0.09877339988091455
aF0.002155849198004667
aF0.3877860898607184
aF0.026344090162121137
aF115.64546826693501
aF7.103982681422636
aF0.974508098027011
aF0.005953306351671017
aF-0.002638877884789254
aF0.0029905768338697163
aF0.009999916870992389
aF0.005241959689452565
aF0.09877339988091455
aF0.002155849198004667
aF115.64546826693501
aF7.103982681422636
aF28.6324529705189
aF1.8665861784901692
aI0
aF9.772002568686718
aI19
aa(lp36
g27
ag28
aS'2589'
p37
aF0.10038412471961992
aF0.0023397136629951716
aF3.5768454055815964
aF0.6047469196438255
aF93.54431824875707
aF5.350311410827828
aF0.01476613169837876
aF0.003886700380895697
aF0.0079952177232563
aF0.004012830185006826
aF0.00999986676240652
aF0.005162975132381869
aF0.10038412471961992
aF0.0023397136629951716
aF93.54431824875707
aF5.350311410827828
aF23.538153189594404
aF1.4537675823392577
aI0
aF11.122245868322716
aI19
aa(lp38
g27
ag28
aS'sum'
p39
aF0.00010952444044927471
aF11.277128668983979
aF0.2692900741557313
aF0.0015153109499936915
aF0.2200000000000094
aF0.1828274180601299
aF0.8823132165323568
aF0.04141154375782867
aF0.0
aF0.07137742529753857
aF1.6653345369377347e-18
aF0.0003405487184455555
aF0.00010952444044927471
aF11.277128668983979
aF0.2200000000000094
aF0.1828274180601299
aF6.039815302252665e-05
aF6.218865307434783
aI0
aF0.04840000000000414
aI19
aa(lp40
S'10'
p41
ag28
aS'644'
p42
aF0.10824210178966193
aF0.0013258802794094344
aF0.46127129596620464
aF0.28703784350505224
aF94.49078638141866
aF0.7621527137701705
aF0.9726403259177049
aF0.03986520159742757
aF-0.0010597525532084916
aF0.0006196965123144148
aF0.00999603716461392
aF0.006493798049499847
aF0.10824210178966193
aF0.0013258802794094344
aF94.49078638141866
aF0.7621527137701705
aF25.637496500473674
aF0.3760084856286659
aI0
aF8.530229849161147
aI13
aa(lp43
S'10'
p44
ag28
aS'1215'
p45
aF0.1123991601489321
aF0.001040873662351414
aF0.10000033814307036
aF0.4567595853004234
aF97.68869910229844
aF0.6660979747369993
aF0.9929405821877726
aF0.0014548915523194261
aF0.0004502757964177754
aF0.0005943640458682302
aF0.00997119027853213
aF0.00728511860956513
aF0.1123991601489321
aF0.001040873662351414
aF97.68869910229844
aF0.6660979747369993
aF27.52309863996218
aF0.3165157120539342
aI0
aF20.015994029302316
aI13
aa(lp46
S'10'
p47
ag28
aS'2269'
p48
aF0.11359609701016563
aF0.0009484295589768067
aF0.10000006044019526
aF0.5780210839189233
aF95.88172657378675
aF0.7217522741120135
aF0.992012686485995
aF0.0013699073967831654
aF-0.0005500643324634159
aF0.0006365824329466714
aF0.009992127375089664
aF0.006740467927601818
aF0.11359609701016563
aF0.0009484295589768067
aF95.88172657378675
aF0.7217522741120135
aF27.301668558214168
aF0.30691225856596277
aI0
aF12.830608560675199
aI13
aa(lp49
S'10'
p50
ag28
aS'2389'
p51
aF0.1143069695814551
aF0.0011520762363063648
aF0.10000010172837663
aF0.7229071355387748
aF95.60935393447222
aF0.7097319782337834
aF0.9915624904472425
aF0.0015430075863234194
aF-0.001355784480517817
aF0.0006690936963611817
aF0.009989710362135402
aF0.00819810998665266
aF0.1143069695814551
aF0.0011520762363063648
aF95.60935393447222
aF0.7097319782337834
aF27.394477970330072
aF0.3429091409393784
aI0
aF23.17316943307268
aI13
aa(lp52
S'10'
p53
ag28
aS'2589'
p54
aF0.11317263937906547
aF0.0010950733307397572
aF0.1000002396694388
aF0.5448361843742952
aF97.5195594270634
aF0.6979294745412545
aF0.9924964237565304
aF0.0014952523931319184
aF-0.001444452992094132
aF0.0006409295445230136
aF0.009944947599787002
aF0.007328891120466351
aF0.11317263937906547
aF0.0010950733307397572
aF97.5195594270634
aF0.6979294745412545
aF27.664518086022234
aF0.3329497150490081
aI0
aF17.510380865079902
aI13
aa(lp55
S'10'
p56
ag28
aS'sum'
p57
aF-0.0002578714906672515
aF646.818131496208
aF0.12600794221641745
aF0.021988656201729885
aF0.2200000000000094
aF0.221027570690737
aF0.99
aF0.04612487354196942
aF0.0
aF0.08629109946080467
aF0.0
aF0.00041168634126893095
aF-0.0002578714906672515
aF646.818131496208
aF0.2200000000000094
aF0.221027570690737
aF-0.00014220535334011697
aF356.69317572956913
aI0
aF0.04840000000000414
aI13
aa(lp58
S'2'
p59
aS'Y'
p60
aS'644'
p61
aF0.09244231143379426
aF0.00048556218493846475
aF0.3209881083516519
aF0.018297718239858818
aF107.7614148967219
aF0.8565247620177843
aF0.9834160478407443
aF0.002292230853369215
aF-0.0012415030516513886
aF0.0005745849654862313
aF0.009999955852078066
aF0.006795637200279793
aF0.09244231143379426
aF0.00048556218493846475
aF107.7614148967219
aF0.8565247620177843
aF24.97031466909244
aF0.23789508542911755
aI0
aF25.102145719945252
aI19
aa(lp62
g59
ag60
aS'1215'
p63
aF0.09244201560691107
aF0.0005961721551358564
aF3.66382912211098
aF0.5785800641022112
aF109.71384198856433
aF0.8788439173054812
aF0.012188810405698913
aF0.0025390986183599917
aF-7.734588944899713e-05
aF0.0005616655735627448
aF0.009983892730800626
aF0.007258311383811817
aF0.09244201560691107
aF0.0005961721551358564
aF109.71384198856433
aF0.8788439173054812
aF25.42264681295639
aF0.2614418091045138
aI0
aF27.98107081643682
aI19
aa(lp64
g59
ag60
aS'2269'
p65
aF0.0916806432971565
aF0.0005437108892687653
aF3.2478993537318286
aF0.3140374134374575
aF112.41627591094664
aF0.9278083176368241
aF0.01574149234032618
aF0.002945926049667452
aF-0.00027914490456040894
aF0.0005901184679238392
aF0.009999999998638178
aF0.009699522563835807
aF0.0916806432971565
aF0.0005437108892687653
aF112.41627591094664
aF0.9278083176368241
aF25.8343048578744
aF0.2625559744122728
aI0
aF29.397226502417787
aI19
aa(lp66
g59
ag60
aS'2389'
p67
aF0.0908191727777128
aF0.0005785977637820685
aF0.3902369186627881
aF0.037408414837982074
aF112.26615955196968
aF0.9584017795266746
aF0.9710288415961269
aF0.0073814170215911745
aF0.00045906291207836774
aF0.0005865601080729283
aF0.00999999994410675
aF0.005942103468679568
aF0.0908191727777128
aF0.0005785977637820685
aF112.26615955196968
aF0.9584017795266746
aF25.55738070976342
aF0.2722385903614311
aI0
aF31.558060388965277
aI19
aa(lp68
g59
ag60
aS'2589'
p69
aF0.0918814591069748
aF0.0005617049702912611
aF0.34967588411124545
aF0.03548240943694403
aF112.6830624400992
aF0.9504042839368196
aF0.9807994043147017
aF0.004538771473483083
aF-7.744161174320438e-05
aF0.0005974337910388579
aF0.009999999259062699
aF0.009889103484610497
aF0.0918814591069748
aF0.0005617049702912611
aF112.6830624400992
aF0.9504042839368196
aF25.952336220719815
aF0.270341746958854
aI0
aF28.7543488167007
aI19
aa(lp70
g59
ag60
aS'sum'
p71
aF0.00010952444044927471
aF11.277128668983979
aF0.2692900741557313
aF0.0015153109499936915
aF0.2200000000000094
aF0.1828274180601299
aF0.8823132165323568
aF0.04141154375782867
aF0.0
aF0.07137742529753857
aF1.6653345369377347e-18
aF0.0003405487184455555
aF0.00010952444044927471
aF11.277128668983979
aF0.2200000000000094
aF0.1828274180601299
aF6.039815302252665e-05
aF6.218865307434783
aI0
aF0.04840000000000414
aI19
aa(lp72
S'3'
p73
ag60
aS'644'
p74
aF0.09324559594477419
aF0.0009208599269550821
aF0.3159300711677494
aF0.031930343220162305
aF107.83543489733354
aF0.9062978761020872
aF0.9834814739108992
aF0.003751126291870799
aF3.1309854313423696e-05
aF0.0011111812628670815
aF0.009999997207926763
aF0.0005911603435438473
aF0.09324559594477419
aF0.0009208599269550821
aF107.83543489733354
aF0.9062978761020872
aF25.20459696788171
aF0.3268474549663812
aI0
aF12.672583032850985
aI19
aa(lp75
g73
ag60
aS'1215'
p76
aF0.09493036676977692
aF0.001992625119664806
aF7.506230108376603
aF3.436531167306973
aF109.46249348864585
aF0.8817001003224121
aF0.005786644096315019
aF0.0010523030448151283
aF-0.0008788300929319267
aF0.0011379589774303104
aF0.009999776443538989
aF0.005347481858826752
aF0.09493036676977692
aF0.001992625119664806
aF109.46249348864585
aF0.8817001003224121
aF26.04716312333525
aF0.5856132070088316
aI0
aF9.451220060894348
aI19
aa(lp77
g73
ag60
aS'2269'
p78
aF0.09263223623823506
aF0.0014172127659985445
aF0.22130034463785356
aF0.06974617503422557
aF112.03606575490979
aF0.9880972225857434
aF0.9875211989897739
aF0.00340795655368481
aF-1.2166896598501027e-05
aF0.001149078483486726
aF0.009997812804422435
aF0.009661563701418869
aF0.09263223623823506
aF0.0014172127659985445
aF112.03606575490979
aF0.9880972225857434
aF26.014167512574257
aF0.4593934398697875
aI0
aF11.24813025900854
aI19
aa(lp79
g73
ag60
aS'2389'
p80
aF0.09427622043854607
aF0.0010444809289934104
aF3.5735877208418074
aF0.5787844178691344
aF109.64226258344533
aF0.937780179550856
aF0.013202219270593174
aF0.003453853220073938
aF0.001968565611395765
aF0.0012290475827829866
aF0.009999999999999423
aF0.00614979898782609
aF0.09427622043854607
aF0.0010444809289934104
aF109.64226258344533
aF0.937780179550856
aF25.91015950050884
aF0.3626481540148409
aI0
aF10.882942713543027
aI19
aa(lp81
g73
ag60
aS'2589'
p82
aF0.09389025679452782
aF0.0015772148093565672
aF5.601101524021171
aF2.268334809389824
aF114.07445368118702
aF0.9779441309446639
aF0.007568133701863045
aF0.0019439726786745215
aF0.0019039858524757777
aF0.0011984763298941849
aF0.00999996568980656
aF0.005376378022927861
aF0.09389025679452782
aF0.0015772148093565672
aF114.07445368118702
aF0.9779441309446639
aF26.847191375766887
aF0.5063264011699835
aI0
aF18.28476369777497
aI19
aa(lp83
g73
ag60
aS'sum'
p84
aF0.00010952444044927471
aF11.277128668983979
aF0.2692900741557313
aF0.0015153109499936915
aF0.2200000000000094
aF0.1828274180601299
aF0.8823132165323568
aF0.04141154375782867
aF0.0
aF0.07137742529753857
aF1.6653345369377347e-18
aF0.0003405487184455555
aF0.00010952444044927471
aF11.277128668983979
aF0.2200000000000094
aF0.1828274180601299
aF6.039815302252665e-05
aF6.218865307434783
aI0
aF0.04840000000000414
aI19
aa(lp85
S'4'
p86
ag28
aS'644'
p87
aF0.1035870664606685
aF0.0005170375412882171
aF0.41083946660689385
aF0.03378342237919946
aF102.17426088640653
aF0.7834709742924133
aF0.971996514765104
aF0.006329910171365916
aF0.004417760922861215
aF0.0005131429839521309
aF0.009999991407531326
aF0.009492317837294702
aF0.1035870664606685
aF0.0005170375412882171
aF102.17426088640653
aF0.7834709742924133
aF26.529983090185052
aF0.24273331089927389
aI0
aF21.99733943773996
aI19
aa(lp88
g86
ag28
aS'1215'
p89
aF0.10297289242393926
aF0.0006605089711202469
aF0.275125653909179
aF0.05232105740610295
aF105.03296482532909
aF0.7423974543612601
aF0.9871005802073214
aF0.0028923908733119452
aF0.004742835991237579
aF0.0004573560902886066
aF0.009996657569221037
aF0.0014661072058243206
aF0.10297289242393926
aF0.0006605089711202469
aF105.03296482532909
aF0.7423974543612601
aF27.11055889348941
aF0.2587665562319379
aI0
aF19.215901366124463
aI19
aa(lp90
g86
ag28
aS'2269'
p91
aF0.10173812648489268
aF0.000553634743233033
aF2.969738668387902
aF0.348055224409453
aF106.48118755404624
aF0.8195861897957215
aF0.01814797035289112
aF0.0038048221961164974
aF0.003536432245732499
aF0.0005294145388518895
aF0.009999749520009718
aF0.005639370894573696
aF0.10173812648489268
aF0.000553634743233033
aF106.48118755404624
aF0.8195861897957215
aF27.154796720804605
aF0.2559714633160957
aI0
aF21.12824182976672
aI19
aa(lp92
g86
ag28
aS'2389'
p93
aF0.10179567610715212
aF0.00046189703964338115
aF0.41783541316660844
aF0.018383751989044628
aF107.05397043108802
aF0.811330758814762
aF0.9685360137037957
aF0.004531795904290092
aF0.0030905742746082103
aF0.0005228063884843639
aF0.00999992026069833
aF0.005370766367694612
aF0.10179567610715212
aF0.00046189703964338115
aF107.05397043108802
aF0.811330758814762
aF27.316310743052895
aF0.24129077732367152
aI0
aF15.83310259375607
aI19
aa(lp94
g86
ag28
aS'2589'
p95
aF0.1028243399774399
aF0.0004954660157216935
aF0.3186690740784475
aF0.02943038678442611
aF106.17547609117052
aF0.8047023797229969
aF0.9849043673196289
aF0.0026936354007812136
aF0.004243485602672843
aF0.0005217464389997811
aF0.009999997149365121
aF0.0007646989712473606
aF0.1028243399774399
aF0.0004954660157216935
aF106.17547609117052
aF0.8047023797229969
aF27.36592180673225
aF0.2457752486169223
aI0
aF11.80076090352871
aI19
aa(lp96
g86
ag28
aS'sum'
p97
aF0.00010952444044927471
aF11.277128668983979
aF0.2692900741557313
aF0.0015153109499936915
aF0.2200000000000094
aF0.1828274180601299
aF0.8823132165323568
aF0.04141154375782867
aF0.0
aF0.07137742529753857
aF1.6653345369377347e-18
aF0.0003405487184455555
aF0.00010952444044927471
aF11.277128668983979
aF0.2200000000000094
aF0.1828274180601299
aF6.039815302252665e-05
aF6.218865307434783
aI0
aF0.04840000000000414
aI19
aa(lp98
S'5'
p99
ag60
aS'644'
p100
aF0.09784561031734114
aF0.00042892542705734503
aF2.3410623860131214
aF0.14220114082348556
aF98.52163452978208
aF0.6070308296246978
aF0.032630035239855526
aF0.006358242729179675
aF0.00045184694908281044
aF0.00045583616378165674
aF0.009999994623166912
aF0.009999807317455367
aF0.09784561031734114
aF0.00042892542705734503
aF98.52163452978208
aF0.6070308296246978
aF24.163669617390443
aF0.1827188822500374
aI0
aF33.759691401930034
aI19
aa(lp101
g99
ag60
aS'1215'
p102
aF0.09838890416828149
aF0.00046130768642195
aF3.424901090570247
aF0.3907142171088933
aF99.36074453021725
aF0.5820367901285763
aF0.01341577418774631
aF0.0023506389938671712
aF4.717097257641458e-05
aF0.0004463310640787257
aF0.009999971864296183
aF0.009892029029359872
aF0.09838890416828149
aF0.00046130768642195
aF99.36074453021725
aF0.5820367901285763
aF24.504784907319475
aF0.18386281321949463
aI0
aF23.541475824217972
aI19
aa(lp103
g99
ag60
aS'2269'
p104
aF0.09930450272002796
aF0.0011107841817733187
aF4.395672071868274
aF1.2947500378533665
aF99.15744492510944
aF0.6333747717442293
aF0.012324560984210198
aF0.0028114137486437707
aF0.0007168802736582777
aF0.00047082379988380534
aF0.00952548598239485
aF0.0013910889228620788
aF0.09930450272002796
aF0.0011107841817733187
aF99.15744492510944
aF0.6333747717442293
aF24.68221906529512
aF0.31793102532150375
aI0
aF31.514936809263684
aI19
aa(lp105
g99
ag60
aS'2389'
p106
aF0.09924902706043728
aF0.0004984585218521753
aF3.200794668870421
aF0.31146322319014796
aF98.47991263639659
aF0.6104748733544199
aF0.01898314423629638
aF0.0030177814727000984
aF0.001153060574762628
aF0.00047561024450546363
aF0.009999889077562123
aF0.009753997589647904
aF0.09924902706043728
aF0.0004984585218521753
aF98.47991263639659
aF0.6104748733544199
aF24.49987377703906
aF0.19546362089350386
aI0
aF37.69064449422098
aI19
aa(lp107
g99
ag60
aS'2589'
p108
aF0.09763680060951639
aF0.0004220435275775097
aF2.8896814103322277
aF0.16715123252166064
aF100.61907986799635
aF0.6244780871013234
aF0.022334003719944484
aF0.003179529856410429
aF0.00014584278842503788
aF0.00047164814151864383
aF0.009999672291419275
aF0.009882118193303877
aF0.09763680060951639
aF0.0004220435275775097
aF100.61907986799635
aF0.6244780871013234
aF24.625429595226436
aF0.1862497309021439
aI0
aF20.708305021256663
aI19
aa(lp109
g99
ag60
aS'sum'
p110
aF0.00010952444044927471
aF11.277128668983979
aF0.2692900741557313
aF0.0015153109499936915
aF0.2200000000000094
aF0.1828274180601299
aF0.8823132165323568
aF0.04141154375782867
aF0.0
aF0.07137742529753857
aF1.6653345369377347e-18
aF0.0003405487184455555
aF0.00010952444044927471
aF11.277128668983979
aF0.2200000000000094
aF0.1828274180601299
aF6.039815302252665e-05
aF6.218865307434783
aI0
aF0.04840000000000414
aI19
aa(lp111
S'6'
p112
ag28
aS'644'
p113
aF0.10933447317951896
aF0.0008115274620615989
aF3.8595311121766143
aF0.9374067737555107
aF96.55115133476868
aF0.5682975654276206
aF0.01132003533355519
aF0.0028866752941457685
aF0.0034895130202648988
aF0.0004906380611880297
aF1.7562620947431106e-07
aF0.0008906183981406516
aF0.10933447317951896
aF0.0008115274620615989
aF96.55115133476868
aF0.5682975654276206
aF26.46089367975907
aF0.25066324460248324
aI0
aF17.63196157406259
aI19
aa(lp114
g112
ag28
aS'1215'
p115
aF0.10834963381839612
aF0.0015764538464780736
aF4.455923075898595
aF1.9848869436557237
aF99.20553334891287
aF0.5736141680965119
aF0.010761451854552628
aF0.003657652287129415
aF0.003994694948646611
aF0.0004675490814998652
aF0.009803817914726525
aF0.007264717798080085
aF0.10834963381839612
aF0.0015764538464780736
aF99.20553334891287
aF0.5736141680965119
aF26.94345457768329
aF0.42184018596940764
aI0
aF23.278152002669806
aI19
aa(lp116
g112
ag28
aS'2269'
p117
aF0.11321144970951333
aF0.00045354490589264666
aF9.999998769833525
aF9.360698170165065
aF98.36565600649112
aF0.5287319948285827
aF0.008594633376528993
aF0.00042043572953967545
aF0.0016553541717925133
aF0.0004968413342244021
aF0.009999364639676418
aF0.00501408890477878
aF0.11321144970951333
aF0.00045354490589264666
aF98.36565600649112
aF0.5287319948285827
aF27.914109547166873
aF0.18713257305899664
aI0
aF18.679735164576783
aI19
aa(lp118
g112
ag28
aS'2389'
p119
aF0.10893241351466099
aF0.0006310956082095629
aF2.783389407960952
aF0.43605844667832816
aF98.02135640692644
aF0.6045915038259011
aF0.02059019667470896
aF0.006079428916253654
aF0.0024250475521575116
aF0.0005014221874079116
aF0.009999919150039406
aF0.006246097330880977
aF0.10893241351466099
aF0.0006310956082095629
aF98.02135640692644
aF0.6045915038259011
aF26.765032070912405
aF0.22648954487945422
aI0
aF27.295286510924136
aI19
aa(lp120
g112
ag28
aS'2589'
p121
aF0.11323612320506422
aF0.00046303191856528924
aF9.99999985454511
aF9.047002484956643
aF99.09020799841538
aF0.5612466418342166
aF0.007789529886654101
aF0.00035039755387936133
aF0.0025703176144004714
aF0.0005077064671414654
aF0.009998752640994944
aF0.009883057881937527
aF0.11323612320506422
aF0.00046303191856528924
aF99.09020799841538
aF0.5612466418342166
aF28.125850661988917
aF0.19648169065632262
aI0
aF15.090769945999751
aI19
aa(lp122
g112
ag28
aS'sum'
p123
aF0.00010952444044927471
aF11.277128668983979
aF0.2692900741557313
aF0.0015153109499936915
aF0.2200000000000094
aF0.1828274180601299
aF0.8823132165323568
aF0.04141154375782867
aF0.0
aF0.07137742529753857
aF1.6653345369377347e-18
aF0.0003405487184455555
aF0.00010952444044927471
aF11.277128668983979
aF0.2200000000000094
aF0.1828274180601299
aF6.039815302252665e-05
aF6.218865307434783
aI0
aF0.04840000000000414
aI19
aa(lp124
S'7'
p125
ag60
aS'644'
p126
aF0.10699201045597638
aF0.0008739483521857672
aF0.10000069876498219
aF0.5600031617804307
aF95.89438814806513
aF0.7303661823173258
aF0.9883173861892156
aF0.0012248369914523716
aF0.0019049840845028264
aF0.0006028054374754649
aF0.00999908499236687
aF0.009764687022855982
aF0.10699201045597638
aF0.0008739483521857672
aF95.89438814806513
aF0.7303661823173258
aF25.717839104652583
aF0.28722452116165353
aI0
aF11.679799101938313
aI13
aa(lp127
g125
ag60
aS'1215'
p128
aF0.09838628092719447
aF0.0017021956952559406
aF0.3271231287842956
aF0.21970562806871985
aF98.28197608274803
aF0.8030655870451611
aF0.9837220673524656
aF0.013709452259851596
aF0.0022020570864840264
aF0.0005706693981623865
aF0.009979656358663111
aF0.009848046572632569
aF0.09838628092719447
aF0.0017021956952559406
aF98.28197608274803
aF0.8030655870451611
aF24.23808802423021
aF0.46376247453853536
aI0
aF9.379584795245965
aI13
aa(lp129
g125
ag60
aS'2269'
p130
aF0.09763843621450133
aF0.0007021966826716548
aF0.5348382721319582
aF0.09092315888644803
aF98.15822136056434
aF0.8624873083586593
aF0.9469954405109295
aF0.036252501340522325
aF0.0005327038761665503
aF0.0005732292295592524
aF1.3022466577394809e-06
aF0.008670201781197068
aF0.09763843621450133
aF0.0007021966826716548
aF98.15822136056434
aF0.8624873083586593
aF24.023563573152785
aF0.2727793420204561
aI0
aF11.826589406504553
aI13
aa(lp131
g125
ag60
aS'2389'
p132
aF0.09797576858614881
aF0.0007157370858459906
aF0.5137647663826904
aF0.06698779116897324
aF97.61663268934231
aF0.8416615827656031
aF0.9319527653961817
aF0.03269427957824966
aF0.0013925288299308266
aF0.0006068899358922781
aF6.889315069980029e-08
aF0.009801545286633925
aF0.09797576858614881
aF0.0007157370858459906
aF97.61663268934231
aF0.8416615827656031
aF23.973554783178965
aF0.2709196695784148
aI0
aF10.292562971788172
aI13
aa(lp133
g125
ag60
aS'2589'
p134
aF0.10489447453762735
aF0.0007736434429801895
aF0.10000247301751893
aF0.6667022726773117
aF98.70920647482043
aF0.7643168188848719
aF0.989880485238452
aF0.0009976360031138665
aF0.0018372740433361616
aF0.0006025528952503804
aF3.777935779288866e-06
aF0.008604532605059941
aF0.10489447453762735
aF0.0007736434429801895
aF98.70920647482043
aF0.7643168188848719
aF25.953755352237334
aF0.2775390209964694
aI0
aF18.933670653416193
aI13
aa(lp135
g125
ag60
aS'sum'
p136
aF-0.0002578714906672515
aF646.818131496208
aF0.12600794221641745
aF0.021988656201729885
aF0.2200000000000094
aF0.221027570690737
aF0.99
aF0.04612487354196942
aF0.0
aF0.08629109946080467
aF0.0
aF0.00041168634126893095
aF-0.0002578714906672515
aF646.818131496208
aF0.2200000000000094
aF0.221027570690737
aF-0.00014220535334011697
aF356.69317572956913
aI0
aF0.04840000000000414
aI13
aa(lp137
S'8'
p138
ag28
aS'644'
p139
aF0.1151292456376674
aF0.0018736335915328472
aF0.10001813977907768
aF6.732605456623144
aF96.07536591317297
aF0.6452584394765566
aF0.9912412376233986
aF0.0013270192362261346
aF-0.0005245888119635604
aF0.0006014091364367471
aF0.009999351620723138
aF0.006525116841632604
aF0.1151292456376674
aF0.0018736335915328472
aF96.07536591317297
aF0.6452584394765566
aF27.726026909998943
aF0.488132222269244
aI0
aF10.797100384680734
aI13
aa(lp140
g138
ag28
aS'1215'
p141
aF0.11637900847984269
aF0.001310327259893471
aF0.10000012420554966
aF0.5305774245802032
aF98.74782392248744
aF0.6613392536313469
aF0.9875385887307102
aF0.0017829892044082807
aF0.0010800104966614094
aF0.0006113395768052119
aF0.00999736506525191
aF0.007362772718306839
aF0.11637900847984269
aF0.001310327259893471
aF98.74782392248744
aF0.6613392536313469
aF28.806607878406027
aF0.377379083914473
aI0
aF13.908944555617714
aI13
aa(lp142
g138
ag28
aS'2269'
p143
aF0.10881143701050938
aF0.001576937647569643
aF0.420160790877777
aF0.3302184741635424
aF97.27198186228797
aF0.7351614453442679
aF0.9797020689991547
aF0.029426042675211705
aF-0.0004222238350255466
aF0.0006282143828917054
aF0.009996532325537322
aF0.0065458030719161946
aF0.10881143701050938
aF0.001576937647569643
aF97.27198186228797
aF0.7351614453442679
aF26.530915992773142
aF0.4336401386469323
aI0
aF14.340431159276859
aI13
aa(lp144
g138
ag28
aS'2389'
p145
aF0.1153198278216816
aF0.0010816306232403893
aF0.100000663082274
aF0.5124474364745777
aF96.72752822987178
aF0.6674782231234957
aF0.9914520792961803
aF0.0015211521947456896
aF-0.0002276639443685908
aF0.0006078535302768627
aF0.00994308763035672
aF0.007110485450498949
aF0.1153198278216816
aF0.0010816306232403893
aF96.72752822987178
aF0.6674782231234957
aF27.960440517514023
aF0.32558180947672516
aI0
aF9.849677719032444
aI13
aa(lp146
g138
ag28
aS'2589'
p147
aF0.11470215494840609
aF0.0010069834905662926
aF0.1000000549370656
aF0.43123239358187454
aF97.91818919452643
aF0.7069510197798934
aF0.9902460213632239
aF0.0014290060377528668
aF0.00022845454283954098
aF0.0006330795565640763
aF0.009995186963218697
aF0.006771260222513606
aF0.11470215494840609
aF0.0010069834905662926
aF97.91818919452643
aF0.7069510197798934
aF28.153013257848663
aF0.3200027742464855
aI0
aF11.02826729525889
aI13
aa(lp148
g138
ag28
aS'sum'
p149
aF-0.0002578714906672515
aF646.818131496208
aF0.12600794221641745
aF0.021988656201729885
aF0.2200000000000094
aF0.221027570690737
aF0.99
aF0.04612487354196942
aF0.0
aF0.08629109946080467
aF0.0
aF0.00041168634126893095
aF-0.0002578714906672515
aF646.818131496208
aF0.2200000000000094
aF0.221027570690737
aF-0.00014220535334011697
aF356.69317572956913
aI0
aF0.04840000000000414
aI13
aa(lp150
S'9'
p151
ag60
aS'644'
p152
aF0.10050242099372028
aF0.0018220040365050426
aF0.34109125433176496
aF0.1956571511778431
aF96.03469088090154
aF0.7788976820644464
aF0.9785472007979412
aF0.016422051158249906
aF0.0035379489473453987
aF0.0005796828983526488
aF0.008250881011148183
aF0.005782846737000403
aF0.10050242099372028
aF0.0018220040365050426
aF96.03469088090154
aF0.7788976820644464
aF24.193271576033972
aF0.48049121682780566
aI0
aF14.406925370243336
aI13
aa(lp153
g151
ag60
aS'1215'
p154
aF0.10434345921719301
aF0.0012416785215493035
aF0.10000000091289511
aF8.218569878800974
aF99.97545747399427
aF0.7376736501227512
aF0.9887037503009529
aF0.0014223914724887932
aF0.0027679244945304268
aF0.0005630314721982793
aF0.009866430695719108
aF0.00505674485977243
aF0.10434345921719301
aF0.0012416785215493035
aF99.97545747399427
aF0.7376736501227512
aF26.1486074104781
aF0.3661281191827781
aI0
aF10.359128451597828
aI13
aa(lp155
g151
ag60
aS'2269'
p156
aF0.0988376037715398
aF0.0008276477284433042
aF0.4592312555177148
aF0.11791282407547432
aF97.21659476324899
aF0.8177053381524502
aF0.9643596895484519
aF0.02416354748861882
aF0.0036559750121896244
aF0.0006060986195155039
aF3.262503761591873e-10
aF0.005970203506136811
aF0.0988376037715398
aF0.0008276477284433042
aF97.21659476324899
aF0.8177053381524502
aF24.085326989056455
aF0.2858640679750949
aI0
aF13.903903491481024
aI13
aa(lp157
g151
ag60
aS'2389'
p158
aF0.1040464912813888
aF0.016353923609546846
aF0.1630688807449884
aF0.4859052343267933
aF95.85134062332294
aF0.7858701936371659
aF0.9840245862291115
aF0.010657151439983137
aF0.00324686867112172
aF0.0005922039992407733
aF0.009998276879005176
aF0.009418865905993643
aF0.1040464912813888
aF0.016353923609546846
aF95.85134062332294
aF0.7858701936371659
aF24.998592945422445
aF3.934595844844004
aI0
aF12.44476904616221
aI13
aa(lp159
g151
ag60
aS'2589'
p160
aF0.0980778724536817
aF0.0007158008361919209
aF0.47820930333615363
aF0.11392819870801368
aF97.84374262722841
aF0.8152584171091775
aF0.9649594240241246
aF0.024379362670292615
aF0.0032095141574216613
aF0.0005909419161764299
aF3.792909314106474e-06
aF0.008790817062473793
aF0.0980778724536817
aF0.0007158008361919209
aF97.84374262722841
aF0.8152584171091775
aF24.054372226799213
aF0.26644104281746334
aI0
aF9.72658810044301
aI13
aa(lp161
g151
ag60
aS'sum'
p162
aF-0.0002578714906672515
aF646.818131496208
aF0.12600794221641745
aF0.021988656201729885
aF0.2200000000000094
aF0.221027570690737
aF0.99
aF0.04612487354196942
aF0.0
aF0.08629109946080467
aF0.0
aF0.00041168634126893095
aF-0.0002578714906672515
aF646.818131496208
aF0.2200000000000094
aF0.221027570690737
aF-0.00014220535334011697
aF356.69317572956913
aI0
aF0.04840000000000414
aI13
aa.