(lp0
(lp1
S'Scan'
p2
aS'Type'
p3
aS'BCID'
p4
aS'sigma'
p5
aS'sigmaErr'
p6
aS'sigmaRatio'
p7
aS'sigmaRatio_Err'
p8
aS'Amp'
p9
aS'AmpErr'
p10
aS'Frac'
p11
aS'FracErr'
p12
aS'Mean'
p13
aS'MeanErr'
p14
aS'Const'
p15
aS'ConstErr'
p16
aS'CapSigma'
p17
aS'CapSigmaErr'
p18
aS'peak'
p19
aS'peakErr'
p20
aS'area'
p21
aS'areaErr'
p22
aS'fitStatus'
p23
aS'chi2'
p24
aS'ndof'
p25
aa(lp26
S'1'
p27
aS'Y'
p28
aS'644'
p29
aF0.09001652041418506
aF0.0005224442183772598
aF0.7512965639834135
aF0.026504107975802937
aF0.3287907948171654
aF0.0026395914330711034
aF0.7936648509772442
aF0.1204980770841047
aF-0.0010000774879625938
aF0.0005132778521863494
aF4.985711843374929e-11
aF0.0006536413121982776
aF0.09001652041418506
aF0.0005224442183772598
aF0.3287907948171654
aF0.0026395914330711034
aF0.07418768264891387
aF0.0007349321575554419
aI0
aF13.82536681868828
aI18
aa(lp30
g27
ag28
aS'1215'
p31
aF0.08900638583494518
aF0.0005244428492293067
aF0.7367223457138021
aF0.04626914378093239
aF0.3371754440161376
aF0.0026620425954537175
aF0.8210747787185105
aF0.1353519149798067
aF-0.0012702286120356001
aF0.0005012638937625444
aF9.01129265881706e-05
aF7.243903946937968e-05
aF0.08900638583494518
aF0.0005244428492293067
aF0.3371754440161376
aF0.0026620425954537175
aF0.0752258387703885
aF0.0007410831730019901
aI0
aF22.966667491541063
aI18
aa(lp32
g27
ag28
aS'2269'
p33
aF0.08897174689697931
aF0.0004958753631105445
aF0.692128054861603
aF0.026203315502094704
aF0.3401504170419424
aF0.002719875589073051
aF0.8734236307505072
aF0.05214960618666287
aF-0.0003139117672955432
aF0.0005246420751680209
aF5.551115123125783e-17
aF0.00018433282738397616
aF0.08897174689697931
aF0.0004958753631105445
aF0.3401504170419424
aF0.002719875589073051
aF0.07586003865397509
aF0.0007393936624188009
aI0
aF23.707148601393875
aI19
aa(lp34
g27
ag28
aS'2389'
p35
aF0.08829774580421038
aF0.0005543166402107024
aF0.7234387201048416
aF0.0329255375876234
aF0.3409511949833853
aF0.0028348764726103537
aF0.7856404629412288
aF0.1258684642564047
aF-0.0002839363398520478
aF0.0005176576473339515
aF0.00012600668014961514
aF7.95475671227508e-05
aF0.08829774580421038
aF0.0005543166402107024
aF0.3409511949833853
aF0.0028348764726103537
aF0.075462600544599
aF0.0007862017877463905
aI0
aF17.013496804455166
aI19
aa(lp36
g27
ag28
aS'2589'
p37
aF0.08860979108552132
aF0.0005930909729262281
aF0.7777300885629281
aF0.029067913287749714
aF0.34541560944405353
aF0.003019285027388463
aF0.5324555524402735
aF0.2639464592940983
aF0.0003568527759411406
aF0.0005210343318518567
aF4.9764946639219154e-05
aF5.348182281861291e-05
aF0.08860979108552132
aF0.0005930909729262281
aF0.34541560944405353
aF0.003019285027388463
aF0.07672088543665348
aF0.0008446463130039792
aI0
aF10.596368860584082
aI18
aa(lp38
g27
ag28
aS'sum'
p39
aF-0.00016155893120905077
aF4.828556722510408e-07
aF1.0226330659201779
aF3.438492235717879e-07
aF0.22000904769566582
aF1.2830209485169e-06
aF0.3239042809956527
aF2.2426526427099044e-07
aF0.0009766947887754711
aF4.828828215692565e-07
aF2.9755947023035745e-07
aF2.42672448249264e-07
aF-0.00016155893120905077
aF4.828556722510408e-07
aF0.22000904769566582
aF1.2830209485169e-06
aF-8.909666472620182e-05
aF2.6628618743403744e-07
aI0
aF2.2151774281763925e-12
aI19
aa(lp40
S'2'
p41
aS'X'
p42
aS'644'
p43
aF0.10115470258423176
aF0.00046327548851941673
aF0.7440534889420818
aF0.019969044636239164
aF0.31328883522039763
aF0.0023186726957604153
aF0.8019911562731403
aF0.0842891181150261
aF0.004426527494868623
aF0.00047492536314856575
aF1.4494516697993731e-12
aF7.853713396852036e-05
aF0.10115470258423176
aF0.00046327548851941673
aF0.31328883522039763
aF0.0023186726957604153
aF0.07943665163238964
aF0.0006913775718668793
aI0
aF29.27657425586494
aI19
aa(lp44
g41
ag42
aS'1215'
p45
aF0.09995476872733383
aF0.000418679500789726
aF1.4746403173381661
aF0.09951479439640731
aF0.3255418474917259
aF0.0022697510370850715
aF0.054220813669302814
aF0.030672818126681017
aF0.0048628805189306415
aF0.0004566433891057988
aF4.704625578000332e-12
aF5.931158297353689e-05
aF0.09995476872733383
aF0.000418679500789726
aF0.3255418474917259
aF0.0022697510370850715
aF0.08156433067049662
aF0.0006634196340910247
aI0
aF28.10024875609615
aI18
aa(lp46
g41
ag42
aS'2269'
p47
aF0.09922066108393193
aF0.00045367415541528654
aF0.6897389399253696
aF0.029531535040999757
aF0.32880704041337594
aF0.002447663275347456
aF0.9017167741071659
aF0.0409800953888268
aF0.003450191626432156
aF0.0004795605012690158
aF5.6087912092550596e-12
aF0.00017440196801143948
aF0.09922066108393193
aF0.00045367415541528654
aF0.32880704041337594
aF0.002447663275347456
aF0.08177737362416981
aF0.0007144217978580921
aI0
aF22.387480560785118
aI19
aa(lp48
g41
ag42
aS'2389'
p49
aF0.09924714542879746
aF0.0004646223694761323
aF0.7165923088913407
aF0.014493278287903033
aF0.3291155235494411
aF0.0024677614297705097
aF0.8083242780298403
aF0.053843793422685915
aF0.0039347364394729635
aF0.0004729716339487649
aF5.551115123125783e-17
aF2.0092731562365573e-05
aF0.09924714542879746
aF0.0004646223694761323
aF0.3291155235494411
aF0.0024677614297705097
aF0.08187594505079411
aF0.0007237508229568531
aI0
aF22.00535804738316
aI19
aa(lp50
g41
ag42
aS'2589'
p51
aF0.09964160751729782
aF0.0004575787415105462
aF0.8151704943162632
aF0.01913766822265245
aF0.32808952559305044
aF0.002457848107035615
aF0.7297140344948785
aF0.15486815503640705
aF0.0037199785286176636
aF0.0004776360027390927
aF2.8160807019617096e-13
aF5.957128101335973e-06
aF0.09964160751729782
aF0.0004575787415105462
aF0.32808952559305044
aF0.002457848107035615
aF0.08194510671263953
aF0.000720043934346578
aI0
aF33.33699248933021
aI18
aa(lp52
g41
ag42
aS'sum'
p53
aF-0.00016155893120905077
aF4.828556722510408e-07
aF1.0226330659201779
aF3.438492235717879e-07
aF0.22000904769566582
aF1.2830209485169e-06
aF0.3239042809956527
aF2.2426526427099044e-07
aF0.0009766947887754711
aF4.828828215692565e-07
aF2.9755947023035745e-07
aF2.42672448249264e-07
aF-0.00016155893120905077
aF4.828556722510408e-07
aF0.22000904769566582
aF1.2830209485169e-06
aF-8.909666472620182e-05
aF2.6628618743403744e-07
aI0
aF2.2151774281763925e-12
aI19
aa(lp54
S'3'
p55
ag28
aS'644'
p56
aF0.09657800921571448
aF0.0003736684945124238
aF0.6587425130908853
aF0.035561431912289554
aF0.2957031193856647
aF0.0017049505591977543
aF0.9371732574715018
aF0.02720159420118906
aF0.0004439234128830878
aF0.0004086217576045305
aF4.451994328746878e-14
aF6.254714192707733e-05
aF0.09657800921571448
aF0.0003736684945124238
aF0.2957031193856647
aF0.0017049505591977543
aF0.07158533951429652
aF0.0004970605814993283
aI0
aF35.90988142464695
aI18
aa(lp57
g55
ag28
aS'1215'
p58
aF0.09585827267489969
aF0.00038020646575556
aF0.8048295190825052
aF0.045377951119213
aF0.3017815192577497
aF0.0017208150702155978
aF0.8515500852573921
aF0.138711674021732
aF0.00047837004603134024
aF0.0003964355240382866
aF2.697564394082974e-12
aF2.0467618041891678e-05
aF0.09585827267489969
aF0.00038020646575556
aF0.3017815192577497
aF0.0017208150702155978
aF0.0725123823229416
aF0.0005036704141170739
aI0
aF31.111298574211325
aI19
aa(lp59
g55
ag28
aS'2269'
p60
aF0.095555829982366
aF0.0004238603734688168
aF0.7368278074874778
aF0.022080985191722857
aF0.2992383743955593
aF0.0018528963749861183
aF0.8270784741004171
aF0.07358278101884247
aF0.0008768997749527527
aF0.00042225789094125783
aF3.8583136685588215e-11
aF2.3886586728666392e-05
aF0.095555829982366
aF0.0004238603734688168
aF0.2992383743955593
aF0.0018528963749861183
aF0.07167445676394384
aF0.0005459369725147198
aI0
aF17.592848034981333
aI19
aa(lp61
g55
ag28
aS'2389'
p62
aF0.09616885591677904
aF0.0003344234783049765
aF0.6837068717466015
aF0.027320395895310934
aF0.29850474281983036
aF0.0015067219670673038
aF0.9021512577459136
aF0.03736924779684592
aF0.0004921456021147866
aF0.0004225089664342568
aF2.4946711363327267e-13
aF0.0001181467744745257
aF0.09616885591677904
aF0.0003344234783049765
aF0.29850474281983036
aF0.0015067219670673038
aF0.07195742595602898
aF0.00044106231043868104
aI0
aF29.10728745850334
aI19
aa(lp63
g55
ag28
aS'2589'
p64
aF0.09525113370388548
aF0.00041613178936756283
aF1.2982664761882918
aF0.03216404078299717
aF0.3008614845875804
aF0.0018541873247247265
aF0.22151167351648382
aF0.10112455986177221
aF0.0003706741938655018
aF0.00042195819091271294
aF4.9960036108132044e-14
aF1.7126840835629542e-05
aF0.09525113370388548
aF0.00041613178936756283
aF0.3008614845875804
aF0.0018541873247247265
aF0.07183344283780803
aF0.0005426537894480172
aI0
aF42.03214432472472
aI19
aa(lp65
g55
ag28
aS'sum'
p66
aF-0.00016155893120905077
aF4.828556722510408e-07
aF1.0226330659201779
aF3.438492235717879e-07
aF0.22000904769566582
aF1.2830209485169e-06
aF0.3239042809956527
aF2.2426526427099044e-07
aF0.0009766947887754711
aF4.828828215692565e-07
aF2.9755947023035745e-07
aF2.42672448249264e-07
aF-0.00016155893120905077
aF4.828556722510408e-07
aF0.22000904769566582
aF1.2830209485169e-06
aF-8.909666472620182e-05
aF2.6628618743403744e-07
aI0
aF2.2151774281763925e-12
aI19
aa(lp67
S'4'
p68
ag42
aS'644'
p69
aF0.10585591859311584
aF0.00041497155189744445
aF0.7358649108115729
aF0.07480256150014603
aF0.29204505790870977
aF0.0016289127350734844
aF0.9461009987048711
aF0.05584436415920058
aF0.002943325839967008
aF0.0004295587042318402
aF3.277378368693462e-13
aF3.693942048210719e-05
aF0.10585591859311584
aF0.00041497155189744445
aF0.29204505790870977
aF0.0016289127350734844
aF0.07749165579641872
aF0.0005282937445096431
aI0
aF20.985214146935316
aI19
aa(lp70
g68
ag42
aS'1215'
p71
aF0.10526156270272222
aF0.00037069186735381
aF1.3899113123501605
aF0.14596258803738515
aF0.29766454050962055
aF0.0015703549658212523
aF0.03593096568332382
aF0.03435300398060023
aF0.003312762026348608
aF0.0004190888893540812
aF2.8309632416068098e-11
aF8.860201696797576e-05
aF0.10526156270272222
aF0.00037069186735381
aF0.29766454050962055
aF0.0015703549658212523
aF0.07853926804574884
aF0.0004981746517267447
aI0
aF19.18597619124801
aI19
aa(lp72
g68
ag42
aS'2269'
p73
aF0.10529899793731591
aF0.00037448450276959843
aF0.5137364666975511
aF0.8763623965971592
aF0.29807872914986094
aF0.0016095898604256698
aF0.9945585275851829
aF0.006668674685856912
aF0.002049251604957291
aF0.00043934600227582636
aF1.3198775405953711e-11
aF0.0003045863447767583
aF0.10529899793731591
aF0.00037448450276959843
aF0.29807872914986094
aF0.0016095898604256698
aF0.07867652296549171
aF0.0005087071216860811
aI0
aF30.072397348603644
aI19
aa(lp74
g68
ag42
aS'2389'
p75
aF0.10573924349030539
aF0.0004710117416166351
aF0.8018911403680432
aF0.020296707641946576
aF0.2965198713239493
aF0.0017977081917213422
aF0.703106245771679
aF0.20890970717826265
aF0.0014920715641336718
aF0.00044272621997439623
aF1.0591527654923993e-13
aF5.220788974719115e-05
aF0.10573924349030539
aF0.0004710117416166351
aF0.2965198713239493
aF0.0017977081917213422
aF0.07859228869421306
aF0.0005912651625402287
aI0
aF18.665176085253872
aI19
aa(lp76
g68
ag42
aS'2589'
p77
aF0.10519663701807463
aF0.0003355733668025553
aF0.9999727665466567
aF0.9939669560983764
aF0.30020630596021236
aF0.0015551989959614043
aF0.9933888343010073
aF0.8862034510480203
aF0.0021339249773502152
aF0.00043888552116910903
aF0.0001596523448483822
aF4.83361304053076e-05
aF0.10519663701807463
aF0.0003355733668025553
aF0.30020630596021236
aF0.0015551989959614043
aF0.07916106000811866
aF0.0004816009584285253
aI0
aF25.87071972210611
aI19
aa(lp78
g68
ag42
aS'sum'
p79
aF-0.00016155893120905077
aF4.828556722510408e-07
aF1.0226330659201779
aF3.438492235717879e-07
aF0.22000904769566582
aF1.2830209485169e-06
aF0.3239042809956527
aF2.2426526427099044e-07
aF0.0009766947887754711
aF4.828828215692565e-07
aF2.9755947023035745e-07
aF2.42672448249264e-07
aF-0.00016155893120905077
aF4.828556722510408e-07
aF0.22000904769566582
aF1.2830209485169e-06
aF-8.909666472620182e-05
aF2.6628618743403744e-07
aI0
aF2.2151774281763925e-12
aI19
aa(lp80
S'5'
p81
ag28
aS'644'
p82
aF0.09651000038006552
aF0.0004834384831688642
aF0.5086788207366044
aF1.0066709653699701
aF0.28887678091574065
aF0.0019240643480915032
aF0.9999999999959613
aF0.006480621845834533
aF0.0016988242014165395
aF0.000519219141148522
aF0.0013840946106289387
aF0.00024227575206536844
aF0.09651000038006552
aF0.0004834384831688642
aF0.28887678091574065
aF0.0019240643480915032
aF0.06988353856080809
aF0.0005824046951228717
aI0
aF21.22159137384623
aI13
aa(lp83
g81
ag28
aS'1215'
p84
aF0.09691232168411092
aF0.000993147543964097
aF0.5000001671026378
aF1.4227931239843816
aF0.2953709136439838
aF0.0030975916334844145
aF0.9908671917373324
aF0.021482587112712337
aF0.001637215502409765
aF0.000504268021007296
aF3.9028708085253605e-05
aF0.014039437301930191
aF0.09691232168411092
aF0.000993147543964097
aF0.2953709136439838
aF0.0030975916334844145
aF0.07175243739618606
aF0.0010520952771577098
aI0
aF9.372547609429972
aI13
aa(lp85
g81
ag28
aS'2269'
p86
aF0.09604968735828015
aF0.0009586957054927121
aF0.5000004818049474
aF1.2496558132179463
aF0.296351581200408
aF0.0030430916234806815
aF0.9932106248053009
aF0.019925288376072103
aF0.0008171888115014119
aF0.0005311412605356682
aF0.0008078031526491669
aF0.0013974322606567224
aF0.09604968735828015
aF0.0009586957054927121
aF0.296351581200408
aF0.0030430916234806815
aF0.07134986217502189
aF0.0010217434036432244
aI0
aF13.925007305584444
aI13
aa(lp87
g81
ag28
aS'2389'
p88
aF0.09601308141403338
aF0.0005765570537607791
aF0.6804123683715202
aF0.06320157769981077
aF0.29334265231476997
aF0.0023992937977675433
aF0.8647162161975978
aF0.10379813534168325
aF0.0013257025651380826
aF0.0005313602733016262
aF6.206757330318169e-12
aF0.0020783729863621536
aF0.09601308141403338
aF0.0005765570537607791
aF0.29334265231476997
aF0.0023992937977675433
aF0.07059851347559838
aF0.000716351763581527
aI0
aF19.583023274142164
aI13
aa(lp89
g81
ag28
aS'2589'
p90
aF0.09586199655761372
aF0.0004860727530887229
aF0.5148930428431266
aF1.133686046403548
aF0.2952301734795344
aF0.0020380424230544147
aF0.9999999995463306
aF0.026794565430435402
aF0.0017780497691572373
aF0.0005317841460469364
aF0.0010833784168449156
aF0.00023073868886497317
aF0.09586199655761372
aF0.0004860727530887229
aF0.2952301734795344
aF0.0020380424230544147
aF0.07094097383040172
aF0.000607633606125138
aI0
aF19.78397258464134
aI13
aa(lp91
g81
ag28
aS'sum'
p92
aF1.5176270078577875e-05
aF134.06713631341523
aF0.5269802303557631
aF0.0004308425908475146
aF0.2200000000000094
aF0.2210275707036741
aF0.99
aF0.04612487354197328
aF0.0
aF0.0862910994608119
aF1.84297022087776e-14
aF0.0608951019411774
aF1.5176270078577875e-05
aF134.06713631341523
aF0.2200000000000094
aF0.2210275707036741
aF8.369078890128299e-06
aF73.93242440804697
aI0
aF0.04840000000001225
aI13
aa(lp93
S'6'
p94
ag42
aS'644'
p95
aF0.10716752383787861
aF2.6284405462395698e-05
aF0.999092125738272
aF0.7953413572011303
aF0.286840142669298
aF0.00011557139602366706
aF0.9999999576260514
aF0.6559466860182259
aF-0.000379823667420348
aF4.402439794702339e-05
aF0.0004391022409728218
aF1.7740313500796967e-05
aF0.10716752383787861
aF2.6284405462395698e-05
aF0.286840142669298
aF0.00011557139602366706
aF0.07705362238427237
aF3.6345549181605944e-05
aI0
aF8.527977311127557
aI13
aa(lp96
g94
ag42
aS'1215'
p97
aF0.10557051367021549
aF2.0338068989243316e-06
aF1.000023604455798
aF0.7988680532984962
aF0.29726116772505895
aF9.437366721154472e-06
aF0.9999999888782216
aF0.9688223713242683
aF0.0009720113004622436
aF3.417663686564158e-06
aF0.0006263896337401764
aF1.397175835665676e-06
aF0.10557051367021549
aF2.0338068989243316e-06
aF0.29726116772505895
aF9.437366721154472e-06
aF0.07866304403575534
aF2.9212018523934244e-06
aI0
aF22.93204631989424
aI13
aa(lp98
g94
ag42
aS'2269'
p99
aF0.10651473432683843
aF0.0006084045607846267
aF0.7736127617349648
aF0.24248095108127765
aF0.2942363692318499
aF0.0021968712950644897
aF0.8963256724276503
aF0.7523721781263699
aF-0.0008573418081906012
aF0.000565491814802847
aF2.2051260817335105e-10
aF0.0016656954876704266
aF0.10651473432683843
aF0.0006084045607846267
aF0.2942363692318499
aF0.0021968712950644897
aF0.07855900524378584
aF0.0007385068377558447
aI0
aF12.046062682368293
aI13
aa(lp100
g94
ag42
aS'2389'
p101
aF0.10730521608504658
aF5.960123368342959e-06
aF1.0007176207678072
aF0.9537605758206741
aF0.29016043660524166
aF2.6661159665430922e-05
aF0.9999999137099005
aF0.9940457282936667
aF0.0003942900387930431
aF1.003914527874822e-05
aF0.00038038340888024713
aF4.116823639904732e-06
aF0.10730521608504658
aF5.960123368342959e-06
aF0.29016043660524166
aF2.6661159665430922e-05
aF0.07804569703147737
aF8.379579829929107e-06
aI0
aF23.791571575731876
aI13
aa(lp102
g94
ag42
aS'2589'
p103
aF0.10539320426053175
aF1.3785893960357472e-07
aF1.0049288404187657
aF0.7876751057802085
aF0.2918354604964581
aF6.246673951160187e-07
aF0.9999999999896964
aF0.011676284107109636
aF0.00018065304271176134
aF2.3041209216743134e-07
aF0.0008117743775130637
aF9.424574057281809e-08
aF0.10539320426053175
aF1.3785893960357472e-07
aF0.2918354604964581
aF6.246673951160187e-07
aF0.07709755473303073
aF1.934000287395133e-07
aI0
aF13.373082763545938
aI13
aa(lp104
g94
ag42
aS'sum'
p105
aF1.5176270078577875e-05
aF134.06713631341523
aF0.5269802303557631
aF0.0004308425908475146
aF0.2200000000000094
aF0.2210275707036741
aF0.99
aF0.04612487354197328
aF0.0
aF0.0862910994608119
aF1.84297022087776e-14
aF0.0608951019411774
aF1.5176270078577875e-05
aF134.06713631341523
aF0.2200000000000094
aF0.2210275707036741
aF8.369078890128299e-06
aF73.93242440804697
aI0
aF0.04840000000001225
aI13
aa(lp106
S'7'
p107
ag28
aS'644'
p108
aF0.0970724076371519
aF0.0013266401880570131
aF0.7524474740704289
aF0.3811289251598166
aF0.2867955431087358
aF0.002547891166418653
aF0.8752431349201839
aF0.8515170386881166
aF0.004602634005279873
aF0.0005276054798279343
aF0.0006735578552840571
aF0.0014494164850349656
aF0.0970724076371519
aF0.0013266401880570131
aF0.2867955431087358
aF0.002547891166418653
aF0.06978436540031767
aF0.0011375037523924743
aI0
aF11.510906009884332
aI13
aa(lp109
g107
ag28
aS'1215'
p110
aF0.09602472316463641
aF0.00041166244293254506
aF0.5000203859872151
aF0.003966593199611457
aF0.3000286677036168
aF0.0019908070152056534
aF0.9805253639717427
aF0.003350824979121536
aF0.0032320779931049237
aF0.0005018873502607946
aF9.572107145805475e-08
aF7.3107603100752705e-06
aF0.09602472316463641
aF0.00041166244293254506
aF0.3000286677036168
aF0.0019908070152056534
aF0.07221638611155597
aF0.0005704964607569379
aI0
aF7.0477892694073505
aI13
aa(lp111
g107
ag28
aS'2269'
p112
aF0.09705854017381109
aF0.0009597150357957463
aF0.5000000015246228
aF1.0432010632905258
aF0.29229915715798177
aF0.002969274582488579
aF0.9824801889234283
aF0.020597268340509345
aF0.004279539403098277
aF0.0005380390594199727
aF0.00010199614694134107
aF0.004659220525920937
aF0.09705854017381109
aF0.0009597150357957463
aF0.29229915715798177
aF0.002969274582488579
aF0.07111336872903484
aF0.0010081169192311078
aI0
aF11.271945110786577
aI13
aa(lp113
g107
ag28
aS'2389'
p114
aF0.09694831628810481
aF0.0010428561852633582
aF0.5000000021857061
aF1.196805174517872
aF0.2894714950906728
aF0.0030217901009008674
aF0.9816897175286504
aF0.021846403724936125
aF0.0033010891143284587
aF0.0005451313385944079
aF0.001131649516274369
aF0.0014844088378614673
aF0.09694831628810481
aF0.0010428561852633582
aF0.2894714950906728
aF0.0030217901009008674
aF0.07034544955777101
aF0.0010544354086355512
aI0
aF16.728663442525818
aI13
aa(lp115
g107
ag28
aS'2589'
p116
aF0.09622526504475165
aF0.00098155945780036
aF0.5000000494651743
aF1.3026958084676779
aF0.29176458922867415
aF0.0030008409832075478
aF0.9965409078242223
aF0.03020287070462685
aF0.0032657183786172633
aF0.0005360302877777284
aF0.0007930471470156131
aF0.0014101527782403034
aF0.09622526504475165
aF0.00098155945780036
aF0.29176458922867415
aF0.0030008409832075478
aF0.07037390196133606
aF0.0010194195724188915
aI0
aF10.773273543737663
aI13
aa(lp117
g107
ag28
aS'sum'
p118
aF1.5176270078577875e-05
aF134.06713631341523
aF0.5269802303557631
aF0.0004308425908475146
aF0.2200000000000094
aF0.2210275707036741
aF0.99
aF0.04612487354197328
aF0.0
aF0.0862910994608119
aF1.84297022087776e-14
aF0.0608951019411774
aF1.5176270078577875e-05
aF134.06713631341523
aF0.2200000000000094
aF0.2210275707036741
aF8.369078890128299e-06
aF73.93242440804697
aI0
aF0.04840000000001225
aI13
aa(lp119
S'8'
p120
ag42
aS'644'
p121
aF0.10587786253648572
aF0.0005732344722608738
aF0.9999488450358522
aF1.0287422233033463
aF0.284883695862545
aF0.001830343299654924
aF0.9764108879809428
aF0.7244253999764632
aF-0.0008268318185984431
aF0.0005549077074014747
aF0.0005868262525189349
aF0.0003288915816159199
aF0.10587786253648572
aF0.0005732344722608738
aF0.284883695862545
aF0.001830343299654924
aF0.07560711980457267
aF0.0006352423023163709
aI0
aF12.734134941778478
aI13
aa(lp122
g120
ag42
aS'1215'
p123
aF0.1056297638816554
aF0.000558712185565759
aF1.0013712346312882
aF0.8556153710155371
aF0.29375772756133517
aF0.0018442991638327189
aF0.9771576797434094
aF0.6371933408844551
aF0.0002892983969363201
aF0.0005398439868699625
aF0.0004896037159041189
aF0.0003231320492904921
aF0.1056297638816554
aF0.000558712185565759
aF0.29375772756133517
aF0.0018442991638327189
aF0.0777795709431756
aF0.0006385234497642765
aI0
aF25.29117695211451
aI13
aa(lp124
g120
ag42
aS'2269'
p125
aF0.10585421086668853
aF1.019843571585222e-07
aF1.0016824567438936
aF0.7970178510054009
aF0.2887879016728536
aF4.673262418986024e-07
aF0.999999999986291
aF0.027946412400811582
aF-0.0008945401114390158
aF1.7331011431877812e-07
aF0.0002931548261362882
aF6.71560870246779e-08
aF0.10585421086668853
aF1.019843571585222e-07
aF0.2887879016728536
aF4.673262418986024e-07
aF0.07662616107940856
aF1.4431168567836994e-07
aI0
aF22.6205546915981
aI13
aa(lp126
g120
ag42
aS'2389'
p127
aF0.10594416980345474
aF7.504958034212504e-05
aF0.9994324435448921
aF0.9895534254497819
aF0.28635360449954494
aF0.00033823428104279296
aF0.999999488272898
aF0.9838271854191347
aF-0.0019289279652889727
aF0.00012648746283111043
aF0.00038056531069807775
aF4.847606023777873e-05
aF0.10594416980345474
aF7.504958034212504e-05
aF0.28635360449954494
aF0.00033823428104279296
aF0.07604482249513446
aF0.00010473756405507501
aI0
aF31.07873595662246
aI13
aa(lp128
g120
ag42
aS'2589'
p129
aF0.10656862984223052
aF0.0005954111890215332
aF0.9999040027045347
aF0.348458119056956
aF0.2898509790154362
aF0.0018807094021257853
aF0.9889539823173554
aF0.004282771284797149
aF-0.0012946376788722069
aF0.000572618941411262
aF8.038503257884466e-05
aF0.00037376009622769324
aF0.10656862984223052
aF0.0005954111890215332
aF0.2898509790154362
aF0.0018807094021257853
aF0.07742729514911856
aF0.0006629738683226223
aI0
aF23.508582207791815
aI13
aa(lp130
g120
ag42
aS'sum'
p131
aF1.5176270078577875e-05
aF134.06713631341523
aF0.5269802303557631
aF0.0004308425908475146
aF0.2200000000000094
aF0.2210275707036741
aF0.99
aF0.04612487354197328
aF0.0
aF0.0862910994608119
aF1.84297022087776e-14
aF0.0608951019411774
aF1.5176270078577875e-05
aF134.06713631341523
aF0.2200000000000094
aF0.2210275707036741
aF8.369078890128299e-06
aF73.93242440804697
aI0
aF0.04840000000001225
aI13
aa.