(lp0
(lp1
S'XscanNumber_YscanNumber'
p2
aS'Type'
p3
aS'BCID'
p4
aS'xsec'
p5
aS'xsecErr'
p6
aS'normChange'
p7
aS'normChangeErr'
p8
aa(lp9
S'1_2'
p10
aS'XY'
p11
aS'1215'
p12
aFnan
aFnan
aFnan
aFnan
aa(lp13
S'1_2'
p14
ag11
aS'sum'
p15
aF-7422249883.670235
aF-5903270536152.821
aF-1.485332611635281e-07
aF-0.00011813561090074242
aa(lp16
S'1_2'
p17
ag11
aS'2589'
p18
aFnan
aFnan
aFnan
aFnan
aa(lp19
S'1_2'
p20
ag11
aS'2269'
p21
aFnan
aFnan
aFnan
aFnan
aa(lp22
S'1_2'
p23
ag11
aS'644'
p24
aFnan
aFnan
aFnan
aFnan
aa(lp25
S'1_2'
p26
ag11
aS'2389'
p27
aFnan
aFnan
aFnan
aFnan
aa(lp28
S'4_3'
p29
ag11
aS'1215'
p30
aFnan
aFnan
aFnan
aFnan
aa(lp31
S'4_3'
p32
ag11
aS'sum'
p33
aF-7422249883.670235
aF-5903270536152.821
aF-1.485332611635281e-07
aF-0.00011813561090074242
aa(lp34
S'4_3'
p35
ag11
aS'2589'
p36
aFnan
aFnan
aFnan
aFnan
aa(lp37
S'4_3'
p38
ag11
aS'2269'
p39
aFnan
aFnan
aFnan
aFnan
aa(lp40
S'4_3'
p41
ag11
aS'644'
p42
aFnan
aFnan
aFnan
aFnan
aa(lp43
S'4_3'
p44
ag11
aS'2389'
p45
aFnan
aFnan
aFnan
aFnan
aa(lp46
S'5_6'
p47
ag11
aS'1215'
p48
aF637488413208.849
aF901548663229.8657
aF1.7293663030562103e-09
aF2.4457038692000796e-09
aa(lp49
S'5_6'
p50
ag11
aS'sum'
p51
aF-7422249883.670235
aF-5903270536152.821
aF-1.485332611635281e-07
aF-0.00011813561090074242
aa(lp52
S'5_6'
p53
ag11
aS'2589'
p54
aF631684079382.2013
aF893340582023.3301
aF1.7452568718692015e-09
aF2.4681780665118012e-09
aa(lp55
S'5_6'
p56
ag11
aS'2269'
p57
aF635402520441.5488
aF898599181375.2019
aF1.7350434487197981e-09
aF2.4537337711323122e-09
aa(lp58
S'5_6'
p59
ag11
aS'644'
p60
aF636039271683.4915
aF899499493072.0723
aF1.7333064630964537e-09
aF2.4512767596364027e-09
aa(lp61
S'5_6'
p62
ag11
aS'2389'
p63
aF642219913588.424
aF908240633560.8169
aF1.71662534447457e-09
aF2.4276869300744182e-09
aa(lp64
S'7_8'
p65
ag11
aS'1215'
p66
aF640006930980.5981
aF905123790404.6509
aF1.7225610021176128e-09
aF2.4361157168268115e-09
aa(lp67
S'7_8'
p68
ag11
aS'sum'
p69
aF5353184361.888032
aF1.8923316679941988e+16
aF2.0594302491075236e-07
aF0.7280012820325992
aa(lp70
S'7_8'
p71
ag11
aS'2589'
p72
aF650406349524.5394
aF919837570557.1013
aF1.6950187850996096e-09
aF2.3971813351367793e-09
aa(lp73
S'7_8'
p74
ag11
aS'2269'
p75
aF633724173356.3496
aF896231823472.6859
aF1.7396385158440808e-09
aF2.460249213756201e-09
aa(lp76
S'7_8'
p77
ag11
aS'644'
p78
aF655939379669.0872
aF927663712945.9711
aF1.680720832690864e-09
aF2.376963140810693e-09
aa(lp79
S'7_8'
p80
ag11
aS'2389'
p81
aF640482321333.3143
aF905800986671.644
aF1.7212824517890618e-09
aF2.434320653730776e-09
aa(lp82
S'9_10'
p83
ag11
aS'1215'
p84
aF639617083732.6893
aF904585341087.7639
aF1.7236109047595367e-09
aF2.4376352630945375e-09
aa(lp85
S'9_10'
p86
ag11
aS'sum'
p87
aF5353184361.888032
aF1.8923316679941988e+16
aF2.0594302491075236e-07
aF0.7280012820325992
aa(lp88
S'9_10'
p89
ag11
aS'2589'
p90
aF640624915848.0535
aF905988514781.5245
aF1.7208993173997025e-09
aF2.433740833504038e-09
aa(lp91
S'9_10'
p92
ag11
aS'2269'
p93
aF638673716389.5563
aF903241197780.0862
aF1.7261568029201967e-09
aF2.4412088648954116e-09
aa(lp94
S'9_10'
p95
ag11
aS'644'
p96
aF648772468094.2091
aF917514171206.984
aF1.6992875539719553e-09
aF2.4031852281045312e-09
aa(lp97
S'9_10'
p98
ag11
aS'2389'
p99
aF643730697267.8627
aF910395896882.2396
aF1.7125965641707096e-09
aF2.4220390477772434e-09
aa.