(lp0
(lp1
S'XscanNumber_YscanNumber'
p2
aS'Type'
p3
aS'BCID'
p4
aS'xsec'
p5
aS'xsecErr'
p6
aS'normChange'
p7
aS'normChangeErr'
p8
aa(lp9
S'1_2'
p10
aS'XY'
p11
aS'1215'
p12
aF18263.36637422041
aF325.63226494036155
aF0.06036406201368865
aF0.0010762794674186638
aa(lp13
S'1_2'
p14
ag11
aS'sum'
p15
aF0.016581531311510862
aF2414.4995330347465
aF66486.68085479162
aF9681377242.00922
aa(lp16
S'1_2'
p17
ag11
aS'2589'
p18
aF18073.77658529422
aF535.8214573359335
aF0.06099726723905447
aF0.0018083461677916666
aa(lp19
S'1_2'
p20
ag11
aS'2269'
p21
aF17669.324681093854
aF585.7686464341791
aF0.0623934983532097
aF0.002068452288714763
aa(lp22
S'1_2'
p23
ag11
aS'644'
p24
aF18594.225893025785
aF598.4327923133516
aF0.05928996381643712
aF0.0019081761621566656
aa(lp25
S'1_2'
p26
ag11
aS'2389'
p27
aF18438.12121201662
aF557.0292334923066
aF0.059791936917827616
aF0.0018063584899665126
aa(lp28
S'4_3'
p29
ag11
aS'1215'
p30
aF18592.299101262302
aF153.25662998820968
aF0.059296108264378526
aF0.0004887788043060094
aa(lp31
S'4_3'
p32
ag11
aS'sum'
p33
aF0.016581531311510862
aF2414.4995330347465
aF66486.68085479162
aF9681377242.00922
aa(lp34
S'4_3'
p35
ag11
aS'2589'
p36
aF18971.081051313606
aF160.15113620333128
aF0.05811218545797212
aF0.0004905747070069324
aa(lp37
S'4_3'
p38
ag11
aS'2269'
p39
aF18675.166479958247
aF158.73519394164165
aF0.05903299344481248
aF0.0005017686816058262
aa(lp40
S'4_3'
p41
ag11
aS'644'
p42
aF19307.851112215558
aF164.26360236059762
aF0.05709858512916883
aF0.000485772302080605
aa(lp43
S'4_3'
p44
ag11
aS'2389'
p45
aF18718.945206449738
aF165.0637010413133
aF0.058894930682969256
aF0.0005193356315692899
aa(lp46
S'5_6'
p47
ag11
aS'1215'
p48
aF19067.31717126164
aF88.56449551910136
aF0.05781888298652613
aF0.0002685590299456279
aa(lp49
S'5_6'
p50
ag11
aS'sum'
p51
aF0.016581531311510862
aF2414.4995330347465
aF66486.68085479162
aF9681377242.00922
aa(lp52
S'5_6'
p53
ag11
aS'2589'
p54
aF18995.92864010075
aF94.2377553312733
aF0.058036171922906846
aF0.0002879142511879641
aa(lp55
S'5_6'
p56
ag11
aS'2269'
p57
aF18979.88700905489
aF95.1117898375489
aF0.05808522357726374
aF0.00029107599928872535
aa(lp58
S'5_6'
p59
ag11
aS'644'
p60
aF19638.119511732766
aF91.71402245082221
aF0.056138317099735505
aF0.000262177387797261
aa(lp61
S'5_6'
p62
ag11
aS'2389'
p63
aF18955.040535740576
aF96.3837430100573
aF0.05816136232014046
aF0.0002957424326478882
aa(lp64
S'7_8'
p65
ag11
aS'1215'
p66
aF18878.41526122617
aF77.57321806722744
aF0.05839743247180546
aF0.0002399606482333158
aa(lp67
S'7_8'
p68
ag11
aS'sum'
p69
aF0.09191982962993935
aF326064.158639074
aF11993.614270506394
aF42544549548.21307
aa(lp70
S'7_8'
p71
ag11
aS'2589'
p72
aF19504.230662619775
aF93.64716761981323
aF0.056523684500154374
aF0.0002713915277376242
aa(lp73
S'7_8'
p74
ag11
aS'2269'
p75
aF19750.250884184767
aF136.31895134697112
aF0.05581959372855141
aF0.00038527452265344636
aa(lp76
S'7_8'
p77
ag11
aS'644'
p78
aF20549.5157157853
aF459.1433682413718
aF0.05364851394260834
aF0.0011986832066232984
aa(lp79
S'7_8'
p80
ag11
aS'2389'
p81
aF18774.376405761293
aF94.9234588825415
aF0.05872104386134752
aF0.00029689426013649337
aa(lp82
S'9_10'
p83
ag11
aS'1215'
p84
aF19489.019489854203
aF122.70672239330055
aF0.05656780121576062
aF0.0003561620677630958
aa(lp85
S'9_10'
p86
ag11
aS'sum'
p87
aF0.09191982962993935
aF326064.158639074
aF11993.614270506394
aF42544549548.21307
aa(lp88
S'9_10'
p89
ag11
aS'2589'
p90
aF18879.858062340518
aF99.12669864560563
aF0.05839296973271244
aF0.0003065861138682197
aa(lp91
S'9_10'
p92
ag11
aS'2269'
p93
aF18880.7000393714
aF112.9830054939353
aF0.05839036572231149
aF0.00034941072086522323
aa(lp94
S'9_10'
p95
ag11
aS'644'
p96
aF19323.875652462215
aF96.45051621713684
aF0.057051235488140006
aF0.00028475763416307254
aa(lp97
S'9_10'
p98
ag11
aS'2389'
p99
aF18934.01693158428
aF194.244605043306
aF0.05822594245984498
aF0.0005973415592293173
aa.