(lp0
(lp1
S'Scan'
p2
aS'Type'
p3
aS'BCID'
p4
aS'sigma'
p5
aS'sigmaErr'
p6
aS'sigmaRatio'
p7
aS'sigmaRatio_Err'
p8
aS'Amp'
p9
aS'AmpErr'
p10
aS'Frac'
p11
aS'FracErr'
p12
aS'Mean'
p13
aS'MeanErr'
p14
aS'CapSigma'
p15
aS'CapSigmaErr'
p16
aS'peak'
p17
aS'peakErr'
p18
aS'area'
p19
aS'areaErr'
p20
aS'fitStatus'
p21
aS'chi2'
p22
aS'ndof'
p23
aa(lp24
S'1'
p25
aS'X'
p26
aS'644'
p27
aFnan
aFnan
aFnan
aFnan
aFnan
aFnan
aFnan
aFnan
aFnan
aFnan
aF-999.0
aF-999.0
aFnan
aFnan
aFnan
aFnan
aFnan
aFnan
aI-999
aFinf
aI41
aa(lp28
g25
ag26
aS'1215'
p29
aFnan
aFnan
aFnan
aFnan
aFnan
aFnan
aFnan
aFnan
aFnan
aFnan
aF-999.0
aF-999.0
aFnan
aFnan
aFnan
aFnan
aFnan
aFnan
aI-999
aFinf
aI41
aa(lp30
g25
ag26
aS'2269'
p31
aFnan
aFnan
aFnan
aFnan
aFnan
aFnan
aFnan
aFnan
aFnan
aFnan
aF-999.0
aF-999.0
aFnan
aFnan
aFnan
aFnan
aFnan
aFnan
aI-999
aFinf
aI41
aa(lp32
g25
ag26
aS'2389'
p33
aFnan
aFnan
aFnan
aFnan
aFnan
aFnan
aFnan
aFnan
aFnan
aFnan
aF-999.0
aF-999.0
aFnan
aFnan
aFnan
aFnan
aFnan
aFnan
aI-999
aFinf
aI41
aa(lp34
g25
ag26
aS'2589'
p35
aFnan
aFnan
aFnan
aFnan
aFnan
aFnan
aFnan
aFnan
aFnan
aFnan
aF-999.0
aF-999.0
aFnan
aFnan
aFnan
aFnan
aFnan
aFnan
aI-999
aFinf
aI41
aa(lp36
g25
ag26
aS'sum'
p37
aF1.345137645595749
aF2905.6842193935463
aF0.2012015253282369
aF1.3022787827294229
aF1.1
aF2.869063643877152
aF0.99
aF0.7559345301357088
aF0.0
aF1.4142135623730951
aF-999.0
aF-999.0
aF1.345137645595749
aF2905.6842193935463
aF1.1
aF2.869063643877152
aF3.7089360612929667
aF8011.823083893337
aI-999
aF5.6724388388419845e-11
aI41
aa(lp38
S'10'
p39
ag26
aS'644'
p40
aF-0.002240630480212062
aF0.0011341277878048413
aF0.2000077680963131
aF3.826531651887621e-06
aF0.3326658718715604
aF0.8676723259503535
aF0.99
aF0.7559345301357088
aF0.0
aF1.4142135623730951
aF-999.0
aF-999.0
aF-0.002240630480212062
aF0.0011341277878048413
aF0.3326658718715604
aF0.8676723259503535
aF-0.0018683938225141346
aF0.004964135259299497
aI-999
aF31818.788800642797
aI29
aa(lp41
S'10'
p42
ag26
aS'1215'
p43
aF0.0002887639367295398
aF0.0009638216108925405
aF0.20048555674519045
aF0.0008481520896459344
aF0.3360420353619777
aF0.8764781695195732
aF0.99
aF0.7559345301357088
aF0.0
aF1.4142135623730951
aF-999.0
aF-999.0
aF0.0002887639367295398
aF0.0009638216108925405
aF0.3360420353619777
aF0.8764781695195732
aF0.00024323523929348706
aF0.0010303383930423621
aI-999
aF34097.72852791349
aI29
aa(lp44
S'10'
p45
ag26
aS'2269'
p46
aF-0.0026975517333944978
aF0.0011366751551725
aF0.20002260338069336
aF1.0373525138523965e-05
aF0.31528550599613747
aF0.8223401660862999
aF0.99
aF0.7559345301357088
aF0.0
aF1.4142135623730951
aF-999.0
aF-999.0
aF-0.0026975517333944978
aF0.0011366751551725
aF0.31528550599613747
aF0.8223401660862999
aF-0.0021318847487366687
aF0.005632562687982356
aI-999
aF30314.39580361557
aI29
aa(lp47
S'10'
p48
ag26
aS'2389'
p49
aF-0.0006422953791900838
aF0.0011467939148719893
aF0.20000361497217992
aF2.133671292051109e-06
aF0.3202237055861922
aF0.8352201741863319
aF0.99
aF0.7559345301357088
aF0.0
aF1.4142135623730951
aF-999.0
aF-999.0
aF-0.0006422953791900838
aF0.0011467939148719893
aF0.3202237055861922
aF0.8352201741863319
aF-0.0005155588076505075
aF0.0016295890193129897
aI-999
aF30321.42286444689
aI29
aa(lp50
S'10'
p51
ag26
aS'2589'
p52
aF-0.00026513029048513153
aF0.0011328672992026187
aF0.2000300780830691
aF9.619116439568698e-06
aF0.31717289597653886
aF0.8272629315177434
aF0.99
aF0.7559345301357088
aF0.0
aF1.4142135623730951
aF-999.0
aF-999.0
aF-0.00026513029048513153
aF0.0011328672992026187
aF0.31717289597653886
aF0.8272629315177434
aF-0.0002107877409224539
aF0.001055209691731915
aI-999
aF29996.55473217117
aI29
aa(lp53
S'10'
p54
ag26
aS'sum'
p55
aF0.7303903267233397
aF3.6793036150481155
aF0.20000000566485399
aF1.1225308497545239
aF1.1
aF2.869063643877152
aF0.99
aF0.7559345301357088
aF0.0
aF1.4142135623730951
aF-999.0
aF-999.0
aF0.7303903267233397
aF3.6793036150481155
aF1.1
aF2.869063643877152
aF2.0138987489298676
aF11.424114871707989
aI-999
aF0.0003603410120412077
aI29
aa(lp56
S'2'
p57
aS'Y'
p58
aS'644'
p59
aFnan
aFnan
aFnan
aFnan
aFnan
aFnan
aFnan
aFnan
aFnan
aFnan
aF-999.0
aF-999.0
aFnan
aFnan
aFnan
aFnan
aFnan
aFnan
aI-999
aFinf
aI41
aa(lp60
g57
ag58
aS'1215'
p61
aFnan
aFnan
aFnan
aFnan
aFnan
aFnan
aFnan
aFnan
aFnan
aFnan
aF-999.0
aF-999.0
aFnan
aFnan
aFnan
aFnan
aFnan
aFnan
aI-999
aFinf
aI41
aa(lp62
g57
ag58
aS'2269'
p63
aFnan
aFnan
aFnan
aFnan
aFnan
aFnan
aFnan
aFnan
aFnan
aFnan
aF-999.0
aF-999.0
aFnan
aFnan
aFnan
aFnan
aFnan
aFnan
aI-999
aFinf
aI41
aa(lp64
g57
ag58
aS'2389'
p65
aFnan
aFnan
aFnan
aFnan
aFnan
aFnan
aFnan
aFnan
aFnan
aFnan
aF-999.0
aF-999.0
aFnan
aFnan
aFnan
aFnan
aFnan
aFnan
aI-999
aFinf
aI41
aa(lp66
g57
ag58
aS'2589'
p67
aFnan
aFnan
aFnan
aFnan
aFnan
aFnan
aFnan
aFnan
aFnan
aFnan
aF-999.0
aF-999.0
aFnan
aFnan
aFnan
aFnan
aFnan
aFnan
aI-999
aFinf
aI41
aa(lp68
g57
ag58
aS'sum'
p69
aF1.345137645595749
aF2905.6842193935463
aF0.2012015253282369
aF1.3022787827294229
aF1.1
aF2.869063643877152
aF0.99
aF0.7559345301357088
aF0.0
aF1.4142135623730951
aF-999.0
aF-999.0
aF1.345137645595749
aF2905.6842193935463
aF1.1
aF2.869063643877152
aF3.7089360612929667
aF8011.823083893337
aI-999
aF5.6724388388419845e-11
aI41
aa(lp70
S'3'
p71
ag58
aS'644'
p72
aFnan
aFnan
aFnan
aFnan
aFnan
aFnan
aFnan
aFnan
aFnan
aFnan
aF-999.0
aF-999.0
aFnan
aFnan
aFnan
aFnan
aFnan
aFnan
aI-999
aFinf
aI41
aa(lp73
g71
ag58
aS'1215'
p74
aFnan
aFnan
aFnan
aFnan
aFnan
aFnan
aFnan
aFnan
aFnan
aFnan
aF-999.0
aF-999.0
aFnan
aFnan
aFnan
aFnan
aFnan
aFnan
aI-999
aFinf
aI41
aa(lp75
g71
ag58
aS'2269'
p76
aFnan
aFnan
aFnan
aFnan
aFnan
aFnan
aFnan
aFnan
aFnan
aFnan
aF-999.0
aF-999.0
aFnan
aFnan
aFnan
aFnan
aFnan
aFnan
aI-999
aFinf
aI41
aa(lp77
g71
ag58
aS'2389'
p78
aFnan
aFnan
aFnan
aFnan
aFnan
aFnan
aFnan
aFnan
aFnan
aFnan
aF-999.0
aF-999.0
aFnan
aFnan
aFnan
aFnan
aFnan
aFnan
aI-999
aFinf
aI41
aa(lp79
g71
ag58
aS'2589'
p80
aFnan
aFnan
aFnan
aFnan
aFnan
aFnan
aFnan
aFnan
aFnan
aFnan
aF-999.0
aF-999.0
aFnan
aFnan
aFnan
aFnan
aFnan
aFnan
aI-999
aFinf
aI41
aa(lp81
g71
ag58
aS'sum'
p82
aF1.345137645595749
aF2905.6842193935463
aF0.2012015253282369
aF1.3022787827294229
aF1.1
aF2.869063643877152
aF0.99
aF0.7559345301357088
aF0.0
aF1.4142135623730951
aF-999.0
aF-999.0
aF1.345137645595749
aF2905.6842193935463
aF1.1
aF2.869063643877152
aF3.7089360612929667
aF8011.823083893337
aI-999
aF5.6724388388419845e-11
aI41
aa(lp83
S'4'
p84
ag26
aS'644'
p85
aFnan
aFnan
aFnan
aFnan
aFnan
aFnan
aFnan
aFnan
aFnan
aFnan
aF-999.0
aF-999.0
aFnan
aFnan
aFnan
aFnan
aFnan
aFnan
aI-999
aFinf
aI41
aa(lp86
g84
ag26
aS'1215'
p87
aFnan
aFnan
aFnan
aFnan
aFnan
aFnan
aFnan
aFnan
aFnan
aFnan
aF-999.0
aF-999.0
aFnan
aFnan
aFnan
aFnan
aFnan
aFnan
aI-999
aFinf
aI41
aa(lp88
g84
ag26
aS'2269'
p89
aFnan
aFnan
aFnan
aFnan
aFnan
aFnan
aFnan
aFnan
aFnan
aFnan
aF-999.0
aF-999.0
aFnan
aFnan
aFnan
aFnan
aFnan
aFnan
aI-999
aFinf
aI41
aa(lp90
g84
ag26
aS'2389'
p91
aFnan
aFnan
aFnan
aFnan
aFnan
aFnan
aFnan
aFnan
aFnan
aFnan
aF-999.0
aF-999.0
aFnan
aFnan
aFnan
aFnan
aFnan
aFnan
aI-999
aFinf
aI41
aa(lp92
g84
ag26
aS'2589'
p93
aFnan
aFnan
aFnan
aFnan
aFnan
aFnan
aFnan
aFnan
aFnan
aFnan
aF-999.0
aF-999.0
aFnan
aFnan
aFnan
aFnan
aFnan
aFnan
aI-999
aFinf
aI41
aa(lp94
g84
ag26
aS'sum'
p95
aF1.345137645595749
aF2905.6842193935463
aF0.2012015253282369
aF1.3022787827294229
aF1.1
aF2.869063643877152
aF0.99
aF0.7559345301357088
aF0.0
aF1.4142135623730951
aF-999.0
aF-999.0
aF1.345137645595749
aF2905.6842193935463
aF1.1
aF2.869063643877152
aF3.7089360612929667
aF8011.823083893337
aI-999
aF5.6724388388419845e-11
aI41
aa(lp96
S'5'
p97
ag58
aS'644'
p98
aF0.0009440134277578439
aF0.0007906913081201333
aF0.20000266191299865
aF7.805171252234233e-07
aF0.3460743784877721
aF0.902644924906044
aF0.99
aF0.7559345301357088
aF0.0
aF1.4142135623730951
aF-999.0
aF-999.0
aF0.0009440134277578439
aF0.0007906913081201333
aF0.3460743784877721
aF0.902644924906044
aF0.0008189126005061907
aF0.002243351622593728
aI-999
aF49233.483404715626
aI39
aa(lp99
g97
ag58
aS'1215'
p100
aF-0.00031477359465384566
aF0.0007943937818845001
aF0.20000000408022287
aF1.9727483605014307e-08
aF0.3289359094915458
aF0.8579436900798724
aF0.99
aF0.7559345301357088
aF0.0
aF1.4142135623730951
aF-999.0
aF-999.0
aF-0.00031477359465384566
aF0.0007943937818845001
aF0.3289359094915458
aF0.8579436900798724
aF-0.0002595371404033666
aF0.0009419435775974108
aI-999
aF51448.22340992329
aI40
aa(lp101
g97
ag58
aS'2269'
p102
aF0.01600615045573804
aF0.0010425007329598833
aF0.2000004913013647
aF1.541423072300152e-05
aF0.33750816452108884
aF0.8803021857628769
aF0.99
aF0.7559345301357088
aF0.0
aF1.4142135623730951
aF-999.0
aF-999.0
aF0.01600615045573804
aF0.0010425007329598833
aF0.33750816452108884
aF0.8803021857628769
aF0.013541323461450629
aF0.035330027312813025
aI-999
aF51401.036941489874
aI40
aa(lp103
g97
ag58
aS'2389'
p104
aF0.0012305152032491896
aF0.0008295990015076401
aF0.20000029365460614
aF1.2399830327802785e-07
aF0.3253130085630108
aF0.8484942961349373
aF0.99
aF0.7559345301357088
aF0.0
aF1.4142135623730951
aF-999.0
aF-999.0
aF0.0012305152032491896
aF0.0008295990015076401
aF0.3253130085630108
aF0.8484942961349373
aF0.0010034098227160006
aF0.0027031503293332543
aI-999
aF46470.03911283639
aI41
aa(lp105
g97
ag58
aS'2589'
p106
aF-0.0005524092688092367
aF0.0008238603453740168
aF0.20000370643424073
aF1.718319553839498e-06
aF0.33001775973788633
aF0.8607654148161408
aF0.99
aF0.7559345301357088
aF0.0
aF1.4142135623730951
aF-999.0
aF-999.0
aF-0.0005524092688092367
aF0.0008238603453740168
aF0.33001775973788633
aF0.8607654148161408
aF-0.00045697054011779653
aF0.0013729795921545022
aI-999
aF46510.03502706052
aI38
aa(lp107
g97
ag58
aS'sum'
p108
aF1.345137645595749
aF2905.6842193935463
aF0.2012015253282369
aF1.3022787827294229
aF1.1
aF2.869063643877152
aF0.99
aF0.7559345301357088
aF0.0
aF1.4142135623730951
aF-999.0
aF-999.0
aF1.345137645595749
aF2905.6842193935463
aF1.1
aF2.869063643877152
aF3.7089360612929667
aF8011.823083893337
aI-999
aF5.6724388388419845e-11
aI41
aa(lp109
S'6'
p110
ag26
aS'644'
p111
aF0.0035555034485496165
aF0.0008627557337412324
aF0.20000073227828583
aF2.5742908425774313e-07
aF0.33954673791343
aF0.8856192737677326
aF0.99
aF0.7559345301357088
aF0.0
aF1.4142135623730951
aF-999.0
aF-999.0
aF0.0035555034485496165
aF0.0008627557337412324
aF0.33954673791343
aF0.8856192737677326
aF0.003026151042151203
aF0.007927011164055399
aI-999
aF53108.63196821942
aI40
aa(lp112
g110
ag26
aS'1215'
p113
aF0.02525574690940649
aF0.0010753372339881594
aF0.2000009308409894
aF1.8092808336631072e-05
aF0.3326090416197851
aF0.8675240990328619
aF0.99
aF0.7559345301357088
aF0.0
aF1.4142135623730951
aF-999.0
aF-999.0
aF0.02525574690940649
aF0.0010753372339881594
aF0.3326090416197851
aF0.8675240990328619
aF0.02105640386493207
aF0.05492746522980529
aI-999
aF61881.38016267089
aI41
aa(lp114
g110
ag26
aS'2269'
p115
aF0.0019285361890107615
aF0.000864430162182531
aF0.20000001447242277
aF3.5718517338301226e-08
aF0.31978568439621974
aF0.8340777099396066
aF0.99
aF0.7559345301357088
aF0.0
aF1.4142135623730951
aF-999.0
aF-999.0
aF0.0019285361890107615
aF0.000864430162182531
aF0.31978568439621974
aF0.8340777099396066
aF0.0015458834407451514
aF0.004091140571927735
aI-999
aF49727.08590296251
aI41
aa(lp116
g110
ag26
aS'2389'
p117
aF0.002208357361659285
aF0.0008712366179782387
aF0.2000020548953377
aF5.715651855281445e-07
aF0.33673478561243486
aF0.8782850282085491
aF0.99
aF0.7559345301357088
aF0.0
aF1.4142135623730951
aF-999.0
aF-999.0
aF0.002208357361659285
aF0.0008712366179782387
aF0.33673478561243486
aF0.8782850282085491
aF0.0018640058456218496
aF0.004917075933891024
aI-999
aF50174.35544594527
aI40
aa(lp118
g110
ag26
aS'2589'
p119
aF0.028418272371367584
aF0.0010754346896001503
aF0.20000112781532625
aF1.5756333157285196e-05
aF0.33437058806698144
aF0.8721186343680003
aF0.99
aF0.7559345301357088
aF0.0
aF1.4142135623730951
aF-999.0
aF-999.0
aF0.028418272371367584
aF0.0010754346896001503
aF0.33437058806698144
aF0.8721186343680003
aF0.023818569531161946
aF0.06213107673236461
aI-999
aF56338.236011755536
aI40
aa(lp120
g110
ag26
aS'sum'
p121
aF1.345137645595749
aF2905.6842193935463
aF0.2012015253282369
aF1.3022787827294229
aF1.1
aF2.869063643877152
aF0.99
aF0.7559345301357088
aF0.0
aF1.4142135623730951
aF-999.0
aF-999.0
aF1.345137645595749
aF2905.6842193935463
aF1.1
aF2.869063643877152
aF3.7089360612929667
aF8011.823083893337
aI-999
aF5.6724388388419845e-11
aI41
aa(lp122
S'7'
p123
ag58
aS'644'
p124
aF0.0029458069491746387
aF0.0010448633040120974
aF0.20003195813789842
aF5.82868565578154e-06
aF0.3276187260481769
aF0.8545081599619755
aF0.99
aF0.7559345301357088
aF0.0
aF1.4142135623730951
aF-999.0
aF-999.0
aF0.0029458069491746387
aF0.0010448633040120974
aF0.3276187260481769
aF0.8545081599619755
aF0.0024191507576016642
aF0.0063678016611560615
aI-999
aF29855.807169425294
aI29
aa(lp125
g123
ag58
aS'1215'
p126
aF0.0006367061884523189
aF0.0009683728951429884
aF0.2000170348297739
aF2.5285945504938123e-06
aF0.3454381387024893
aF0.9009854590544593
aF0.99
aF0.7559345301357088
aF0.0
aF1.4142135623730951
aF-999.0
aF-999.0
aF0.0006367061884523189
aF0.0009683728951429884
aF0.3454381387024893
aF0.9009854590544593
aF0.0005513143415584073
aF0.0016645751159834266
aI-999
aF30379.241789320964
aI29
aa(lp127
g123
ag58
aS'2269'
p128
aF0.00043613931284796953
aF0.0010657360819063125
aF0.20000052009107602
aF2.695916109934915e-06
aF0.32809425142273396
aF0.8557484441109596
aF0.99
aF0.7559345301357088
aF0.0
aF1.4142135623730951
aF-999.0
aF-999.0
aF0.00043613931284796953
aF0.0010657360819063125
aF0.32809425142273396
aF0.8557484441109596
aF0.0003586854750539152
aF0.0012819651174117521
aI-999
aF27871.78941188511
aI29
aa(lp129
g123
ag58
aS'2389'
p130
aF0.0009472849954548432
aF0.0010489100531890388
aF0.200002580764649
aF4.105683272359606e-06
aF0.3298328553197063
aF0.8602831397763293
aF0.99
aF0.7559345301357088
aF0.0
aF1.4142135623730951
aF-999.0
aF-999.0
aF0.0009472849954548432
aF0.0010489100531890388
aF0.3298328553197063
aF0.8602831397763293
aF0.0007831852631362856
aF0.0022191916118465397
aI-999
aF28313.218079824142
aI29
aa(lp131
g123
ag58
aS'2589'
p132
aF0.0017844610703879823
aF0.001053221955366026
aF0.20000015220139938
aF4.3284419513900385e-07
aF0.3282314726920145
aF0.856106350069923
aF0.99
aF0.7559345301357088
aF0.0
aF1.4142135623730951
aF-999.0
aF-999.0
aF0.0017844610703879823
aF0.001053221955366026
aF0.3282314726920145
aF0.856106350069923
aF0.001468173001130999
aF0.003926168052097091
aI-999
aF28412.102499331577
aI29
aa(lp133
g123
ag58
aS'sum'
p134
aF0.7303903219316943
aF3.6793034691070665
aF0.2000000056648538
aF1.122531031697969
aF1.1
aF2.869063643877152
aF0.99
aF0.7559345301357088
aF0.0
aF1.4142135623730951
aF-999.0
aF-999.0
aF0.7303903219316943
aF3.6793034691070665
aF1.1
aF2.869063643877152
aF2.0138987357179063
aF11.424114498520131
aI-999
aF0.00036034104849307595
aI29
aa(lp135
S'8'
p136
ag26
aS'644'
p137
aF0.0006261462589783495
aF0.001115922614760034
aF0.20000005118633457
aF7.607790584590601e-07
aF0.3263102802859606
aF0.8510954198107391
aF0.99
aF0.7559345301357088
aF0.0
aF1.4142135623730951
aF-999.0
aF-999.0
aF0.0006261462589783495
aF0.001115922614760034
aF0.3263102802859606
aF0.8510954198107391
aF0.0005121491787274025
aF0.0016178709143167516
aI-999
aF33979.1390911969
aI29
aa(lp138
g136
ag26
aS'1215'
p139
aF0.002042211861411506
aF0.001079759149782416
aF0.2000079088285382
aF4.00748258308492e-06
aF0.34387527723450234
aF0.8969091417651703
aF0.99
aF0.7559345301357088
aF0.0
aF1.4142135623730951
aF-999.0
aF-999.0
aF0.002042211861411506
aF0.001079759149782416
aF0.34387527723450234
aF0.8969091417651703
aF0.0017603202380750932
aF0.004684721008030675
aI-999
aF33682.995855761386
aI29
aa(lp140
g136
ag26
aS'2269'
p141
aF0.0005407624797406217
aF0.0011205265920588234
aF0.20006619790390262
aF1.1223850053962425e-05
aF0.3451703404824129
aF0.9002869771116263
aF0.99
aF0.7559345301357088
aF0.0
aF1.4142135623730951
aF-999.0
aF-999.0
aF0.0005407624797406217
aF0.0011205265920588234
aF0.3451703404824129
aF0.9002869771116263
aF0.00046787512485356003
aF0.0015585656844508684
aI-999
aF31258.657786913875
aI29
aa(lp142
g136
ag26
aS'2389'
p143
aF-0.00023507538535717313
aF0.0011224027952461367
aF0.2000002085268556
aF0.013866632333923629
aF0.324815164339302
aF0.8471957990780673
aF0.99
aF0.7559345301357088
aF0.0
aF1.4142135623730951
aF-999.0
aF-999.0
aF-0.00023507538535717313
aF0.0011224027952461367
aF0.324815164339302
aF0.8471957990780673
aF-0.00019139623368594132
aF0.0010413116295086612
aI-999
aF31939.37253894255
aI29
aa(lp144
g136
ag26
aS'2589'
p145
aF0.0015958025005077935
aF0.0011414707838485164
aF0.20000398258380586
aF2.8365775374544766e-06
aF0.34773207574899884
aF0.9069685966739895
aF0.99
aF0.7559345301357088
aF0.0
aF1.4142135623730951
aF-999.0
aF-999.0
aF0.0015958025005077935
aF0.0011414707838485164
aF0.34773207574899884
aF0.9069685966739895
aF0.001390957397217066
aF0.0037619065126204116
aI-999
aF30963.78768306401
aI29
aa(lp146
g136
ag26
aS'sum'
p147
aF0.7303903219316943
aF3.6793034691070665
aF0.2000000056648538
aF1.122531031697969
aF1.1
aF2.869063643877152
aF0.99
aF0.7559345301357088
aF0.0
aF1.4142135623730951
aF-999.0
aF-999.0
aF0.7303903219316943
aF3.6793034691070665
aF1.1
aF2.869063643877152
aF2.0138987357179063
aF11.424114498520131
aI-999
aF0.00036034104849307595
aI29
aa(lp148
S'9'
p149
ag58
aS'644'
p150
aF0.0034082065747595798
aF0.0010642834642995334
aF0.2000034044887731
aF1.5458003317467273e-05
aF0.3366141259408494
aF0.8779703188657962
aF0.99
aF0.7559345301357088
aF0.0
aF1.4142135623730951
aF-999.0
aF-999.0
aF0.0034082065747595798
aF0.0010642834642995334
aF0.3366141259408494
aF0.8779703188657962
aF0.0028757304842047323
aF0.0075541598888522596
aI-999
aF30635.982680100085
aI29
aa(lp151
g149
ag58
aS'1215'
p152
aF0.00256010831527492
aF0.00098535295874674
aF0.20000122720798924
aF1.088761285975015e-06
aF0.3405740484406174
aF0.8882987458445742
aF0.99
aF0.7559345301357088
aF0.0
aF1.4142135623730951
aF-999.0
aF-999.0
aF0.00256010831527492
aF0.00098535295874674
aF0.3405740484406174
aF0.8882987458445742
aF0.0021855453688747117
aF0.005762157259215124
aI-999
aF31636.57948966038
aI29
aa(lp153
g149
ag58
aS'2269'
p154
aF0.003602219615765487
aF0.0009268544461510538
aF0.2000034476052616
aF3.3903267595836173e-06
aF0.3346920734578939
aF0.8729571453199134
aF0.99
aF0.7559345301357088
aF0.0
aF1.4142135623730951
aF-999.0
aF-999.0
aF0.003602219615765487
aF0.0009268544461510538
aF0.3346920734578939
aF0.8729571453199134
aF0.0030220771562194113
aF0.007920562690844775
aI-999
aF28343.723322240243
aI29
aa(lp155
g149
ag58
aS'2389'
p156
aF0.002992313436066383
aF0.0011115957176565053
aF0.20003449218747302
aF6.055793665984965e-06
aF0.31630062342965454
aF0.8249878356524541
aF0.99
aF0.7559345301357088
aF0.0
aF1.4142135623730951
aF-999.0
aF-999.0
aF0.002992313436066383
aF0.0011115957176565053
aF0.31630062342965454
aF0.8249878356524541
aF0.0023724499804140833
aF0.006250365407660581
aI-999
aF28500.696672906855
aI29
aa(lp157
g149
ag58
aS'2589'
p158
aF0.0037113598443817416
aF1.814821824360714
aF0.20000310854036882
aF1.459543498522835
aF0.34519580584761783
aF1.0587048492022588
aF0.99
aF0.9454522104536923
aF0.0
aF2.3007775270083193
aF-999.0
aF-999.0
aF0.0037113598443817416
aF1.814821824360714
aF0.34519580584761783
aF1.0587048492022588
aF0.0032113564172308365
aF1.5703554998654239
aI-999
aF28885.43600691641
aI29
aa(lp159
g149
ag58
aS'sum'
p160
aF0.7303903267233397
aF3.6793036150481155
aF0.20000000566485399
aF1.1225308497545239
aF1.1
aF2.869063643877152
aF0.99
aF0.7559345301357088
aF0.0
aF1.4142135623730951
aF-999.0
aF-999.0
aF0.7303903267233397
aF3.6793036150481155
aF1.1
aF2.869063643877152
aF2.0138987489298676
aF11.424114871707989
aI-999
aF0.0003603410120412077
aI29
aa.