(lp0
(lp1
S'Scan'
p2
aS'Type'
p3
aS'BCID'
p4
aS'sigma'
p5
aS'sigmaErr'
p6
aS'sigmaRatio'
p7
aS'sigmaRatio_Err'
p8
aS'Amp'
p9
aS'AmpErr'
p10
aS'Frac'
p11
aS'FracErr'
p12
aS'Mean'
p13
aS'MeanErr'
p14
aS'CapSigma'
p15
aS'CapSigmaErr'
p16
aS'peak'
p17
aS'peakErr'
p18
aS'area'
p19
aS'areaErr'
p20
aS'fitStatus'
p21
aS'chi2'
p22
aS'ndof'
p23
aa(lp24
S'1'
p25
aS'Y'
p26
aS'644'
p27
aF0.10976995364655473
aF0.00010216323785451883
aF1.0000000257781734
aF4.233567186465008
aF0.830000000006879
aF0.036434251462684475
aF0.3367885023230988
aF0.0006711376631081678
aF1.1677180392554094e-11
aF0.7602311316237417
aF0.10976995364655473
aF0.00010216323785451883
aF0.830000000006879
aF0.036434251462684475
aF0.22837654969966512
aF0.010027227275783654
aI-999
aF3521.7929045917917
aI41
aa(lp28
g25
ag26
aS'1215'
p29
aF0.13041674464600014
aFnan
aF1.0
aFnan
aF0.83
aFnan
aF0.3676752336664804
aFnan
aF0.0
aFnan
aF0.13041674464600014
aFnan
aF0.83
aFnan
aF0.2713322286804459
aFnan
aI-999
aF62986.25883718593
aI41
aa(lp30
g25
ag26
aS'2269'
p31
aF0.09396728105035836
aF4.4764425440550424e-05
aF1.3980608532738628
aF0.40980773212890775
aF0.8298058956187245
aF0.002542598537746743
aF0.34286338056674864
aF0.0002891918804116822
aF-0.002065704769827912
aF0.0031678897631346125
aF0.09396728105035836
aF4.4764425440550424e-05
aF0.8298058956187245
aF0.002542598537746743
aF0.1954533466154243
aF0.0006060811936097863
aI-999
aF1215.3000453266309
aI42
aa(lp32
g25
ag26
aS'2389'
p33
aF0.09292982849810402
aF0.00039692466658954636
aF0.9998705807801695
aF0.005641518767806053
aF0.8299995471733257
aF0.05435544024284367
aF0.341829236643973
aF0.0009258430324270706
aF2.117982393071722e-06
aF0.06474405501238187
aF0.09292982849810402
aF0.00039692466658954636
aF0.8299995471733257
aF0.05435544024284367
aF0.1933405391243764
aF0.012688486622879575
aI-999
aF972.4744535623975
aI42
aa(lp34
g25
ag26
aS'2589'
p35
aF0.09337039859096757
aF0.0003384080971941976
aF0.9999969541429075
aF0.004315969647629259
aF0.8299992188116794
aF1.414948861042329
aF0.3381500035601895
aF0.0024334844744838824
aF2.1996746698792205e-07
aF1.4142135623880496
aF0.09337039859096757
aF0.0003384080971941976
aF0.8299992188116794
aF1.414948861042329
aF0.1942570684978716
aF0.33116228639758083
aI-999
aF1804.9752367827323
aI41
aa(lp36
g25
ag26
aS'sum'
p37
aF-0.002216149008866926
aF1058.29846002016
aF1.0000590188997909
aF2.290032293004402
aF0.8300000000039852
aF1.4149492572868843
aF0.22000000000007125
aF3.622391809120835
aF8.148554342405205e-17
aF1.4142135623730951
aF-0.002216149008866926
aF1058.29846002016
aF0.8300000000039852
aF1.4149492572868843
aF-0.00461070126615182
aF2201.791499619134
aI-999
aF0.04840000000003135
aI42
aa(lp38
S'2'
p39
aS'X'
p40
aS'644'
p41
aF0.10642048097373374
aF0.0002879806056410217
aF0.9999987087823042
aF0.006929814474731288
aF0.8299999447353594
aF1.4149492292530652
aF0.3040447121010541
aF0.001959515347064511
aF2.1922880895336535e-08
aF1.4142135623730965
aF0.10642048097373374
aF0.0002879806056410217
aF0.8299999447353594
aF1.4149492292530652
aF0.22140795214292397
aF0.37744750214811973
aI-999
aF1353.8097586984634
aI42
aa(lp42
g39
ag40
aS'1215'
p43
aF0.10409315594758352
aF0.00026109660717891006
aF0.9999976553902981
aF0.005669509047911858
aF0.8299997380408981
aF1.4149491244117316
aF0.3191727656637757
aF0.0020010493847347766
aF1.0252730289028507e-07
aF1.4142135623732877
aF0.10409315594758352
aF0.00026109660717891006
aF0.8299997380408981
aF1.4149491244117316
aF0.2165658954007282
aF0.36919295479355696
aI-999
aF1027.7412402351422
aI41
aa(lp44
g39
ag40
aS'2269'
p45
aF0.1042245301536895
aF0.0002922896755174893
aF0.999996651523015
aF0.006392022768139827
aF0.8299995241863924
aF1.414949015938079
aF0.31961988662525936
aF0.0021259925593734574
aF2.0893383958045422e-07
aF1.4142135623866456
aF0.1042245301536895
aF0.0002922896755174893
aF0.8299995241863924
aF1.414949015938079
aF0.2168391636731666
aF0.36965897867362574
aI-999
aF1346.174435048066
aI42
aa(lp46
g39
ag40
aS'2389'
p47
aF0.1053907815590702
aF0.0003066379393575649
aF0.9999464971890621
aF0.008064452437732628
aF0.8299225318446037
aF1.4149099596229269
aF0.3176346859089063
aF0.002102326394801457
aF3.0988867470783454e-05
aF1.4142136089851383
aF0.1053907815590702
aF0.0003066379393575649
aF0.8299225318446037
aF1.4149099596229269
aF0.21924521055169413
aF0.3737851086703052
aI-999
aF2604.2517390314156
aI42
aa(lp48
g39
ag40
aS'2589'
p49
aF0.10400393000415493
aF0.0002955385603411024
aF0.9999928947187896
aF0.007738632318347871
aF0.829998503080267
aF1.414948497992437
aF0.3224711952934302
aF0.0021216693419359722
aF5.060941078634453e-07
aF1.414213562554278
aF0.10400393000415493
aF0.0002955385603411024
aF0.829998503080267
aF1.414948497992437
aF0.21637993879979697
aF0.3688764420630046
aI-999
aF923.8033843067635
aI41
aa(lp50
g39
ag40
aS'sum'
p51
aF-0.002216149008866926
aF1058.29846002016
aF1.0000590188997909
aF2.290032293004402
aF0.8300000000039852
aF1.4149492572868843
aF0.22000000000007125
aF3.622391808841902
aF8.148554342405205e-17
aF1.4142135623730951
aF-0.002216149008866926
aF1058.29846002016
aF0.8300000000039852
aF1.4149492572868843
aF-0.00461070126615182
aF2201.791499619134
aI-999
aF0.048400000000031265
aI42
aa(lp52
S'3'
p53
ag26
aS'644'
p54
aF0.09980521685524649
aF0.0002541534059563062
aF0.9999985128896096
aF0.0069339397558737526
aF0.8299999382664269
aF1.4149492259718386
aF0.2909918459813437
aF0.001513844762116523
aF3.952052567242165e-08
aF1.4142135623730954
aF0.09980521685524649
aF0.0002541534059563062
aF0.8299999382664269
aF1.4149492259718386
aF0.207644884731612
aF0.353984721165889
aI-999
aF907.5463448558495
aI41
aa(lp55
g53
ag26
aS'1215'
p56
aF0.09990163358098751
aF1.7077063902037736e-09
aF0.9999986225940971
aF1.947932914969641e-08
aF0.8299998855208074
aF1.5971786274104893e-06
aF0.2990235519337443
aF6.821619380481536e-09
aF1.6831159615150956e-08
aF4.617987937179541e-05
aF0.09990163358098751
aF1.7077063902037736e-09
aF0.8299998855208074
aF1.5971786274104893e-06
aF0.20784546664777
aF3.9997527752298205e-07
aI-999
aF2954.0347211609137
aI42
aa(lp57
g53
ag26
aS'2269'
p58
aF0.10007901383157361
aF0.0002693933780172026
aF0.9999999480452957
aF0.0003308105976049247
aF1.3218146122368912
aF1.6034244453035198
aF0.2932935842284413
aF0.0014950933486428397
aF35.578442605429274
aF1.4141380027948347
aF0.10007901383157361
aF0.0002693933780172026
aF1.3218146122368912
aF1.6034244453035198
aF0.3315915844460513
aF0.40223746694652585
aI-999
aF1284.4094520234366
aI42
aa(lp59
g53
ag26
aS'2389'
p60
aF0.10038762325699517
aF0.00027343875899839314
aF0.9999947063164092
aF0.006809033824262345
aF0.829998964594046
aF1.4149487320942138
aF0.292675344022301
aF0.0015802072247411425
aF4.4017385184586473e-07
aF1.4142135624515337
aF0.10038762325699517
aF0.00027343875899839314
aF0.829998964594046
aF1.4149487320942138
aF0.2088563370057478
aF0.35605030736146764
aI-999
aF1428.7368025763817
aI42
aa(lp61
g53
ag26
aS'2589'
p62
aF0.09935717431826747
aF0.00026961438949032167
aF0.9999935105821247
aF0.007364765046278032
aF0.8299986969308675
aF1.414948596329935
aF0.2957406729358557
aF0.0016023177075565054
aF4.832402551212582e-07
aF1.4142135623879204
aF0.09935717431826747
aF0.00026961438949032167
aF0.8299986969308675
aF1.414948596329935
aF0.20671242248857136
aF0.3523955202198566
aI-999
aF1758.7936445190373
aI42
aa(lp63
g53
ag26
aS'sum'
p64
aF-0.0024656778693398175
aF0.03498577378359274
aF1.0000281789011018
aF2.2900641549978733
aF0.83
aF1.4149492572848628
aF0.27873785643844445
aF3.4558567800410973
aF1.3177486367952682e-16
aF1.4142135623730951
aF-0.0024656778693398175
aF0.03498577378359274
aF0.83
aF1.4149492572848628
aF-0.005129846426637858
aF0.0733114166412462
aI-999
aF0.07769479261189886
aI42
aa(lp65
S'4'
p66
ag40
aS'644'
p67
aF0.11029109478594373
aF0.00026495796486021746
aF0.9999979950000537
aF0.005806681072926034
aF0.6405421229663975
aF1.309171139378985
aF0.28944849707456877
aF0.0014538925787239976
aF2.3244744692920304e-08
aF1.4142135623746959
aF0.11029109478594373
aF0.00026495796486021746
aF0.6405421229663975
aF1.309171139378985
aF0.17708349169556423
aF0.3619321016111819
aI-999
aF737.525573433627
aI42
aa(lp68
g66
ag40
aS'1215'
p69
aF0.10863995065290287
aF0.00025873037429887747
aF0.9999960357071183
aF0.007794221448562899
aF0.8299995739716707
aF1.4149490411875696
aF0.29533414688302706
aF0.0014428217723928272
aF1.0595938038049242e-07
aF1.414213562405214
aF0.10863995065290287
aF0.00025873037429887747
aF0.8299995739716707
aF1.4149490411875696
aF0.2260254607946761
aF0.38531925935721145
aI-999
aF766.838680193693
aI42
aa(lp70
g66
ag40
aS'2269'
p71
aF0.10956002190023392
aF0.0002866679581751491
aF1.0000008121242356
aF0.006885275796819912
aF0.2855556391024823
aF1.0440504585308334
aF0.29660543324335026
aF0.0015100257801878292
aF2.585192383165632e-09
aF1.4142135623730958
aF0.10956002190023392
aF0.0002866679581751491
aF0.2855556391024823
aF1.0440504585308334
aF0.07842107395165653
aF0.2867237342645605
aI-999
aF932.4101718774233
aI42
aa(lp72
g66
ag40
aS'2389'
p73
aF0.11062737387314528
aF0.00028153099180903946
aF1.0000000012986061
aF4.993887458837332e-06
aF0.5914821256574275
aF1.2783857977391464
aF0.29210450645787095
aF0.0014996505801679882
aF1359.3850693006582
aF1.4142135623730951
aF0.11062737387314528
aF0.00028153099180903946
aF0.5914821256574275
aF1.2783857977391464
aF0.16401900091548166
aF0.35449880492301306
aI-999
aF890.5176670506698
aI42
aa(lp74
g66
ag40
aS'2589'
p75
aF0.11033576386356231
aF0.00029677398905390026
aF0.9999991158163651
aF0.007589660120984332
aF0.8299999792463011
aF1.414949246757994
aF0.2994166651469163
aF0.0015239550776776911
aF1.5406267181823806e-09
aF1.414213562373097
aF0.11033576386356231
aF0.00029677398905390026
aF0.8299999792463011
aF1.414949246757994
aF0.22955371294496818
aF0.39133405497511226
aI-999
aF1026.2938043583442
aI42
aa(lp76
g66
ag40
aS'sum'
p77
aF-0.002216149008866926
aF1058.29846002016
aF1.0000590188997909
aF2.290032293004402
aF0.8300000000039852
aF1.236366683370389
aF0.22000243764670888
aF3.75238144683306
aF8.148554342405205e-17
aF12.856344479638098
aF-0.002216149008866926
aF1058.29846002016
aF0.8300000000039852
aF1.236366683370389
aF-0.00461070126615182
aF2201.791499615816
aI-999
aF3.481130010758013e-24
aI42
aa(lp78
S'5'
p79
ag26
aS'644'
p80
aF0.09845419045443309
aF0.00039237356844655155
aF0.5132397842987362
aF0.030305100476674562
aF0.9486583331016911
aF0.010406682371511267
aF0.29036434470106154
aF0.0027489383562435965
aF0.034305528756436214
aF0.024973583435988253
aF0.09845419045443309
aF0.00039237356844655155
aF0.9486583331016911
aF0.010406682371511267
aF0.2341175473038267
aF0.0027324792061007934
aI-999
aF95.71393499970713
aI30
aa(lp81
g79
ag26
aS'1215'
p82
aF0.0972615284037792
aF3.287258175769028e-11
aF0.5909453263204442
aF1.6896130605736914e-09
aF0.9355043532127711
aF1.6368740252126202e-09
aF0.2961688546240951
aF2.0699153502334866e-10
aF0.05467146261390373
aF4.4143169170409e-08
aF0.0972615284037792
aF3.287258175769028e-11
aF0.9355043532127711
aF1.6368740252126202e-09
aF0.2280745553725377
aF4.0644421530067556e-10
aI-999
aF53.26334465120108
aI30
aa(lp83
g79
ag26
aS'2269'
p84
aF0.097498630833366
aF0.0004078131476135051
aF0.5866369469772083
aF0.0279178974758314
aF0.9084197106250922
aF0.021395716487444538
aF0.2997014006317614
aF0.002744882846299729
aF0.09237242945354537
aF0.03505301831521819
aF0.097498630833366
aF0.0004078131476135051
aF0.9084197106250922
aF0.021395716487444538
aF0.2220112591697888
aF0.005310776987112271
aI-999
aF59.66715603867064
aI30
aa(lp85
g79
ag26
aS'2389'
p86
aF0.09751592166253202
aF0.00043944481593950443
aF0.5841039919683555
aF0.031028247435974432
aF0.8844368904828432
aF0.031569080436241403
aF0.29707684908271564
aF0.002625665874500721
aF0.1883951331223336
aF0.04421589827165167
aF0.09751592166253202
aF0.00043944481593950443
aF0.8844368904828432
aF0.031569080436241403
aF0.21618836299073957
aF0.007777880423108488
aI-999
aF74.79643058601927
aI30
aa(lp87
g79
ag26
aS'2589'
p88
aF0.09796045913328313
aFnan
aF0.5002194326749427
aFnan
aF0.9556926184021564
aFnan
aF0.29427951329252444
aFnan
aF0.0050537713296117046
aFnan
aF0.09796045913328313
aFnan
aF0.9556926184021564
aFnan
aF0.23467075887459274
aFnan
aI-999
aF80.307082494806
aI30
aa(lp89
g79
ag26
aS'sum'
p90
aF0.0017603471181259448
aF0.03188979280119074
aF1.0
aF2.290093268443689
aF0.83
aF1.4149492572848628
aF0.22000000042675874
aF3.6223691592451877
aF-5.2140821649366264e-17
aF1.4142135623730951
aF0.0017603471181259448
aF0.03188979280119074
aF0.83
aF1.4149492572848628
aF0.0036624047633515427
aF0.06663988393855715
aI-999
aF0.04840000019496934
aI30
aa(lp91
S'6'
p92
ag40
aS'644'
p93
aF0.10827992288752314
aF0.0003908148495967858
aF0.6241200927588796
aF0.05701974045377722
aF0.9418495084289678
aF0.02535038258660971
aF0.2872259539992068
aF0.0023517479198635616
aF0.0034640747385591853
aF0.031828542223313196
aF0.10827992288752314
aF0.0003908148495967858
aF0.9418495084289678
aF0.02535038258660971
aF0.25563445429178416
aF0.006942125478766048
aI-999
aF27.66648262573252
aI30
aa(lp94
g92
ag40
aS'1215'
p95
aF0.10712425487935268
aF0.0003780011841255095
aF0.65782120853884
aF0.04132339887481068
aF0.9170865127413951
aF0.02637244552125123
aF0.29747188982800754
aF0.0023425908870670364
aF0.015489376579449429
aF0.036435285879364177
aF0.10712425487935268
aF0.0003780011841255095
aF0.9170865127413951
aF0.02637244552125123
aF0.2462566996871588
aF0.007134660438162521
aI-999
aF63.360927780578905
aI30
aa(lp96
g92
ag40
aS'2269'
p97
aF0.1081968395361345
aF0.0004481434150014713
aF1.5022551559447188
aF0.19304867979006357
aF0.0779399414978802
aF0.06507299149187684
aF0.2947575809174858
aF0.002257213261985802
aF0.9268186877901956
aF0.06291883745506659
aF0.1081968395361345
aF0.0004481434150014713
aF0.0779399414978802
aF0.06507299149187684
aF0.021138033640396188
aF0.01764861485488704
aI-999
aF32.67927678501166
aI30
aa(lp98
g92
ag40
aS'2389'
p99
aF0.10922412531919418
aF2.1186217685137584e-09
aF0.5004456500204646
aF1.381670777789168e-09
aF0.973143853734603
aF5.208046216509388e-10
aF0.2882574364255913
aF8.36956226546448e-09
aF-0.02083671816052718
aF4.041710266810891e-10
aF0.10922412531919418
aF2.1186217685137584e-09
aF0.973143853734603
aF5.208046216509388e-10
aF0.26643149010668293
aF5.1699417320398366e-09
aI-999
aF44.1089634216355
aI30
aa(lp100
g92
ag40
aS'2589'
p101
aF0.1078303332697376
aF0.0003759631829943194
aF0.5000000421670011
aF0.04867846825713379
aF0.9683313199694372
aF0.0044719455745579895
aF0.29271146923839336
aF0.0027218669578407684
aF0.016724393251448366
aF0.022654577112937942
aF0.1078303332697376
aF0.0003759631829943194
aF0.9683313199694372
aF0.0044719455745579895
aF0.2617308169060497
aF0.0015145206128653796
aI-999
aF37.73972865779676
aI30
aa(lp102
g92
ag40
aS'sum'
p103
aF0.0017603471181259448
aF0.03188979280119074
aF1.0
aF2.290093268443689
aF0.83
aF1.4149492572848628
aF0.22000000042675874
aF3.6223691592451877
aF-5.2140821649366264e-17
aF1.4142135623730951
aF0.0017603471181259448
aF0.03188979280119074
aF0.83
aF1.4149492572848628
aF0.0036624047633515427
aF0.06663988393855715
aI-999
aF0.04840000019496934
aI30
aa(lp104
S'7'
p105
ag26
aS'644'
p106
aF0.09919578034690182
aF0.0004740319393944777
aF0.545227008414835
aF0.061509927323561586
aF0.9336066202889662
aF0.028417131260436712
aF0.2897336558831185
aF0.002575487316851588
aF0.10924967983594429
aF0.041905482359201655
aF0.09919578034690182
aF0.0004740319393944777
aF0.9336066202889662
aF0.028417131260436712
aF0.2321384365262306
aF0.007152385080113856
aI-999
aF127.09253342880919
aI30
aa(lp107
g105
ag26
aS'1215'
p108
aF0.09719448045224938
aF0.00038093990124802674
aF0.5198490420678016
aF0.03501599279840967
aF0.9481282195132169
aF0.012294106440058405
aF0.30323469643526657
aF0.0026959323326608
aF0.08807698558260135
aF0.0265112231565733
aF0.09719448045224938
aF0.00038093990124802674
aF0.9481282195132169
aF0.012294106440058405
aF0.2309928885075186
aF0.003129054309746675
aI-999
aF86.75511741017066
aI30
aa(lp109
g105
ag26
aS'2269'
p110
aF0.09848951322527853
aF0.00037040525392242896
aF0.5000071701213135
aF0.020324241677016464
aF0.9507341006964456
aF0.0035501658877770126
aF0.29215344592749243
aF0.0028435233153775996
aF0.041052500354867176
aF0.024106306728081055
aF0.09848951322527853
aF0.00037040525392242896
aF0.9507341006964456
aF0.0035501658877770126
aF0.2347140009578428
aF0.0012439355481193386
aI-999
aF120.11197641680467
aI30
aa(lp111
g105
ag26
aS'2389'
p112
aF0.09904167788777513
aF0.00042489729024021173
aF0.5134089232713387
aF0.029245337695849694
aF0.9361279649354991
aF0.015676777194929492
aF0.292637016522023
aF0.0029133672751261996
aF0.0973203751205435
aF0.03379475743121793
aF0.09904167788777513
aF0.00042489729024021173
aF0.9361279649354991
aF0.015676777194929492
aF0.23240375593077192
aF0.004017607536196317
aI-999
aF132.14596229030613
aI30
aa(lp113
g105
ag26
aS'2589'
p114
aF0.0982420506301691
aFnan
aF0.500522457241737
aFnan
aF0.956290634918765
aFnan
aF0.29252312290035304
aFnan
aF0.02987930765017789
aFnan
aF0.0982420506301691
aFnan
aF0.956290634918765
aFnan
aF0.23549259526543895
aFnan
aI-999
aF80.71980906767345
aI30
aa(lp115
g105
ag26
aS'sum'
p116
aF0.0017603471181259448
aF0.03188979280119074
aF1.0
aF2.290093268443689
aF0.83
aF1.4149492572848628
aF0.22000000042675874
aF3.6223691592451877
aF-5.2140821649366264e-17
aF1.4142135623730951
aF0.0017603471181259448
aF0.03188979280119074
aF0.83
aF1.4149492572848628
aF0.0036624047633515427
aF0.06663988393855715
aI-999
aF0.04840000019496934
aI30
aa(lp117
S'8'
p118
ag40
aS'644'
p119
aF0.1079435348485906
aF0.0004484710149460285
aF1.8187237738775826
aF0.27591238177357524
aF0.03590689590184881
aF0.022203007512447637
aF0.284130416907068
aF0.0025139305067087836
aF1.004714062453556
aF0.028488153260047406
aF0.1079435348485906
aF0.0004484710149460285
aF0.03590689590184881
aF0.022203007512447637
aF0.009715483816821368
aF0.006007699185816361
aI-999
aF27.16070784882843
aI30
aa(lp120
g118
ag40
aS'1215'
p121
aF0.10700263581658023
aF1.0000009999995
aF0.5444983020127632
aF2.5818977208474765
aF0.9633181417473965
aF1.4120752947708721
aF0.29455886335064707
aF0.8884325534106177
aF0.9913452775381254
aF1.0000349035464648
aF0.10700263581658023
aF1.0000009999995
aF0.9633181417473965
aF1.4120752947708721
aF0.25837717725276055
aF2.444205033417961
aI-999
aF56.493082393851054
aI30
aa(lp122
g118
ag40
aS'2269'
p123
aF0.1081232385528195
aF0.0009326835511724359
aF2.5702839551710097
aF1.2495653290189557
aF0.015135214518903872
aF0.01229440845977059
aF0.28657389161293323
aF0.003029656275754994
aF1.016790243057226
aF0.022260605063076172
aF0.1081232385528195
aF0.0009326835511724359
aF0.015135214518903872
aF0.01229440845977059
aF0.004102017986985126
aF0.0033322770610520313
aI-999
aF41.300800850008926
aI30
aa(lp124
g118
ag40
aS'2389'
p125
aF0.10772955743548222
aF0.0004129185035486412
aF0.5581882246053292
aF0.053320386936479836
aF0.9575262202354738
aF0.015043934032258954
aF0.2857170606970584
aF0.002584582495362614
aF-0.002174290710093493
aF0.027045945873884206
aF0.10772955743548222
aF0.0004129185035486412
aF0.9575262202354738
aF0.015043934032258954
aF0.25856842206606895
aF0.004181576960982647
aI-999
aF75.65732176370412
aI30
aa(lp126
g118
ag40
aS'2589'
p127
aF0.10783628215397888
aF0.0003684472609074305
aF0.5000000018660004
aF0.05111682304868037
aF0.9766702520685964
aF0.004733745329589367
aF0.28683729468542213
aF0.002730941789455099
aF-0.03376143063978896
aF0.02329583642162284
aF0.10783628215397888
aF0.0003684472609074305
aF0.9766702520685964
aF0.004733745329589367
aF0.2639993153081916
aF0.0015655337367425726
aI-999
aF50.004169013421375
aI30
aa(lp128
g118
ag40
aS'sum'
p129
aF0.0017603471181259448
aF0.03188979280119074
aF1.0
aF2.290093268443689
aF0.83
aF1.4149492572848628
aF0.22000000042675874
aF3.6223691592451877
aF-5.2140821649366264e-17
aF1.4142135623730951
aF0.0017603471181259448
aF0.03188979280119074
aF0.83
aF1.4149492572848628
aF0.0036624047633515427
aF0.06663988393855715
aI-999
aF0.04840000019496934
aI30
aa.