(lp0
(lp1
S'Scan'
p2
aS'Type'
p3
aS'BCID'
p4
aS'sigma'
p5
aS'sigmaErr'
p6
aS'sigmaRatio'
p7
aS'sigmaRatio_Err'
p8
aS'Amp'
p9
aS'AmpErr'
p10
aS'Frac'
p11
aS'FracErr'
p12
aS'Mean'
p13
aS'MeanErr'
p14
aS'CapSigma'
p15
aS'CapSigmaErr'
p16
aS'peak'
p17
aS'peakErr'
p18
aS'area'
p19
aS'areaErr'
p20
aS'fitStatus'
p21
aS'chi2'
p22
aS'ndof'
p23
aa(lp24
S'1'
p25
aS'Y'
p26
aS'644'
p27
aF0.09169327734211717
aF0.0003923726789741147
aF0.9999962745816473
aF0.010298570663560769
aF0.3223323198089312
aF0.0022598625360982505
aF0.9900000162781969
aF0.7559344974134888
aF-0.0008754084309249639
aF0.0005106945584232571
aF0.09169327734211717
aF0.0003923726789741147
aF0.3223323198089312
aF0.0022598625360982505
aF0.07408517033298181
aF0.0006085146599981254
aI-999
aF1125.7321689263301
aI40
aa(lp28
g25
ag26
aS'1215'
p29
aF0.0907892622102611
aF0.0003850455236537637
aF0.9999921183754926
aF0.012683529279657102
aF0.33027734114599405
aF0.0022865777303683332
aF0.9899999881628245
aF0.755934553930775
aF-0.0013418916230395438
aF0.0004999294739265166
aF0.0907892622102611
aF0.0003850455236537637
aF0.33027734114599405
aF0.0022865777303683332
aF0.0751628433497665
aF0.0006102446210939338
aI-999
aF940.5708580292991
aI40
aa(lp30
g25
ag26
aS'2269'
p31
aF0.09075104590252814
aF0.0004062909632471062
aF0.9999925957698643
aF0.012831402388194524
aF0.33269432601183396
aF0.0024232162733491824
aF0.9899999961995325
aF0.7559345377765466
aF-0.0004467304855714706
aF0.0005223297208389021
aF0.09075104590252814
aF0.0004062909632471062
aF0.33269432601183396
aF0.0024232162733491824
aF0.07568101836944875
aF0.0006470367814816413
aI-999
aF1059.1082105434434
aI41
aa(lp32
g25
ag26
aS'2389'
p33
aF0.09051124470012036
aF0.0004044352067555296
aF0.9999956201334829
aF0.012860751986045138
aF0.3321874238660878
aF0.0023982228807090944
aF0.9900000043335746
aF0.7559345214244997
aF-0.00017636363158126628
aF0.0005156499810481147
aF0.09051124470012036
aF0.0004044352067555296
aF0.3321874238660878
aF0.0023982228807090944
aF0.07536603334595592
aF0.0006398885936263883
aI-999
aF955.2118369958938
aI41
aa(lp34
g25
ag26
aS'2589'
p35
aF0.09045860752159311
aF0.000396699486505535
aF0.9999931629538945
aF0.00959832106132863
aF0.33815270596875324
aF0.0024397077629313146
aF0.9900000125912776
aF0.7559345048250292
aF0.00036122643669754973
aF0.0005201587777274852
aF0.09045860752159311
aF0.000396699486505535
aF0.33815270596875324
aF0.0024397077629313146
aF0.07667480839787738
aF0.0006473708632230312
aI-999
aF1804.4929765914999
aI40
aa(lp36
g25
ag26
aS'sum'
p37
aF-0.00213002319203164
aF3.3648009906889667
aF2.0691400869464376
aF3.4335421286740693
aF0.5043372588874984
aF3.045532631873109
aF0.9999385354446491
aF0.7071162459292415
aF-0.00959844593462625
aF14.573572740127384
aF-0.00213002319203164
aF3.3648009906889667
aF0.5043372588874984
aF3.045532631873109
aF-0.002692745569497123
aF4.253765495947118
aI-999
aF3.8635490919552164e-10
aI41
aa(lp38
S'2'
p39
aS'X'
p40
aS'644'
p41
aF0.10349311412948776
aF0.00034815793549411136
aF0.9999742373798527
aF0.015611511753701013
aF0.30442480528921073
aF0.001975216567691007
aF0.9899998267136731
aF0.7559348789430091
aF0.00400428213339648
aF0.00046977594512220686
aF0.10349311412948776
aF0.00034815793549411136
aF0.30442480528921073
aF0.001975216567691007
aF0.07897350736036508
aF0.0005771862596597352
aI-999
aF1279.8771176382627
aI41
aa(lp42
g39
ag40
aS'1215'
p43
aF0.1013915115119665
aF0.0003258357476246731
aF0.99999376876048
aF0.013360742344143528
aF0.3196413084065389
aF0.002017660097456714
aF0.9899999916802995
aF0.7559345468599564
aF0.004540973347251185
aF0.0004509487684121265
aF0.1013915115119665
aF0.0003258357476246731
aF0.3196413084065389
aF0.002017660097456714
aF0.08123710369427475
aF0.0005754210801077946
aI-999
aF924.0431822945042
aI40
aa(lp44
g39
ag40
aS'2269'
p45
aF0.10129569355242633
aF0.00035124134041362943
aF0.9999790647680623
aF0.014634982403644525
aF0.3201185763548031
aF0.002136489236251926
aF0.9899998751091875
aF0.7559347812217501
aF0.0030894911941722033
aF0.00047498560870202675
aF0.10129569355242633
aF0.00035124134041362943
aF0.3201185763548031
aF0.002136489236251926
aF0.08128151565746822
aF0.0006113238706304052
aI-999
aF1303.1722237911608
aI41
aa(lp46
g39
ag40
aS'2389'
p47
aF0.10200235911214073
aF0.00035016495372770014
aF0.9998721531971014
aF0.016050918975277106
aF0.3178603338122119
aF0.0021170182101094837
aF0.9899963060013561
aF0.7559419600381992
aF0.003418029385809855
aF0.000466546574069935
aF0.10200235911214073
aF0.00035016495372770014
aF0.3178603338122119
aF0.0021170182101094837
aF0.08127116505273209
aF0.0006089555674295448
aI-999
aF2549.5166976089795
aI41
aa(lp48
g39
ag40
aS'2589'
p49
aF0.10099371936687257
aF0.00033554833006836285
aF0.999995191528832
aF0.011574407302754053
aF0.3227326451577139
aF0.002126792695474944
aF0.990000008026336
aF0.7559345140012462
aF0.003529130405632305
aF0.0004727362660222523
aF0.10099371936687257
aF0.00033554833006836285
aF0.3227326451577139
aF0.002126792695474944
aF0.08170096727473754
aF0.000602963426123243
aI-999
aF867.2020089251713
aI40
aa(lp50
g39
ag40
aS'sum'
p51
aF-0.00213002319203164
aF3.3648009906889667
aF2.0691400869464376
aF3.4335421286740693
aF0.5043372588874984
aF3.045532631873109
aF0.9999385354446491
aF0.7071162459292415
aF-0.00959844593462625
aF14.573572740127384
aF-0.00213002319203164
aF3.3648009906889667
aF0.5043372588874984
aF3.045532631873109
aF-0.002692745569497123
aF4.253765495947118
aI-999
aF3.8635490919552164e-10
aI41
aa(lp52
S'3'
p53
ag26
aS'644'
p54
aF0.09798254451367493
aF0.0003080750099793293
aF0.9999955441220952
aF0.01425727994365833
aF0.29095441962998086
aF0.001483629543124032
aF0.9899999976278405
aF0.7559345349053025
aF0.00037626908473139425
aF0.0004080097107405157
aF0.09798254451367493
aF0.0003080750099793293
aF0.29095441962998086
aF0.001483629543124032
aF0.07146009779700119
aF0.00042809037060383446
aI-999
aF906.6958136811764
aI40
aa(lp55
g53
ag26
aS'1215'
p56
aF0.09673084638722458
aF0.0002918248467993353
aF0.9999909280125994
aF0.00862326205673114
aF0.29895257752623083
aF0.0015208805606003462
aF0.9900000109533257
aF0.7559345081177503
aF0.0004820905960919767
aF0.0003961653474774827
aF0.09673084638722458
aF0.0002918248467993353
aF0.29895257752623083
aF0.0015208805606003462
aF0.07248651565498704
aF0.0004287306561792566
aI-999
aF2952.548644241893
aI41
aa(lp57
g53
ag26
aS'2269'
p58
aF0.09736057938912089
aF0.0003212733950704243
aF0.9999966487514975
aF0.011716579472487498
aF0.2932657234153067
aF0.0016046723412813102
aF0.9900000089973631
aF0.755934512049298
aF0.0008267721363658386
aF0.0004211359022763841
aF0.09736057938912089
aF0.0003212733950704243
aF0.2932657234153067
aF0.0016046723412813102
aF0.0715705558156262
aF0.00045731717432194154
aI-999
aF1280.5539198312742
aI41
aa(lp59
g53
ag26
aS'2389'
p60
aF0.09789571860262507
aF0.0003230287270147896
aF0.9999937240076299
aF0.014327666402888295
aF0.29265849388364845
aF0.0015856329747232778
aF0.9899999955154289
aF0.755934539150722
aF0.0005450321845805381
aF0.0004203013418487826
aF0.09789571860262507
aF0.0003230287270147896
aF0.29265849388364845
aF0.0015856329747232778
aF0.07181493406783772
aF0.00045557639920659635
aI-999
aF1427.0537049301975
aI41
aa(lp61
g53
ag26
aS'2589'
p62
aF0.09680740263284905
aF0.00031695724460391604
aF0.9999958100329784
aF0.01105323845169598
aF0.2957274327309928
aF0.0016187921605531064
aF0.9900000171298919
aF0.7559344957013929
aF0.0003115677198895431
aF0.00042062517880373505
aF0.09680740263284905
aF0.00031695724460391604
aF0.2957274327309928
aF0.0016187921605531064
aF0.07176126987884232
aF0.0004577203717267713
aI-999
aF1758.2442558420623
aI41
aa(lp63
g53
ag26
aS'sum'
p64
aF-0.00213002319203164
aF3.3648009906889667
aF2.0691400869464376
aF3.4335421286740693
aF0.5043372588874984
aF3.045532631873109
aF0.9999385354446491
aF0.7071162459292415
aF-0.00959844593462625
aF14.573572740127384
aF-0.00213002319203164
aF3.3648009906889667
aF0.5043372588874984
aF3.045532631873109
aF-0.002692745569497123
aF4.253765495947118
aI-999
aF3.8635490919552164e-10
aI41
aa(lp65
S'4'
p66
ag40
aS'644'
p67
aF0.10666643425531704
aF0.00031779418669555126
aF0.9999983340188802
aF0.016747990422918968
aF0.2896830669229939
aF0.0014443642059619732
aF0.9900000025585297
aF0.7559345249925777
aF0.0029510707898266725
aF0.0004289103312186856
aF0.10666643425531704
aF0.00031779418669555126
aF0.2896830669229939
aF0.0014443642059619732
aF0.07745345963763926
aF0.00044987552378470585
aI-999
aF690.2811707275737
aI41
aa(lp68
g66
ag40
aS'1215'
p69
aF0.10593408435639359
aF0.0003077341037480529
aF0.9999927518774923
aF0.015740316596960235
aF0.2956590317146307
aF0.0014399146532234897
aF0.9899999968603861
aF0.7559345364478438
aF0.003283963079254595
aF0.00041749630018909515
aF0.10593408435639359
aF0.0003077341037480529
aF0.2956590317146307
aF0.0014399146532234897
aF0.07850852202196129
aF0.00044520285871847324
aI-999
aF707.552921866034
aI41
aa(lp70
g66
ag40
aS'2269'
p71
aF0.10573516624928005
aF0.00032015736441760244
aF0.9999959677141366
aF0.017207007761818383
aF0.29667214577436285
aF0.0015182839105186696
aF0.9900000021340365
aF0.7559345258458929
aF0.002050212722462405
aF0.00043854046507725434
aF0.10573516624928005
aF0.00032015736441760244
aF0.29667214577436285
aF0.0015182839105186696
aF0.07862961685439407
aF0.00046756072707414476
aI-999
aF910.568246603616
aI41
aa(lp72
g66
ag40
aS'2389'
p73
aF0.10723051561405603
aF0.0003336922786103481
aF0.9999957358940137
aF0.01880771210057075
aF0.2921644088763963
aF0.0014990207569111624
aF0.9900000003280991
aF0.7559345294763369
aF0.0014954075081409705
aF0.0004426204578982531
aF0.10723051561405603
aF0.0003336922786103481
aF0.2921644088763963
aF0.0014990207569111624
aF0.07853000733932575
aF0.000471235990299493
aI-999
aF879.1079151366881
aI41
aa(lp74
g66
ag40
aS'2589'
p75
aF0.10555579373356819
aF0.00031705602117951384
aF0.9999982343600454
aF0.016120463734229984
aF0.29967656328515935
aF0.0015288157534175395
aF0.9900000038026955
aF0.7559345224915669
aF0.0021139591620879484
aF0.00024252515070541896
aF0.10555579373356819
aF0.00031705602117951384
aF0.29967656328515935
aF0.0015288157534175395
aF0.07929116329581012
aF0.00046941402423415036
aI-999
aF1003.002067228398
aI41
aa(lp76
g66
ag40
aS'sum'
p77
aF-0.00213002319203164
aF3.3648009906889667
aF2.0691400869464376
aF3.4335421286740693
aF0.5043372588874984
aF3.045532631873109
aF0.9999385354446491
aF0.7071162459292415
aF-0.00959844593462625
aF14.573572740127384
aF-0.00213002319203164
aF3.3648009906889667
aF0.5043372588874984
aF3.045532631873109
aF-0.002692745569497123
aF4.253765495947118
aI-999
aF3.8635490919552164e-10
aI41
aa(lp78
S'5'
p79
ag26
aS'644'
p80
aF0.10085470901776274
aF0.0006129004405163392
aF0.10000012508810466
aF0.13900381411319992
aF0.2902821324901763
aF0.0019708455842152306
aF0.9949668022827124
aF0.0008758732396305646
aF0.0016981982346475325
aF0.0005191957203939418
aF0.10085470901776274
aF0.0006129004405163392
aF0.2902821324901763
aF0.0019708455842152306
aF0.07338485150256148
aF0.0006686759053106458
aI-999
aF40.83753905443288
aI29
aa(lp81
g79
ag26
aS'1215'
p82
aF0.09858684287891444
aF0.0005401861241618511
aF0.10004479914413286
aF0.2861156423814732
aF0.2950192476155859
aF0.0019792775718778244
aF0.9976267882012693
aF0.0007284614214285168
aF0.0016425873279393066
aF0.000504388136768355
aF0.09858684287891444
aF0.0005401861241618511
aF0.2950192476155859
aF0.0019792775718778244
aF0.07290532400242646
aF0.0006315176247938662
aI-999
aF21.85551293800073
aI29
aa(lp83
g79
ag26
aS'2269'
p84
aF0.09668559956735066
aF0.0004731869423305734
aF0.433056854323958
aF0.0870843972359222
aF0.29741556693161575
aF0.002146199199420662
aF0.9873179392223458
aF0.0061086737054742435
aF0.0008243715843422373
aF0.0005305612950468837
aF0.09668559956735066
aF0.0004731869423305734
aF0.29741556693161575
aF0.002146199199420662
aF0.07208010737922155
aF0.000628483213937877
aI-999
aF30.008853399772306
aI29
aa(lp85
g79
ag26
aS'2389'
p86
aF0.09665355187302951
aF0.0004918191134353931
aF0.5195086624150909
aF0.04566462587270015
aF0.29187253452935574
aF0.0021737502799206165
aF0.9673723368830967
aF0.011158855952041968
aF0.0013017443202218283
aF0.0005361092276127973
aF0.09665355187302951
aF0.0004918191134353931
aF0.29187253452935574
aF0.0021737502799206165
aF0.07071327994630967
aF0.000637829615685463
aI-999
aF42.17775392008105
aI29
aa(lp87
g79
ag26
aS'2589'
p88
aF0.09917587034203644
aF0.001249785895719822
aF0.1000175876000788
aF4.87318658679361
aF0.2963354617202243
aF0.0020668764523446848
aF0.9961308565457592
aF0.0008219723588178129
aF0.0017780169520841772
aF0.0005297920073285193
aF0.09917587034203644
aF0.001249785895719822
aF0.2963354617202243
aF0.0020668764523446848
aF0.07366811885604022
aF0.0010610532010694304
aI-999
aF40.01712438734852
aI29
aa(lp89
g79
ag26
aS'sum'
p90
aF0.0010831500226522164
aF6.037961032058346e-07
aF0.37056786318511237
aF0.004773986174733402
aF0.5064206564325571
aF5.134170588821796
aF0.9964656866684138
aF0.8634463412368555
aF-0.01167321711483363
aF1.111073673911113e-05
aF0.0010831500226522164
aF6.037961032058346e-07
aF0.5064206564325571
aF5.134170588821796
aF0.0013749596681868884
aF0.013939552840559708
aI-999
aF3.1301190492202927e-13
aI29
aa(lp91
S'6'
p92
ag40
aS'644'
p93
aF0.10870663980719848
aF0.0009335921677509297
aF0.10002730138434401
aF3.615721339527311
aF0.28728251370934127
aF0.0018676299761153092
aF0.9983971437434999
aF0.0012560182952757737
aF-0.00037977716665230267
aF0.0005491039286952759
aF0.10870663980719848
aF0.0009335921677509297
aF0.28728251370934127
aF0.0018676299761153092
aF0.07828078966532064
aF0.0008431830249314421
aI-999
aF22.15412993982978
aI29
aa(lp94
g92
ag40
aS'1215'
p95
aF0.10765464850754525
aF0.0008115923230682841
aF0.10000016848883062
aF0.17314831261797511
aF0.29789001896216644
aF0.001895807887252715
aF0.9977989709345985
aF0.0011635150660446736
aF0.0009717166597690666
aF0.0005324905470444753
aF0.10765464850754525
aF0.0008115923230682841
aF0.29789001896216644
aF0.001895807887252715
aF0.08038567697815477
aF0.0007930783260758315
aI-999
aF41.37212379361863
aI29
aa(lp96
g92
ag40
aS'2269'
p97
aF0.10689679511115359
aF0.0005727723308511185
aF0.4566311178564697
aF0.24356335717715139
aF0.2936474176744321
aF0.0020312630131867626
aF0.9916357424222259
aF0.010872724455745275
aF-0.0008547288001932333
aF0.0005660717310788377
aF0.10689679511115359
aF0.0005727723308511185
aF0.2936474176744321
aF0.0020312630131867626
aF0.07868298093267323
aF0.0006884643007218604
aI-999
aF26.423260538494887
aI29
aa(lp98
g92
ag40
aS'2389'
p99
aF0.1086198838907435
aF0.0009228686107296254
aF0.10000128253530097
aF0.23796960511976262
aF0.2905393940227452
aF0.0019337976360830622
aF0.9986367676399198
aF0.0013082064879506028
aF0.00039468599987869626
aF0.0005637292325511376
aF0.1086198838907435
aF0.0009228686107296254
aF0.2905393940227452
aF0.0019337976360830622
aF0.07910506555655669
aF0.0008537785599941347
aI-999
aF39.05226191610403
aI29
aa(lp100
g92
ag40
aS'2589'
p101
aF0.10813978286450454
aF0.0008810894508062779
aF0.10000247649616582
aF0.35631881613506255
aF0.29265164449413866
aF0.001980965759443787
aF0.997093304064796
aF0.00126002610156567
aF0.00018086304697111994
aF0.0005652577072824882
aF0.10813978286450454
aF0.0008810894508062779
aF0.29265164449413866
aF0.001980965759443787
aF0.07932798012457211
aF0.0008402946384423303
aI-999
aF28.767338825122078
aI29
aa(lp102
g92
ag40
aS'sum'
p103
aF0.0010831500226522164
aF6.037961032058346e-07
aF0.37056786318511237
aF0.004773986174733402
aF0.5064206564325571
aF5.134170588821796
aF0.9964656866684138
aF0.8634463412368555
aF-0.01167321711483363
aF1.111073673911113e-05
aF0.0010831500226522164
aF6.037961032058346e-07
aF0.5064206564325571
aF5.134170588821796
aF0.0013749596681868884
aF0.013939552840559708
aI-999
aF3.1301190492202927e-13
aI29
aa(lp104
S'7'
p105
ag26
aS'644'
p106
aF0.09839854960156895
aF0.0006231652957328614
aF0.3592131564004237
aF0.11629219222554543
aF0.2863681410312795
aF0.002000962755309671
aF0.9887088777400042
aF0.0058343720302931334
aF0.004598291318822948
aF0.0005279322952986999
aF0.09839854960156895
aF0.0006231652957328614
aF0.2863681410312795
aF0.002000962755309671
aF0.07063229723663617
aF0.0006660865030580493
aI-999
aF22.35418451608259
aI29
aa(lp107
g105
ag26
aS'1215'
p108
aF0.0964056852749309
aF0.0005394073377137437
aF0.35714023850634835
aF0.11251814627320583
aF0.29955937423691953
aF0.002032554029343464
aF0.9907666654267829
aF0.004719616995668086
aF0.003238629711670979
aF0.0005036900889587554
aF0.0964056852749309
aF0.0005394073377137437
aF0.29955937423691953
aF0.002032554029343464
aF0.07238948633065465
aF0.0006366335883801973
aI-999
aF18.724741762594103
aI29
aa(lp109
g105
ag26
aS'2269'
p110
aF0.09776466643161695
aF0.000774106906605203
aF0.2852888501636828
aF0.13757224767244397
aF0.2919328769722283
aF0.002065099774495177
aF0.9929984693169915
aF0.0034628310290703013
aF0.004285151601808306
aF0.000538191638987763
aF0.09776466643161695
aF0.000774106906605203
aF0.2919328769722283
aF0.002065099774495177
aF0.0715409765765947
aF0.0007596007788525387
aI-999
aF23.76147775795898
aI29
aa(lp111
g105
ag26
aS'2389'
p112
aF0.09882689767039965
aF0.0011188300386140836
aF0.28497198440031446
aF0.1169366817654914
aF0.2903113873782458
aF0.002073740939631724
aF0.987023970254636
aF0.005182664338164222
aF0.003302881585765931
aF0.0005451949874747533
aF0.09882689767039965
aF0.0011188300386140836
aF0.2903113873782458
aF0.002073740939631724
aF0.07191660343474242
aF0.0009626951299445283
aI-999
aF27.816791024714426
aI29
aa(lp113
g105
ag26
aS'2589'
p114
aF0.09927492274496763
aF0.0006151407265413557
aF0.10003249768356631
aF0.27933523101426266
aF0.29243759861412005
aF0.002041041124874299
aF0.9962786190314925
aF0.0008197522910978194
aF0.0032653251796678964
aF0.000536076500798099
aF0.09927492274496763
aF0.0006151407265413557
aF0.29243759861412005
aF0.002041041124874299
aF0.07277173023858907
aF0.0006791856201745081
aI-999
aF17.065854818200187
aI29
aa(lp115
g105
ag26
aS'sum'
p116
aF0.0010831500226522164
aF6.037961032058345e-07
aF0.37056786318511237
aF0.004773986174733402
aF0.5064206564325571
aF5.134170588821796
aF0.9964656866684138
aF0.8634463412368554
aF-0.01167321711483363
aF1.1110736739111128e-05
aF0.0010831500226522164
aF6.037961032058345e-07
aF0.5064206564325571
aF5.134170588821796
aF0.0013749596681868884
aF0.013939552840559708
aI-999
aF3.1301190492202927e-13
aI29
aa(lp117
S'8'
p118
ag40
aS'644'
p119
aF0.10667560686142537
aF0.001269880485119359
aF0.25914222488148614
aF0.40747703856987694
aF0.2854986765375983
aF0.0019094765576709027
aF0.9971628046300383
aF0.0034006025930317096
aF-0.0008260964659047133
aF0.000554812078804457
aF0.10667560686142537
aF0.001269880485119359
aF0.2854986765375983
aF0.0019094765576709027
aF0.07634123048360834
aF0.0010423879275128227
aI-999
aF21.145146925825944
aI29
aa(lp120
g118
ag40
aS'1215'
p121
aF0.1062320430032616
aF0.000396321741103936
aF4.999854096873176
aF4.805510493404226
aF0.2933690677195441
aF0.001822638813836236
aF0.9999999824166517
aF0.020380984997936946
aF0.0003023528781304279
aF0.0005379244078200008
aF0.1062320430032616
aF0.000396321741103936
aF0.2933690677195441
aF0.001822638813836236
aF0.07811956001868146
aF0.0005661213267106225
aI-999
aF56.22746531073021
aI29
aa(lp122
g118
ag40
aS'2269'
p123
aF0.10685701554441315
aF0.000852781162906078
aF0.10000565887313663
aF0.5622479112072987
aF0.2890790604282118
aF0.0019807859837538966
aF0.9989463795190832
aF0.00122434216644296
aF-0.0008948999818875582
aF0.0005707330486796978
aF0.10685701554441315
aF0.000852781162906078
aF0.2890790604282118
aF0.0019807859837538966
aF0.07743006237057355
aF0.0008144537053678394
aI-999
aF37.804658447004925
aI29
aa(lp124
g118
ag40
aS'2389'
p125
aF0.10646259275495554
aF0.0007681571399886037
aF0.25773404966239105
aF0.3348853164011714
aF0.28676006379203356
aF0.001978203797042888
aF0.9981544596415086
aF0.0022813536853532046
aF-0.0019287014403210475
aF0.000569907317104349
aF0.10646259275495554
aF0.0007681571399886037
aF0.28676006379203356
aF0.001978203797042888
aF0.07652540577839115
aF0.0007639099519608431
aI-999
aF61.46113168784697
aI29
aa(lp126
g118
ag40
aS'2589'
p127
aF0.10683792829902523
aF0.0008682591565701538
aF0.10000055744879718
aF0.2703479662936857
aF0.28992480138558163
aF0.001984875224067123
aF0.9997234268528545
aF0.0014060346666683876
aF-0.0012949324666657212
aF0.000572051827582722
aF0.10683792829902523
aF0.0008682591565701538
aF0.28992480138558163
aF0.001984875224067123
aF0.07764272343200519
aF0.0008250476607881882
aI-999
aF41.972550226690515
aI29
aa(lp128
g118
ag40
aS'sum'
p129
aF0.0010831500226522164
aF6.037961032058345e-07
aF0.37056786318511237
aF0.004773986174733402
aF0.5064206564325571
aF5.134170588821796
aF0.9964656866684138
aF0.8634463412368554
aF-0.01167321711483363
aF1.1110736739111128e-05
aF0.0010831500226522164
aF6.037961032058345e-07
aF0.5064206564325571
aF5.134170588821796
aF0.0013749596681868884
aF0.013939552840559708
aI-999
aF3.1301190492202927e-13
aI29
aa.