(lp0
(lp1
S'XscanNumber_YscanNumber'
p2
aS'Type'
p3
aS'BCID'
p4
aS'xsec'
p5
aS'xsecErr'
p6
aS'normChange'
p7
aS'normChangeErr'
p8
aa(lp9
S'1_2'
p10
aS'XY'
p11
aS'sum'
p12
aF19.894035028777218
aF829.660110205608
aF-999.0
aF-999.0
aa(lp13
S'1_2'
p14
ag11
aS'1783'
p15
aF8403452.967082988
aF35613.42361859051
aF-999.0
aF-999.0
aa(lp16
S'1_2'
p17
ag11
aS'872'
p18
aF8527726.04146421
aF36632.82136357921
aF-999.0
aF-999.0
aa(lp19
S'1_2'
p20
ag11
aS'41'
p21
aF8430844.94155862
aF55076.311501029224
aF-999.0
aF-999.0
aa(lp22
S'1_2'
p23
ag11
aS'281'
p24
aF8465074.851317575
aF34935.45462402428
aF-999.0
aF-999.0
aa(lp25
S'1_2'
p26
ag11
aS'2063'
p27
aF8464650.308377199
aF22726.40074072896
aF-999.0
aF-999.0
aa(lp28
S'4_3'
p29
ag11
aS'sum'
p30
aF19.894035028777218
aF829.660110205608
aF-999.0
aF-999.0
aa(lp31
S'4_3'
p32
ag11
aS'1783'
p33
aF8422680.616784215
aF34829.90657414932
aF-999.0
aF-999.0
aa(lp34
S'4_3'
p35
ag11
aS'872'
p36
aF8498952.746463433
aF35192.92308430722
aF-999.0
aF-999.0
aa(lp37
S'4_3'
p38
ag11
aS'41'
p39
aF8453917.611525951
aF37055.51660145257
aF-999.0
aF-999.0
aa(lp40
S'4_3'
p41
ag11
aS'281'
p42
aF8484350.413478637
aF34274.02029602031
aF-999.0
aF-999.0
aa(lp43
S'4_3'
p44
ag11
aS'2063'
p45
aF8469193.586555678
aF30006.08194032232
aF-999.0
aF-999.0
aa(lp46
S'5_6'
p47
ag11
aS'sum'
p48
aF2.5025230114578065e-08
aF6649.1739983235375
aF-999.0
aF-999.0
aa(lp49
S'5_6'
p50
ag11
aS'1783'
p51
aF8321693.539140431
aF23182.157405046357
aF-999.0
aF-999.0
aa(lp52
S'5_6'
p53
ag11
aS'872'
p54
aF8401561.349201959
aF23989.226386928567
aF-999.0
aF-999.0
aa(lp55
S'5_6'
p56
ag11
aS'41'
p57
aF8389678.578427669
aF33503.4802914478
aF-999.0
aF-999.0
aa(lp58
S'5_6'
p59
ag11
aS'281'
p60
aF8344398.587600409
aF32593.829386094145
aF-999.0
aF-999.0
aa(lp61
S'5_6'
p62
ag11
aS'2063'
p63
aF8376258.002613791
aF21159.300059014
aF-999.0
aF-999.0
aa(lp64
S'7_8'
p65
ag11
aS'sum'
p66
aF2.5025230114578065e-08
aF6649.1739983235375
aF-999.0
aF-999.0
aa(lp67
S'7_8'
p68
ag11
aS'1783'
p69
aF8439581.257682657
aF23373.302744457545
aF-999.0
aF-999.0
aa(lp70
S'7_8'
p71
ag11
aS'872'
p72
aF8475813.298522742
aF22731.392423841316
aF-999.0
aF-999.0
aa(lp73
S'7_8'
p74
ag11
aS'41'
p75
aF8464280.112600755
aF46439.53794545423
aF-999.0
aF-999.0
aa(lp76
S'7_8'
p77
ag11
aS'281'
p78
aF8414936.621757807
aF32321.969651718155
aF-999.0
aF-999.0
aa(lp79
S'7_8'
p80
ag11
aS'2063'
p81
aF8420099.955384046
aF21442.432740344404
aF-999.0
aF-999.0
aa(lp82
S'9_10'
p83
ag11
aS'sum'
p84
aF19.894035028777218
aF829.660110205608
aF-999.0
aF-999.0
aa(lp85
S'9_10'
p86
ag11
aS'1783'
p87
aF8475579.539237648
aF34700.3761637398
aF-999.0
aF-999.0
aa(lp88
S'9_10'
p89
ag11
aS'872'
p90
aF8524675.128768597
aF34846.33001806757
aF-999.0
aF-999.0
aa(lp91
S'9_10'
p92
ag11
aS'41'
p93
aF8444045.34273219
aF36317.67169883579
aF-999.0
aF-999.0
aa(lp94
S'9_10'
p95
ag11
aS'281'
p96
aF8507671.45769652
aF36531.76721159137
aF-999.0
aF-999.0
aa(lp97
S'9_10'
p98
ag11
aS'2063'
p99
aF8444255.130099036
aF21752.700136420186
aF-999.0
aF-999.0
aa.