(lp0
(lp1
S'XscanNumber_YscanNumber'
p2
aS'Type'
p3
aS'BCID'
p4
aS'xsec'
p5
aS'xsecErr'
p6
aS'normChange'
p7
aS'normChangeErr'
p8
aa(lp9
S'1_2'
p10
aS'XY'
p11
aS'sum'
p12
aF5.554800196290811
aF0.23565565007445805
aF-999.0
aF-999.0
aa(lp13
S'1_2'
p14
ag11
aS'1783'
p15
aF7464163.462290733
aF57559.59871954298
aF-999.0
aF-999.0
aa(lp16
S'1_2'
p17
ag11
aS'872'
p18
aF7512469.749448033
aF60373.34202712511
aF-999.0
aF-999.0
aa(lp19
S'1_2'
p20
ag11
aS'41'
p21
aF7487140.734827305
aF54048.60291397131
aF-999.0
aF-999.0
aa(lp22
S'1_2'
p23
ag11
aS'281'
p24
aF7519484.108404875
aF55435.26877689695
aF-999.0
aF-999.0
aa(lp25
S'1_2'
p26
ag11
aS'2063'
p27
aF7472572.280608275
aF63770.614391006384
aF-999.0
aF-999.0
aa(lp28
S'4_3'
p29
ag11
aS'sum'
p30
aF0.18209191535996364
aF17.62370125351711
aF-999.0
aF-999.0
aa(lp31
S'4_3'
p32
ag11
aS'1783'
p33
aF7464101.730110777
aF78264.28483160632
aF-999.0
aF-999.0
aa(lp34
S'4_3'
p35
ag11
aS'872'
p36
aF7422757.841742958
aF63209.56149947394
aF-999.0
aF-999.0
aa(lp37
S'4_3'
p38
ag11
aS'41'
p39
aF7487147.1290607415
aF62786.12009911566
aF-999.0
aF-999.0
aa(lp40
S'4_3'
p41
ag11
aS'281'
p42
aF7573998.686531214
aF61988.63110690248
aF-999.0
aF-999.0
aa(lp43
S'4_3'
p44
ag11
aS'2063'
p45
aF7462663.800151182
aF60011.71533230902
aF-999.0
aF-999.0
aa(lp46
S'5_6'
p47
ag11
aS'sum'
p48
aF-1.7677664232202006
aF-0.17021094465136444
aF-999.0
aF-999.0
aa(lp49
S'5_6'
p50
ag11
aS'1783'
p51
aF7408319.137692668
aF51410.55053580864
aF-999.0
aF-999.0
aa(lp52
S'5_6'
p53
ag11
aS'872'
p54
aF7553575.465650652
aF60843.1645566451
aF-999.0
aF-999.0
aa(lp55
S'5_6'
p56
ag11
aS'41'
p57
aF7397770.187229031
aF50569.242202191366
aF-999.0
aF-999.0
aa(lp58
S'5_6'
p59
ag11
aS'281'
p60
aF7682145.229275587
aF67675.79889086238
aF-999.0
aF-999.0
aa(lp61
S'5_6'
p62
ag11
aS'2063'
p63
aF7416608.916828642
aF50243.97575751462
aF-999.0
aF-999.0
aa(lp64
S'7_8'
p65
ag11
aS'sum'
p66
aF0.06732199111308085
aF8.191823986896789e-07
aF-999.0
aF-999.0
aa(lp67
S'7_8'
p68
ag11
aS'1783'
p69
aF7403893.276219098
aF51254.7929912207
aF-999.0
aF-999.0
aa(lp70
S'7_8'
p71
ag11
aS'872'
p72
aF7471717.807685283
aF53927.43559973571
aF-999.0
aF-999.0
aa(lp73
S'7_8'
p74
ag11
aS'41'
p75
aF7404445.622947295
aF55205.06128379787
aF-999.0
aF-999.0
aa(lp76
S'7_8'
p77
ag11
aS'281'
p78
aF7316100.561366858
aF50318.23134561747
aF-999.0
aF-999.0
aa(lp79
S'7_8'
p80
ag11
aS'2063'
p81
aF7334412.582310639
aF51176.63789034416
aF-999.0
aF-999.0
aa(lp82
S'9_10'
p83
ag11
aS'sum'
p84
aF13.033472458802212
aF7.986824589671357
aF-999.0
aF-999.0
aa(lp85
S'9_10'
p86
ag11
aS'1783'
p87
aF7496508.46599545
aF79765.38689496064
aF-999.0
aF-999.0
aa(lp88
S'9_10'
p89
ag11
aS'872'
p90
aF7428023.857389312
aF57204.30002428676
aF-999.0
aF-999.0
aa(lp91
S'9_10'
p92
ag11
aS'41'
p93
aF7420865.618576521
aF65747.19069798112
aF-999.0
aF-999.0
aa(lp94
S'9_10'
p95
ag11
aS'281'
p96
aF7484918.706043852
aF56760.743425968925
aF-999.0
aF-999.0
aa(lp97
S'9_10'
p98
ag11
aS'2063'
p99
aF7584300.3203569995
aF57434.09732373568
aF-999.0
aF-999.0
aa(lp100
S'11_12'
p101
ag11
aS'sum'
p102
aF0.13724266871334898
aF0.006228131677395595
aF-999.0
aF-999.0
aa(lp103
S'11_12'
p104
ag11
aS'1783'
p105
aF7592306.791047447
aF58330.801560354535
aF-999.0
aF-999.0
aa(lp106
S'11_12'
p107
ag11
aS'872'
p108
aF7578425.610495229
aF57384.93299512338
aF-999.0
aF-999.0
aa(lp109
S'11_12'
p110
ag11
aS'41'
p111
aF7553449.154849448
aF38078.6033745102
aF-999.0
aF-999.0
aa(lp112
S'11_12'
p113
ag11
aS'281'
p114
aF7611104.07589031
aF55570.95116711358
aF-999.0
aF-999.0
aa(lp115
S'11_12'
p116
ag11
aS'2063'
p117
aF7603946.301469323
aF72251.92852105403
aF-999.0
aF-999.0
aa.